(dp0
(S'liquid'
p1
S'iceberg'
p2
tp3
I0
s(S'hard'
p4
S'milk_tooth'
p5
tp6
I0
s(S'permanent'
p7
S'mandala'
p8
tp9
I0
s(S'hollow'
p10
S'plank'
p11
tp12
I-1
s(S'spry'
p13
S'gopher'
p14
tp15
I0
s(S'straight'
p16
S'rail_fence'
p17
tp18
I0
s(S'dark'
p19
S'duckling'
p20
tp21
I0
s(S'solid'
p22
S'coconut'
p23
tp24
I1
s(S'durable'
p25
S'crocodile'
p26
tp27
I0
s(S'tender'
p28
S'lioness'
p29
tp30
I0
s(S'dull'
p31
S'blade'
p32
tp33
I-1
s(S'nimble'
p34
S'greyhound'
p35
tp36
I0
s(S'slow'
p37
S'hornet'
p38
tp39
I0
s(S'weak'
p40
S'sumo_wrestler'
p41
tp42
I0
s(g16
S'lamppost'
p43
tp44
I1
s(S'voiced'
p45
S'axe'
p46
tp47
I0
s(S'robust'
p48
S'sparrow'
p49
tp50
I0
s(S'mute'
p51
S'mule'
p52
tp53
I0
s(S'unskilled'
p54
S'artist'
p55
tp56
I-1
s(S'impalpable'
p57
S'toothache'
p58
tp59
I0
s(S'dry'
p60
S'pool'
p61
tp62
I0
s(S'secure'
p63
S'prison'
p64
tp65
I1
s(S'limp'
p66
S'noodle'
p67
tp68
I0
s(S'toxic'
p69
S'jellyfish'
p70
tp71
I1
s(S'wet'
p72
S'pool'
p73
tp74
I1
s(S'dirty'
p75
S'warthog'
p76
tp77
I0
s(S'fleet'
p78
S'pigeon'
p79
tp80
I0
s(S'immobile'
p81
S'dinner_table'
p82
tp83
I0
s(S'dead'
p84
S'tree'
p85
tp86
I1
s(S'clean'
p87
S'snowball'
p88
tp89
I1
s(S'bald'
p90
S'cue_ball'
p91
tp92
I0
s(S'neuter'
p93
S'skirt'
p94
tp95
I-1
s(S'imperfect'
p96
S'idol'
p97
tp98
I0
s(S'tangible'
p99
S'scent'
p100
tp101
I0
s(S'immaterial'
p102
S'ghost'
p103
tp104
I1
s(S'healthy'
p105
S'bull'
p106
tp107
I0
s(S'sturdy'
p108
S'screw'
p109
tp110
I0
s(S'disorderly'
p111
S'golf_course'
p112
tp113
I0
s(S'gaseous'
p114
S'paperweight'
p115
tp116
I0
s(S'inflexible'
p117
S'acrobat'
p118
tp119
I0
s(S'heavy'
p120
S'lineman'
p121
tp122
I1
s(S'slim'
p123
S'whippet'
p124
tp125
I1
s(g120
S'mountain'
p126
tp127
I-1
s(S'segregated'
p128
S'computer_circuit'
p129
tp130
I0
s(g10
S'linebacker'
p131
tp132
I0
s(S'light'
p133
S'bird'
p134
tp135
I1
s(S'graceful'
p136
S'cat'
p137
tp138
I0
s(S'salty'
p139
S'dew'
p140
tp141
I0
s(S'animate'
p142
S'mask'
p143
tp144
I0
s(g90
S'peach'
p145
tp146
I0
s(S'sparkling'
p147
S'sniper'
p148
tp149
I0
s(S'potent'
p150
S'truth_serum'
p151
tp152
I0
s(g34
S'grasshopper'
p153
tp154
I0
s(S'full'
p155
S'leech'
p156
tp157
I0
s(g28
S'brick'
p158
tp159
I1
s(S'rigid'
p160
S'headstone'
p161
tp162
I0
s(S'inelastic'
p163
S'bungee_cord'
p164
tp165
I0
s(S'sleek'
p166
S'eel'
p167
tp168
I0
s(g40
S'horse'
p169
tp170
I1
s(g102
S'shadow'
p171
tp172
I1
s(S'delicate'
p173
S'ballerina'
p174
tp175
I0
s(S'green'
p176
S'pumpkin'
p177
tp178
I0
s(S'penetrating'
p179
S'blade'
p180
tp181
I1
s(S'curved'
p182
S'circle'
p183
tp184
I1
s(S'safe'
p185
S'hand_grenade'
p186
tp187
I0
s(S'mobile'
p188
S'waxwork'
p189
tp190
I0
s(S'robust'
p191
S'laptop'
p192
tp193
I0
s(S'perfect'
p194
S'picture_postcard'
p195
tp196
I0
s(g176
S'watermelon'
p197
tp198
I0
s(S'lethargic'
p199
S'slug'
p200
tp201
I0
s(S'fresh'
p202
S'cowslip'
p203
tp204
I0
s(S'tough'
p205
S'bunny_rabbit'
p206
tp207
I0
s(g40
S'athlete'
p208
tp209
I0
s(g120
S'anchor'
p210
tp211
I1
s(g48
S'dove'
p212
tp213
I0
s(S'sharp'
p214
S'spear'
p215
tp216
I1
s(S'unsupportive'
p217
S'wife'
p218
tp219
I0
s(S'quick'
p220
S'cheetah'
p221
tp222
I0
s(S'still'
p223
S'doll'
p224
tp225
I-1
s(g166
S'sloop'
p226
tp227
I0
s(g166
S'torpedo'
p228
tp229
I0
s(S'inactive'
p230
S'catalyst'
p231
tp232
I-1
s(S'ugly'
p233
S'reptile'
p234
tp235
I1
s(S'complex'
p236
S'microprocessor'
p237
tp238
I1
s(S'sweet'
p239
S'saltine'
p240
tp241
I-1
s(S'soft'
p242
S'blacksmith'
p243
tp244
I0
s(g16
S'ramrod'
p245
tp246
I0
s(S'live'
p247
S'possum'
p248
tp249
I1
s(S'inactive'
p250
S'squirrel'
p251
tp252
I0
s(S'ripe'
p253
S'cucumber'
p254
tp255
I0
s(S'fledged'
p256
S'kid'
p257
tp258
I0
s(g28
S'steel'
p259
tp260
I1
s(S'toothed'
p261
S'lamprey'
p262
tp263
I0
s(S'uncompromising'
p264
g158
tp265
I0
s(S'stout'
p266
S'oak'
p267
tp268
I0
s(S'stiff'
p269
S'oak_tree'
p270
tp271
I0
s(S'strong'
p272
S'tractor'
p273
tp274
I0
s(S'surefooted'
p275
S'camel'
p276
tp277
I0
s(S'strong'
p278
S'infant'
p279
tp280
I-1
s(S'unreal'
p281
S'puppet_show'
p282
tp283
I0
s(S'heavy'
p284
S'pillow'
p285
tp286
I0
s(g37
S'whippet'
p287
tp288
I0
s(g90
S'monk'
p289
tp290
I0
s(S'frail'
p291
S'laptop'
p292
tp293
I0
s(S'unnatural'
p294
S'fish'
p295
tp296
I-1
s(S'awkward'
p297
S'sumo_wrestler'
p298
tp299
I0
s(S'loose'
p300
S'garter_belt'
p301
tp302
I0
s(g117
S'yogi'
p303
tp304
I0
s(S'dry'
p305
S'frog'
p306
tp307
I0
s(g278
S'paper_towel'
p308
tp309
I0
s(g108
S'warship'
p310
tp311
I1
s(g31
S'lance'
p312
tp313
I-1
s(S'helpless'
p314
S'infant'
p315
tp316
I1
s(S'fragile'
p317
S'reed'
p318
tp319
I0
s(S'flat'
p320
S'switchblade'
p321
tp322
I0
s(S'sexy'
p323
S'head_cold'
p324
tp325
I0
s(g269
S'mannequin'
p326
tp327
I1
s(g269
S'rail'
p328
tp329
I0
s(g142
S'stone'
p330
tp331
I-1
s(S'stale'
p332
S'mummy'
p333
tp334
I-1
s(S'anaphrodisiac'
p335
S'master_bedroom'
p336
tp337
I0
s(S'tight'
p338
S'jar'
p339
tp340
I1
s(S'swift'
p341
S'fox'
p342
tp343
I0
s(g63
S'fortress'
p344
tp345
I0
s(g40
S'wolf'
p346
tp347
I0
s(g133
g174
tp348
I0
s(S'frisky'
p349
S'teenager'
p350
tp351
I0
s(g239
g295
tp352
I1
s(S'solid'
p353
S'block'
p354
tp355
I1
s(S'dirty'
p356
S'truck_stop'
p357
tp358
I0
s(g220
S'corvette'
p359
tp360
I0
s(S'impotent'
p361
S'slayer'
p362
tp363
I0
s(S'lovely'
p364
S'dream'
p365
tp366
I0
s(S'pervious'
p367
S'bank_vault'
p368
tp369
I0
s(g136
S'butterfly'
p370
tp371
I0
s(g364
S'princess'
p372
tp373
I0
s(S'agile'
p374
g174
tp375
I0
s(S'athletic'
p376
S'abalone'
p377
tp378
I0
s(S'sharp'
p379
S'doorknob'
p380
tp381
I0
s(S'incidental'
p382
S'bed'
p383
tp384
I-1
s(S'awkward'
p385
S'bride'
p386
tp387
I0
s(g123
S'envelope'
p388
tp389
I0
s(g335
S'mackerel'
p390
tp391
I0
s(S'poisonous'
p392
S'cobra'
p393
tp394
I1
s(S'unfurrowed'
p395
S'battleship'
p396
tp397
I0
s(S'immutable'
p398
S'papal_bull'
p399
tp400
I0
s(S'out'
p401
S'fortress'
p402
tp403
I0
s(S'rested'
p404
S'sloth'
p405
tp406
I0
s(g120
S'tractor_trailer'
p407
tp408
I1
s(S'abstract'
p409
S'poker'
p410
tp411
I0
s(g136
S'dolphin'
p412
tp413
I0
s(S'crooked'
p414
S'pretzel'
p415
tp416
I0
s(S'sharp'
p417
S'gazelle'
p418
tp419
I0
s(S'fast'
p420
S'oil_tanker'
p421
tp422
I0
s(S'inactive'
p423
S'couch_potato'
p424
tp425
I0
s(S'dead'
p426
S'mummy'
p427
tp428
I0
s(S'impenetrable'
p429
S'hockey_puck'
p430
tp431
I0
s(S'natural'
p432
S'doll'
p433
tp434
I0
s(S'helpless'
p435
S'piranha'
p436
tp437
I0
s(S'fat'
p438
S'hippopotamus'
p439
tp440
I0
s(S'unwrinkled'
p441
S'raisin'
p442
tp443
I0
s(g10
g158
tp444
I-1
s(g31
S'whip'
p445
tp446
I0
s(g242
S'harlot'
p447
tp448
I0
s(S'tough'
p449
S'castle'
p450
tp451
I0
s(g108
S'refrigerator'
p452
tp453
I0
s(g120
S'paperweight'
p454
tp455
I1
s(S'corporeal'
p456
S'ghost'
p457
tp458
I1
s(g417
S'toupee'
p459
tp460
I0
s(S'crisp'
p461
S'chip'
p462
tp463
I1
s(g182
S'ramrod'
p464
tp465
I0
s(S'lethargic'
p466
S'tree_sloth'
p467
tp468
I0
s(S'complicated'
p469
S'hammer'
p470
tp471
I0
s(g182
S'broom_handle'
p472
tp473
I0
s(S'hollow'
p474
g318
tp475
I1
s(g28
S'steak'
p476
tp477
I1
s(S'hideous'
p478
S'prison_camp'
p479
tp480
I0
s(S'lovely'
p481
S'garbage_can'
p482
tp483
I0
s(g31
g158
tp484
I1
s(S'brittle'
p485
S'cookie'
p486
tp487
I1
s(g429
S'glacier'
p488
tp489
I0
s(S'weak'
p490
S'toddler'
p491
tp492
I0
s(S'frail'
p493
S'potato_chip'
p494
tp495
I0
s(g379
S'marshmallow'
p496
tp497
I0
s(g40
S'titanium'
p498
tp499
I1
s(g356
S'snowball'
p500
tp501
I0
s(S'unsexy'
p502
S'date_rape'
p503
tp504
I0
s(S'straight'
p505
S'boomerang'
p506
tp507
I0
s(g87
S'temple'
p508
tp509
I0
s(S'leaky'
p510
g368
tp511
I0
s(g78
S'seagull'
p512
tp513
I0
s(g272
S'lioness'
p514
tp515
I0
s(S'artificial'
p516
S'tree_branch'
p517
tp518
I-1
s(S'immobile'
p519
S'monument'
p520
tp521
I0
s(g182
S'telephone_pole'
p522
tp523
I0
s(S'intangible'
p524
S'soul'
p525
tp526
I1
s(g123
S'ballpoint_pen'
p527
tp528
I1
s(S'meatless'
p529
S'sirloin_steak'
p530
tp531
I0
s(g147
S'sculpture'
p532
tp533
I0
s(g297
g276
tp534
I0
s(S'operational'
p535
S'mussel'
p536
tp537
I0
s(g220
S'wink'
p538
tp539
I1
s(S'quick'
p540
S'willow_tree'
p541
tp542
I0
s(g182
S'rail'
p543
tp544
I-1
s(S'nonfat'
p545
S'panda'
p546
tp547
I0
s(g353
g450
tp548
I0
s(g236
S'encyclopaedia'
p549
tp550
I0
s(g284
S'veil'
p551
tp552
I0
s(S'preserved'
p553
S'trash_can'
p554
tp555
I0
s(S'unformed'
p556
S'newborn'
p557
tp558
I0
s(g214
S'scythe'
p559
tp560
I1
s(S'easy'
p561
S'brickbat'
p562
tp563
I0
s(S'wholesome'
p564
S'quilting_bee'
p565
tp566
I0
s(S'lively'
p567
S'mallet'
p568
tp569
I0
s(g264
S'tortilla'
p570
tp571
I0
s(g516
S'waterfall'
p572
tp573
I-1
s(S'rugged'
p574
S'insect'
p575
tp576
I0
s(S'brave'
p577
S'hare'
p578
tp579
I0
s(g401
S'hand_grenade'
p580
tp581
I0
s(g182
S'sidewinder'
p582
tp583
I0
s(g176
S'peach'
p584
tp585
I0
s(g233
S'sea_slug'
p586
tp587
I0
s(g574
S'lily'
p588
tp589
I0
s(g490
S'lamb'
p590
tp591
I0
s(g553
S'ingenue'
p592
tp593
I0
s(g239
S'bone'
p594
tp595
I0
s(S'stable'
p596
g450
tp597
I0
s(S'integrated'
p598
S'computer_circuit'
p599
tp600
I0
s(S'complicated'
p601
S'maze'
p602
tp603
I1
s(S'fast'
p604
S'raptor'
p605
tp606
I1
s(S'muscular'
p607
S'blacksmith'
p608
tp609
I0
s(S'dexterous'
p610
S'conjuror'
p611
tp612
I0
s(g574
S'flower'
p613
tp614
I-1
s(S'frozen'
p615
S'popsicle'
p616
tp617
I1
s(S'soft'
p618
S'caress'
p619
tp620
I0
s(g45
S'tombstone'
p621
tp622
I0
s(g519
S'corpse'
p623
tp624
I0
s(S'fragile'
p625
S'sumo_wrestler'
p626
tp627
I0
s(S'vigorous'
p628
S'sugar_maple'
p629
tp630
I0
s(g490
S'rag_doll'
p631
tp632
I0
s(S'nonrigid'
p633
S'fatwah'
p634
tp635
I0
s(S'dense'
p636
S'banana_bread'
p637
tp638
I0
s(S'peppy'
p639
S'fireball'
p640
tp641
I0
s(g40
S'daisy_cutter'
p642
tp643
I0
s(g361
S'train'
p644
tp645
I0
s(S'loud'
p646
S'cushion'
p647
tp648
I-1
s(g361
S'oak_tree'
p649
tp650
I0
s(g461
S'snow_pea'
p651
tp652
I0
s(S'passive'
p653
S'toddler'
p654
tp655
I0
s(g19
S'skyscraper'
p656
tp657
I0
s(S'coiled'
p658
S'tire'
p659
tp660
I0
s(g40
g362
tp661
I0
s(g272
S'knight'
p662
tp663
I1
s(g561
S'rock'
p664
tp665
I1
s(S'nonexplosive'
p666
S'coil_spring'
p667
tp668
I0
s(S'mutable'
p669
S'fate'
p670
tp671
I0
s(g136
S'gazelle'
p672
tp673
I0
s(S'fit'
p674
S'horse'
p675
tp676
I0
s(g155
S'drunk'
p677
tp678
I0
s(g432
S'butter'
p679
tp680
I1
s(S'vertebrate'
p681
S'worm'
p682
tp683
I-1
s(S'juicy'
p684
S'nectarine'
p685
tp686
I0
s(g382
S'bedroom'
p687
tp688
I0
s(S'fresh'
p689
S'ingenue'
p690
tp691
I0
s(g432
S'cucumber'
p692
tp693
I1
s(g658
S'pin'
p694
tp695
I0
s(S'safe'
p696
S'womb'
p697
tp698
I0
s(S'thin'
p699
S'hippopotamus'
p700
tp701
I0
s(g432
S'laser_beam'
p702
tp703
I0
s(S'graceful'
p704
S'truck'
p705
tp706
I0
s(g674
g52
tp707
I0
s(S'endomorphic'
p708
S'boxer'
p709
tp710
I0
s(S'insecure'
p711
S'womb'
p712
tp713
I0
s(g272
S'rock'
p714
tp715
I1
s(g40
S'thunderstorm'
p716
tp717
I-1
s(g604
S'panther'
p718
tp719
I0
s(g545
S'telephone_directory'
p720
tp721
I0
s(S'crooked'
p722
S'bowstring'
p723
tp724
I0
s(S'tangible'
p725
S'statue'
p726
tp727
I1
s(S'tangled'
p728
S'soap_opera'
p729
tp730
I0
s(S'light'
p731
g700
tp732
I0
s(g618
S'poodle'
p733
tp734
I1
s(g379
S'teaspoon'
p735
tp736
I0
s(g297
S'hound_dog'
p737
tp738
I0
s(g432
S'dog_turd'
p739
tp740
I0
s(S'impermanent'
p741
S'mountain_range'
p742
tp743
I0
s(S'supportive'
p744
S'parent'
p745
tp746
I1
s(g133
S'salad'
p747
tp748
I1
s(g607
S'gymnast'
p749
tp750
I0
s(g25
S'steel_plate'
p751
tp752
I0
s(S'unfit'
p753
S'stripper'
p754
tp755
I1
s(g37
S'washcloth'
p756
tp757
I0
s(S'rough'
p758
S'cactus'
p759
tp760
I0
s(g332
S'geisha_girl'
p761
tp762
I0
s(S'active'
p763
S'beehive'
p764
tp765
I0
s(g722
S'bayonet'
p766
tp767
I0
s(S'beautiful'
p768
S'dump'
p769
tp770
I0
s(g618
S'mattress'
p771
tp772
I1
s(g684
S'lychee'
p773
tp774
I1
s(g28
S'truck'
p775
tp776
I0
s(g696
S'hospital'
p777
tp778
I1
s(S'clean'
p779
S'sewer_rat'
p780
tp781
I0
s(S'unsaturated'
p782
S'torrent'
p783
tp784
I0
s(g684
S'porterhouse_steak'
p785
tp786
I0
s(g90
S'marble'
p787
tp788
I0
s(S'curly'
p789
S'rifle_shot'
p790
tp791
I0
s(g466
g623
tp792
I0
s(g214
S'owl'
p793
tp794
I-1
s(g199
S'sprite'
p795
tp796
I0
s(S'homogeneous'
p797
S'culture_medium'
p798
tp799
I1
s(S'awkward'
p800
g775
tp801
I0
s(g432
S'sponge'
p802
tp803
I1
s(S'wet'
p804
S'dust_devil'
p805
tp806
I0
s(g160
g215
tp807
I0
s(S'lively'
p808
S'convent'
p809
tp810
I0
s(g385
S'sparrow'
p811
tp812
I0
s(g37
S'rabbit'
p813
tp814
I0
s(g28
S'hammer'
p815
tp816
I0
s(S'cut'
p817
g664
tp818
I0
s(g417
S'bowel_movement'
p819
tp820
I0
s(S'unmanly'
p821
S'baseball_player'
p822
tp823
I0
s(S'full'
p824
S'prison_cell'
p825
tp826
I1
s(g618
S'fur_coat'
p827
tp828
I1
s(g364
S'mistress'
p829
tp830
I0
s(g34
S'basketball_player'
p831
tp832
I0
s(g699
S'harvest_moon'
p833
tp834
I0
s(g242
S'granite'
p835
tp836
I-1
s(g250
S'adventure'
p837
tp838
I0
s(g1
S'tank'
p839
tp840
I0
s(g233
S'sin'
p841
tp842
I1
s(S'extinct'
p843
S'shark'
p844
tp845
I0
s(g699
S'cow'
p846
tp847
I0
s(S'sterile'
p848
S'brain_surgery'
p849
tp850
I0
s(g278
S'feather'
p851
tp852
I0
s(g269
S'stick'
p853
tp854
I1
s(g320
S'edge'
p855
tp856
I1
s(S'wrinkled'
p857
S'raisin'
p858
tp859
I0
s(g633
S'clamp'
p860
tp861
I0
s(g223
S'photograph'
p862
tp863
I1
s(g69
S'viper'
p864
tp865
I1
s(g182
S'ruler'
p866
tp867
I-1
s(g401
S'hospital'
p868
tp869
I0
s(g414
S'politician'
p870
tp871
I0
s(g385
S'prince'
p872
tp873
I0
s(S'weighty'
p874
S'bird'
p875
tp876
I0
s(g166
S'limousine'
p877
tp878
I0
s(g272
S'cart_horse'
p879
tp880
I0
s(g214
S'butcher_knife'
p881
tp882
I0
s(S'slow'
p883
g52
tp884
I0
s(g524
S'smell'
p885
tp886
I1
s(g625
S'cannon_ball'
p887
tp888
I0
s(g519
S'cathedral'
p889
tp890
I0
s(g19
S'sponge_cake'
p891
tp892
I0
s(g45
S'cannon_ball'
p893
tp894
I0
s(g768
S'reptile'
p895
tp896
I0
s(g441
S'jelly_bean'
p897
tp898
I0
s(g320
g702
tp899
I0
s(g361
S'ant'
p900
tp901
I0
s(g601
S'corkscrew'
p902
tp903
I0
s(g300
S'vise'
p904
tp905
I0
s(S'flexible'
p906
S'tortilla'
p907
tp908
I0
s(g658
S'gun_barrel'
p909
tp910
I0
s(g519
S'mountain_range'
p911
tp912
I0
s(S'robust'
p913
S'rocket'
p914
tp915
I0
s(g242
S'statue'
p916
tp917
I0
s(g601
S'suspension_bridge'
p918
tp919
I0
s(g349
S'kitten'
p920
tp921
I0
s(g502
S'thong'
p922
tp923
I-1
s(g272
S'crowbar'
p924
tp925
I0
s(g269
S'spine'
p926
tp927
I1
s(g395
S'jeep'
p928
tp929
I0
s(g51
g853
tp930
I0
s(g136
S'minuet'
p931
tp932
I1
s(g272
S'tree'
p933
tp934
I1
s(g604
S'ostrich'
p935
tp936
I0
s(g31
S'dagger'
p937
tp938
I-1
s(S'talented'
p939
g664
tp940
I0
s(g338
S'shroud'
p941
tp942
I1
s(S'capable'
p943
S'workhorse'
p944
tp945
I0
s(S'poised'
p946
S'king'
p947
tp948
I0
s(g272
S'dragon'
p949
tp950
I1
s(S'adjective'
p951
S'sandwich'
p952
tp953
I0
s(S'hardened'
p954
S'mattress'
p955
tp956
I-1
s(g40
S'bull'
p957
tp958
I0
s(S'lax'
p959
S'tightrope'
p960
tp961
I0
s(g256
S'schoolboy'
p962
tp963
I0
s(S'empty'
p964
g833
tp965
I0
s(S'toothless'
p966
S'duck'
p967
tp968
I0
s(S'empty'
p969
S'balloon'
p970
tp971
I0
s(S'buoyant'
p972
S'cloud'
p973
tp974
I0
s(g34
S'falcon'
p975
tp976
I1
s(g969
S'prison_cell'
p977
tp978
I1
s(S'nominal'
p979
g282
tp980
I0
s(g182
S'sword'
p981
tp982
I0
s(S'real'
p983
S'puppet_show'
p984
tp985
I0
s(g314
g590
tp986
I0
s(g704
S'soap_opera'
p987
tp988
I0
s(g99
S'memory'
p989
tp990
I0
s(g361
S'cadaver'
p991
tp992
I0
s(g31
g790
tp993
I0
s(g217
S'husband'
p994
tp995
I0
s(g223
S'diamond'
p996
tp997
I0
s(g242
S'rivet'
p998
tp999
I0
s(g800
S'penguin'
p1000
tp1001
I0
s(S'mobile'
p1002
S'hare'
p1003
tp1004
I1
s(g69
S'rattlesnake'
p1005
tp1006
I1
s(g789
S'flagpole'
p1007
tp1008
I-1
s(g66
S'rag'
p1009
tp1010
I0
s(g596
g126
tp1011
I1
s(g220
S'eagle'
p1012
tp1013
I1
s(S'deaf'
p1014
S'tombstone'
p1015
tp1016
I0
s(g361
S'python'
p1017
tp1018
I0
s(S'impervious'
p1019
g996
tp1020
I0
s(S'natural'
p1021
S'redwood'
p1022
tp1023
I1
s(g214
S'thorn'
p1024
tp1025
I1
s(g81
g41
tp1026
I0
s(S'pointless'
p1027
g981
tp1028
I0
s(g84
S'raconteur'
p1029
tp1030
I0
s(g31
S'burr'
p1031
tp1032
I-1
s(g817
S'bear'
p1033
tp1034
I0
s(S'restless'
p1035
S'wind'
p1036
tp1037
I1
s(g114
S'tree_trunk'
p1038
tp1039
I0
s(g220
S'cannon_ball'
p1040
tp1041
I0
s(g545
g208
tp1042
I0
s(g449
g270
tp1043
I1
s(g646
S'ear_lobe'
p1044
tp1045
I0
s(g607
S'football_player'
p1046
tp1047
I0
s(g338
S'pressure_cooker'
p1048
tp1049
I0
s(S'alive'
p1050
g248
tp1051
I1
s(S'solid'
p1052
S'rookie'
p1053
tp1054
I0
s(g284
S'meringue'
p1055
tp1056
I0
s(g31
S'stiletto'
p1057
tp1058
I-1
s(S'energetic'
p1059
S'tiger'
p1060
tp1061
I0
s(S'flexible'
p1062
S'robot'
p1063
tp1064
I0
s(g574
S'abattoir'
p1065
tp1066
I0
s(g300
S'bracelet'
p1067
tp1068
I0
s(S'skilled'
p1069
S'chef'
p1070
tp1071
I1
s(g37
S'ostrich'
p1072
tp1073
I0
s(g19
S'grasshopper'
p1074
tp1075
I0
s(g618
g973
tp1076
I1
s(g1
g131
tp1077
I0
s(S'forte'
p1078
S'storm'
p1079
tp1080
I0
s(g758
S'cob'
p1081
tp1082
I1
s(g96
S'ass'
p1083
tp1084
I0
s(g338
S'corset'
p1085
tp1086
I1
s(g139
S'glacier'
p1087
tp1088
I0
s(g699
g649
tp1089
I1
s(g379
S'soup_spoon'
p1090
tp1091
I0
s(S'unfrozen'
p1092
g916
tp1093
I0
s(g704
S'penguin'
p1094
tp1095
I0
s(g524
S'thought'
p1096
tp1097
I1
s(S'incapable'
p1098
S'mirage'
p1099
tp1100
I0
s(g242
S'cannonball'
p1101
tp1102
I0
s(g99
S'shadow'
p1103
tp1104
I1
s(g385
S'dove'
p1105
tp1106
I0
s(g481
S'pee'
p1107
tp1108
I0
s(g139
g761
tp1109
I0
s(g684
g145
tp1110
I1
s(g510
S'shroud'
p1111
tp1112
I0
s(S'basic'
p1113
S'flashlight'
p1114
tp1115
I1
s(g946
S'geisha'
p1116
tp1117
I0
s(S'mental'
p1118
g58
tp1119
I-1
s(g1
S'counterweight'
p1120
tp1121
I0
s(g353
S'tank'
p1122
tp1123
I-1
s(g256
S'teenager'
p1124
tp1125
I0
s(g40
g29
tp1126
I0
s(g510
S'corset'
p1127
tp1128
I-1
s(S'hard'
p1129
S'pine_knot'
p1130
tp1131
I0
s(g401
g368
tp1132
I-1
s(g567
S'spoon'
p1133
tp1134
I-1
s(S'gorgeous'
p1135
S'supermodel'
p1136
tp1137
I0
s(g96
S'opal'
p1138
tp1139
I0
s(g323
S'ham_sandwich'
p1140
tp1141
I0
s(g596
g714
tp1142
I0
s(S'moving'
p1143
S'boulder'
p1144
tp1145
I0
s(g361
S'hurricane'
p1146
tp1147
I0
s(g1050
S'heroin_addiction'
p1148
tp1149
I0
s(g160
S'soldier'
p1150
tp1151
I0
s(S'immature'
p1152
S'kid'
p1153
tp1154
I1
s(g320
S"queen's_counsel"
p1155
tp1156
I0
s(g561
S'bulldog'
p1157
tp1158
I0
s(g510
g723
tp1159
I0
s(g361
S'tornado'
p1160
tp1161
I0
s(g84
S'organism'
p1162
tp1163
I0
s(S'unstable'
p1164
g664
tp1165
I1
s(g10
g1144
tp1166
I-1
s(S'thirsty'
p1167
S'dromedary'
p1168
tp1169
I0
s(S'strong'
p1170
S'ant'
p1171
tp1172
I0
s(g674
S'fiddle'
p1173
tp1174
I0
s(g272
S'battleship'
p1175
tp1176
I1
s(g636
S'bowling_ball'
p1177
tp1178
I0
s(g278
S'teddy_bear'
p1179
tp1180
I0
s(g300
g368
tp1181
I0
s(S'hard'
p1182
g802
tp1183
I-1
s(g182
S'rake'
p1184
tp1185
I0
s(g220
S'hound'
p1186
tp1187
I1
s(g646
S'whisper'
p1188
tp1189
I-1
s(S'hungry'
p1190
S'hawk'
p1191
tp1192
I0
s(g72
g76
tp1193
I0
s(g199
S'centipede'
p1194
tp1195
I0
s(g653
S'beehive'
p1196
tp1197
I0
s(g768
S'crab'
p1198
tp1199
I0
s(g223
g126
tp1200
I-1
s(g284
S'glove'
p1201
tp1202
I0
s(g779
S'pig'
p1203
tp1204
I0
s(g66
S'string_bean'
p1205
tp1206
I0
s(g432
S'vulture'
p1207
tp1208
I1
s(S'lifeless'
p1209
S'graveyard'
p1210
tp1211
I0
s(g188
g330
tp1212
I1
s(g102
S'poem'
p1213
tp1214
I0
s(g1078
S'snowflake'
p1215
tp1216
I0
s(g808
S'zombie'
p1217
tp1218
I0
s(g31
S'fiddler'
p1219
tp1220
I0
s(S'juiceless'
p1221
S'grapefruit'
p1222
tp1223
I-1
s(S'soft'
p1224
S'shipyard'
p1225
tp1226
I0
s(g341
S'stag'
p1227
tp1228
I0
s(g481
S'billboard'
p1229
tp1230
I0
s(g72
S'seashore'
p1231
tp1232
I0
s(g699
S'ham'
p1233
tp1234
I0
s(g31
S'wood_chisel'
p1235
tp1236
I0
s(g45
g998
tp1237
I0
s(S'vulnerable'
p1238
S'armadillo'
p1239
tp1240
I0
s(g607
S'speed_skater'
p1241
tp1242
I0
s(S'sexy'
p1243
g224
tp1244
I0
s(g1098
S'leader'
p1245
tp1246
I0
s(g658
S'pole'
p1247
tp1248
I0
s(g176
S'strawberry'
p1249
tp1250
I0
s(g959
S'cat'
p1251
tp1252
I1
s(S'alive'
p1253
S'corpse'
p1254
tp1255
I0
s(g1021
S'bee'
p1256
tp1257
I1
s(g335
S'dinosaur'
p1258
tp1259
I0
s(g417
S'redwood'
p1260
tp1261
I-1
s(g1021
S'fish'
p1262
tp1263
I1
s(S'blind'
p1264
S'tree_stump'
p1265
tp1266
I0
s(g1129
S'rivet'
p1267
tp1268
I0
s(g317
S'dragonfly'
p1269
tp1270
I0
s(S'steadfast'
p1271
g714
tp1272
I0
s(g674
S'fullback'
p1273
tp1274
I0
s(S'supernatural'
p1275
g85
tp1276
I-1
s(S'unmelted'
p1277
S'savings_account'
p1278
tp1279
I0
s(g40
S'espresso'
p1280
tp1281
I-1
s(g272
S'leopard'
p1282
tp1283
I0
s(g269
S'mast'
p1284
tp1285
I0
s(g1014
S'stump'
p1286
tp1287
I0
s(g114
g835
tp1288
I-1
s(g160
S'pole'
p1289
tp1290
I1
s(g574
S'blossom'
p1291
tp1292
I0
s(g1
g396
tp1293
I0
s(g574
S'spider'
p1294
tp1295
I0
s(g314
S'idiot'
p1296
tp1297
I0
s(S'potent'
p1298
S'latte'
p1299
tp1300
I0
s(S'clean'
p1301
S'cesspool'
p1302
tp1303
I1
s(S'unvoiced'
p1304
S'chainsaw'
p1305
tp1306
I0
s(S'quiet'
p1307
g654
tp1308
I0
s(g618
S'mink_coat'
p1309
tp1310
I1
s(g438
S'panda'
p1311
tp1312
I0
s(g233
S'ogre'
p1313
tp1314
I1
s(S'penetrable'
p1315
S'briar'
p1316
tp1317
I0
s(S'fat'
p1318
S'athlete'
p1319
tp1320
I1
s(g247
S'morgue'
p1321
tp1322
I0
s(S'concrete'
p1323
S'ghost'
p1324
tp1325
I0
s(g142
g916
tp1326
I0
s(g361
S'mohawk'
p1327
tp1328
I0
s(g883
S'tea_ceremony'
p1329
tp1330
I0
s(g553
S'shamrock'
p1331
tp1332
I0
s(g16
S'post'
p1333
tp1334
I1
s(g684
S'plum'
p1335
tp1336
I1
s(g731
g621
tp1337
I-1
s(g31
g321
tp1338
I0
s(g420
S'dung_beetle'
p1339
tp1340
I0
s(g253
g1335
tp1341
I1
s(S'insubstantial'
p1342
S'prosthesis'
p1343
tp1344
I0
s(g361
S'dump_truck'
p1345
tp1346
I0
s(g114
S'bowling_ball'
p1347
tp1348
I0
s(S'blind'
p1349
S'referee'
p1350
tp1351
I0
s(S'unhealthy'
p1352
g957
tp1353
I0
s(g72
S'swamp'
p1354
tp1355
I1
s(g182
g312
tp1356
I-1
s(g166
S'porpoise'
p1357
tp1358
I0
s(g646
g709
tp1359
I0
s(S'steep'
p1360
S'trickle'
p1361
tp1362
I0
s(g10
S'house'
p1363
tp1364
I0
s(g379
S'sponge'
p1365
tp1366
I0
s(S'unfilled'
p1367
S'christmas_stocking'
p1368
tp1369
I0
s(g883
g1311
tp1370
I0
s(g16
S'plank'
p1371
tp1372
I1
s(g510
g1179
tp1373
I0
s(g553
S'berry'
p1374
tp1375
I-1
s(g699
S'monk'
p1376
tp1377
I0
s(g264
S'giraffe'
p1378
tp1379
I0
s(g1129
g996
tp1380
I1
s(g1
g621
tp1381
I0
s(g205
S'cirrus_cloud'
p1382
tp1383
I0
s(g385
S'gazelle'
p1384
tp1385
I0
s(S'manly'
p1386
S'woman'
p1387
tp1388
I1
s(g281
S'earthquake'
p1389
tp1390
I-1
s(g314
S'lady'
p1391
tp1392
I0
s(g674
S'gym_rat'
p1393
tp1394
I0
s(g99
S'brand'
p1395
tp1396
I1
s(g281
S'video_game'
p1397
tp1398
I0
s(g1307
S'brain'
p1399
tp1400
I0
s(g392
S'snake'
p1401
tp1402
I1
s(g1315
S'dream'
p1403
tp1404
I0
s(g502
g390
tp1405
I0
s(S'federal'
p1406
S'choir'
p1407
tp1408
I0
s(g502
S'chick'
p1409
tp1410
I0
s(g147
S'mannequin'
p1411
tp1412
I0
s(g1164
S'horse_barn'
p1413
tp1414
I0
s(g731
S'tractor_trailer'
p1415
tp1416
I-1
s(g242
g893
tp1417
I0
s(g361
S'bomb_shelter'
p1418
tp1419
I0
s(g361
g957
tp1420
I0
s(g1304
S'mink_coat'
p1421
tp1422
I0
s(g1190
S'beggar'
p1423
tp1424
I0
s(g48
S'daffodil'
p1425
tp1426
I0
s(g173
S'goose_egg'
p1427
tp1428
I0
s(g432
S'tooth'
p1429
tp1430
I1
s(g711
S'jail_cell'
p1431
tp1432
I-1
s(g474
S'shell'
p1433
tp1434
I0
s(g779
S'hog'
p1435
tp1436
I0
s(g31
S'beach_ball'
p1437
tp1438
I0
s(g577
S'coyote'
p1439
tp1440
I0
s(g133
S'glove'
p1441
tp1442
I0
s(g114
S'wall'
p1443
tp1444
I-1
s(g233
S'baboon'
p1445
tp1446
I0
s(g817
S'cactus'
p1447
tp1448
I0
s(g1078
g955
tp1449
I0
s(g817
S'wrestler'
p1450
tp1451
I0
s(g658
S'corkscrew'
p1452
tp1453
I0
s(g1078
S'chamois_cloth'
p1454
tp1455
I0
s(g505
S'phone_cord'
p1456
tp1457
I0
s(g166
g914
tp1458
I1
s(S'effortless'
p1459
g174
tp1460
I0
s(S'exhausted'
p1461
S'marathon_runner'
p1462
tp1463
I0
s(g607
g106
tp1464
I1
s(g574
S'flute'
p1465
tp1466
I0
s(S'smooth'
p1467
S'cement_mixer'
p1468
tp1469
I0
s(S'restful'
p1470
S'weathercock'
p1471
tp1472
I0
s(S'explosive'
p1473
S'molotov_cocktail'
p1474
tp1475
I0
s(S'masculine'
p1476
S'football_game'
p1477
tp1478
I0
s(g120
S'sledge'
p1479
tp1480
I1
s(g72
S'monsoon'
p1481
tp1482
I0
s(S'naked'
p1483
S'jay'
p1484
tp1485
I0
s(g37
S'racehorse'
p1486
tp1487
I0
s(g16
S'line'
p1488
tp1489
I1
s(g516
g613
tp1490
I-1
s(S'frisky'
p1491
S'rhinoceros'
p1492
tp1493
I0
s(S'physical'
p1494
S'construction_worker'
p1495
tp1496
I1
s(S'handsome'
p1497
S'hero'
p1498
tp1499
I0
s(g633
S'tripod'
p1500
tp1501
I0
s(g1129
S'truck'
p1502
tp1503
I1
s(S'capable'
p1504
S'mirage'
p1505
tp1506
I0
s(g96
S'angel'
p1507
tp1508
I0
s(g31
S'wax_figure'
p1509
tp1510
I0
s(S'compromising'
p1511
S'workhorse'
p1512
tp1513
I0
s(g510
S'locker'
p1514
tp1515
I0
s(g1467
S'convent'
p1516
tp1517
I0
s(g78
S'deer'
p1518
tp1519
I0
s(S'spinous'
p1520
S'shrimp'
p1521
tp1522
I0
s(g275
g52
tp1523
I0
s(g332
S'lark'
p1524
tp1525
I0
s(g964
g1435
tp1526
I0
s(g789
S'bullet'
p1527
tp1528
I0
s(g205
S'flower_petal'
p1529
tp1530
I0
s(g194
S'angel'
p1531
tp1532
I1
s(g848
g777
tp1533
I0
s(g432
S'scimitar'
p1534
tp1535
I0
s(g1078
S'kitten'
p1536
tp1537
I0
s(g90
S'baby'
p1538
tp1539
I0
s(g120
S'hammer'
p1540
tp1541
I1
s(g510
S'colander'
p1542
tp1543
I0
s(g160
g1122
tp1544
I1
s(g242
S'tire_iron'
p1545
tp1546
I0
s(S'messy'
p1547
S'battleground'
p1548
tp1549
I0
s(g954
g584
tp1550
I-1
s(S'unexhausted'
p1551
S'marathon_runner'
p1552
tp1553
I0
s(S'simple'
p1554
g1133
tp1555
I0
s(S'energetic'
p1556
S'chess_match'
p1557
tp1558
I0
s(S'hardy'
p1559
g1130
tp1560
I0
s(S'lithe'
p1561
S'cat_burglar'
p1562
tp1563
I0
s(g117
S'steel_trap'
p1564
tp1565
I0
s(g722
S'die'
p1566
tp1567
I0
s(S'impotent'
p1568
S'eunuch'
p1569
tp1570
I0
s(g361
S'hercules'
p1571
tp1572
I0
s(g417
g517
tp1573
I-1
s(S'benign'
p1574
S'tumour'
p1575
tp1576
I1
s(g449
S'freight_train'
p1577
tp1578
I0
s(g658
g1527
tp1579
I0
s(g429
S'briar'
p1580
tp1581
I0
s(g385
S'dancer'
p1582
tp1583
I0
s(g808
S'morgue'
p1584
tp1585
I0
s(g1315
S'sieve'
p1586
tp1587
I0
s(S'straight'
p1588
S'rattlesnake'
p1589
tp1590
I0
s(g45
g158
tp1591
I0
s(g502
S'stump'
p1592
tp1593
I0
s(g618
S'feather'
p1594
tp1595
I1
s(S'sinuous'
p1596
S'serpent'
p1597
tp1598
I0
s(g272
S'rhino'
p1599
tp1600
I0
s(g199
S'tiger'
p1601
tp1602
I0
s(S'hairless'
p1603
g315
tp1604
I0
s(S'pointed'
p1605
S'steeple'
p1606
tp1607
I1
s(g28
S'cirrus_cloud'
p1608
tp1609
I0
s(g294
g85
tp1610
I-1
s(g722
S'hem'
p1611
tp1612
I0
s(g545
g649
tp1613
I0
s(g111
S'funeral'
p1614
tp1615
I0
s(g182
g659
tp1616
I0
s(S'functional'
p1617
S'nose_job'
p1618
tp1619
I0
s(g361
g1527
tp1620
I0
s(g449
S'knot'
p1621
tp1622
I1
s(g136
S'flower'
p1623
tp1624
I1
s(g275
g1518
tp1625
I0
s(g361
g464
tp1626
I0
s(S'simple'
p1627
g714
tp1628
I-1
s(S'supple'
p1629
S'harlequin'
p1630
tp1631
I0
s(g604
g124
tp1632
I0
s(g10
g916
tp1633
I0
s(g320
S'machete'
p1634
tp1635
I-1
s(g28
S'mule'
p1636
tp1637
I0
s(g681
S'fishing_worm'
p1638
tp1639
I-1
s(g205
S'hamster'
p1640
tp1641
I0
s(g553
S'lettuce'
p1642
tp1643
I-1
s(g90
S'onion'
p1644
tp1645
I0
s(S'meaty'
p1646
S'sirloin_steak'
p1647
tp1648
I0
s(g353
g1015
tp1649
I0
s(g493
S'mayfly'
p1650
tp1651
I0
s(g182
S'reed'
p1652
tp1653
I0
s(g108
S'house'
p1654
tp1655
I0
s(g1304
g1454
tp1656
I0
s(g45
g1157
tp1657
I0
s(g361
g1601
tp1658
I0
s(g173
S'snowflake'
p1659
tp1660
I0
s(g45
S'coffin_nail'
p1661
tp1662
I0
s(g731
S'lineman'
p1663
tp1664
I1
s(g361
g1148
tp1665
I0
s(g111
S'crystal'
p1666
tp1667
I1
s(g753
S'track_star'
p1668
tp1669
I0
s(g335
S'skeleton'
p1670
tp1671
I0
s(g320
g1666
tp1672
I-1
s(g40
g644
tp1673
I0
s(S'unaffected'
p1674
S'swan'
p1675
tp1676
I0
s(S'golden'
p1677
S'winner'
p1678
tp1679
I0
s(g1167
S'sponge'
p1680
tp1681
I0
s(g22
S'shell'
p1682
tp1683
I1
s(g139
S'cowslip'
p1684
tp1685
I0
s(S'drained'
p1686
S'puppet'
p1687
tp1688
I0
s(g108
g1175
tp1689
I0
s(g1588
S'lawyer'
p1690
tp1691
I0
s(g40
g1038
tp1692
I0
s(g223
S'tomb'
p1693
tp1694
I0
s(S'spineless'
p1695
S'shrimp'
p1696
tp1697
I0
s(g449
g121
tp1698
I1
s(g414
g1401
tp1699
I0
s(g1554
S'chess_game'
p1700
tp1701
I1
s(g117
S'slipper'
p1702
tp1703
I0
s(g1275
g418
tp1704
I0
s(g60
g780
tp1705
I0
s(g696
S'cemetery'
p1706
tp1707
I0
s(g432
g766
tp1708
I0
s(S'rough'
p1709
S'scrubbing_brush'
p1710
tp1711
I0
s(g272
g1498
tp1712
I1
s(g1559
g267
tp1713
I0
s(g561
g1527
tp1714
I1
s(g731
g846
tp1715
I0
s(g284
g212
tp1716
I1
s(g10
S'vault'
p1717
tp1718
I0
s(g966
S'toad'
p1719
tp1720
I0
s(g139
S'queen'
p1721
tp1722
I0
s(g1118
g1144
tp1723
I0
s(g223
S'lotus'
p1724
tp1725
I0
s(g294
g517
tp1726
I-1
s(g361
S'titan'
p1727
tp1728
I0
s(g1511
g85
tp1729
I1
s(g179
S'scalpel'
p1730
tp1731
I1
s(g37
S'sprinter'
p1732
tp1733
I0
s(g577
S'jackal'
p1734
tp1735
I0
s(g696
S'vault'
p1736
tp1737
I1
s(S'incomplete'
p1738
S'reference_book'
p1739
tp1740
I0
s(g320
S'plant'
p1741
tp1742
I-1
s(g529
S'pumpkin_seed'
p1743
tp1744
I0
s(S'surefooted'
p1745
S'toddler'
p1746
tp1747
I0
s(g758
g714
tp1748
I1
s(g939
S'potato'
p1749
tp1750
I0
s(g653
S'bee'
p1751
tp1752
I0
s(S'complete'
p1753
S'core_dump'
p1754
tp1755
I0
s(g361
S'chipmunk'
p1756
tp1757
I0
s(g625
S'tank'
p1758
tp1759
I0
s(g505
S'tire'
p1760
tp1761
I0
s(g1143
S'lotus'
p1762
tp1763
I0
s(S'lively'
p1764
g342
tp1765
I0
s(g142
g85
tp1766
I-1
s(g364
S'cherub'
p1767
tp1768
I0
s(S'stative'
p1769
S'monkey'
p1770
tp1771
I0
s(g1143
S'picture'
p1772
tp1773
I1
s(g699
S'toothpick'
p1774
tp1775
I1
s(g432
S'zombie'
p1776
tp1777
I-1
s(g432
g197
tp1778
I0
s(g37
S'rhinoceros'
p1779
tp1780
I0
s(g269
g726
tp1781
I0
s(S'mature'
p1782
g1124
tp1783
I0
s(g353
S'iceberg'
p1784
tp1785
I1
s(g353
S'slammer'
p1786
tp1787
I1
s(g779
S'warthog'
p1788
tp1789
I0
s(g1182
S'daydream'
p1790
tp1791
I0
s(g1764
S'salsa'
p1792
tp1793
I0
s(S'homosexual'
p1794
S'playboy'
p1795
tp1796
I0
s(S'normal'
p1797
S'automaton'
p1798
tp1799
I0
s(g731
g1157
tp1800
I0
s(g1386
S'boy'
p1801
tp1802
I1
s(g553
g333
tp1803
I-1
s(g269
S'poker'
p1804
tp1805
I0
s(S'bright'
p1806
S'hoe'
p1807
tp1808
I0
s(S'substantial'
p1809
S'snowflake'
p1810
tp1811
I0
s(S'lethargic'
p1812
S'steamroller'
p1813
tp1814
I0
s(g379
S'butter'
p1815
tp1816
I-1
s(g220
S'machine_gun'
p1817
tp1818
I0
s(g96
S'ballerina'
p1819
tp1820
I0
s(S'effective'
p1821
S'bb_gun'
p1822
tp1823
I0
s(g142
S'totem_pole'
p1824
tp1825
I0
s(g31
g702
tp1826
I0
s(S'handsome'
p1827
S'flounder'
p1828
tp1829
I0
s(S'fertile'
p1830
S'queen_bee'
p1831
tp1832
I0
s(g731
g1101
tp1833
I-1
s(S'active'
p1834
S'mausoleum'
p1835
tp1836
I0
s(g1221
S'nectarine'
p1837
tp1838
I0
s(g574
S'egg'
p1839
tp1840
I-1
s(g320
S'mud_pie'
p1841
tp1842
I0
s(g432
S'dart'
p1843
tp1844
I0
s(g561
g158
tp1845
I0
s(g335
S'stomach_pump'
p1846
tp1847
I0
s(g516
S'sunflower'
p1848
tp1849
I0
s(g28
g368
tp1850
I0
s(g349
S'rabbit'
p1851
tp1852
I0
s(g1
S'castle'
p1853
tp1854
I0
s(g964
S'drunk'
p1855
tp1856
I0
s(g432
S'stiletto_heel'
p1857
tp1858
I-1
s(g601
g237
tp1859
I1
s(g108
g344
tp1860
I0
s(g1315
S'rain_forest'
p1861
tp1862
I0
s(g182
g410
tp1863
I0
s(g1275
g1079
tp1864
I-1
s(g320
S'soup_spoon'
p1865
tp1866
I0
s(g247
g991
tp1867
I0
s(g561
S'pine_knot'
p1868
tp1869
I0
s(g40
S'mountaineer'
p1870
tp1871
I0
s(g31
S'jaguar'
p1872
tp1873
I0
s(g72
S'lake'
p1874
tp1875
I1
s(g78
g672
tp1876
I0
s(g574
S'petal'
p1877
tp1878
I-1
s(g615
g714
tp1879
I1
s(g808
g1254
tp1880
I0
s(g120
S'neutron_star'
p1881
tp1882
I1
s(g4
S'eggshell'
p1883
tp1884
I1
s(g959
S'thriller'
p1885
tp1886
I0
s(g420
g991
tp1887
I0
s(S'unanimated'
p1888
S'corpse'
p1889
tp1890
I0
s(g1307
g405
tp1891
I0
s(S'undeveloped'
p1892
S'fetus'
p1893
tp1894
I-1
s(g1473
S'sprinter'
p1895
tp1896
I1
s(g320
g1798
tp1897
I0
s(g1764
S'cricket'
p1898
tp1899
I0
s(g1629
S'trampoline'
p1900
tp1901
I0
s(g1342
g1215
tp1902
I0
s(g220
g35
tp1903
I1
s(g114
g402
tp1904
I0
s(g60
S'octopus'
p1905
tp1906
I0
s(g182
S'hoop'
p1907
tp1908
I0
s(g545
S'ballpoint_pen'
p1909
tp1910
I0
s(g1
S'mountain'
p1911
tp1912
I-1
s(g214
S"queen's_counsel"
p1913
tp1914
I0
s(g768
S'fart'
p1915
tp1916
I0
s(g335
S'mullet'
p1917
tp1918
I0
s(g653
g837
tp1919
I0
s(g519
g726
tp1920
I0
s(g883
g1784
tp1921
I0
s(g972
S'cork'
p1922
tp1923
I1
s(g1098
S'laptop_computer'
p1924
tp1925
I0
s(g1605
S'pin'
p1926
tp1927
I1
s(g426
g1210
tp1928
I0
s(g574
g1099
tp1929
I0
s(g96
g916
tp1930
I0
s(g1888
S'heartbeat'
p1931
tp1932
I0
s(g610
S'magician'
p1933
tp1934
I0
s(g22
S'church_bell'
p1935
tp1936
I0
s(g1182
S'shipyard'
p1937
tp1938
I0
s(g666
S'molotov'
p1939
tp1940
I0
s(S'phlegmy'
p1941
S'death_valley'
p1942
tp1943
I0
s(g553
S'princess'
p1944
tp1945
I0
s(g1221
g1249
tp1946
I0
s(S'ectomorphic'
p1947
S'shire_horse'
p1948
tp1949
I0
s(g1092
g1889
tp1950
I0
s(g75
S'stripper'
p1951
tp1952
I-1
s(g19
g851
tp1953
I-1
s(g395
g1146
tp1954
I0
s(g199
S'dishrag'
p1955
tp1956
I0
s(S'fast'
p1957
S'washcloth'
p1958
tp1959
I0
s(g284
S'butterfly'
p1960
tp1961
I1
s(g269
S'mohawk'
p1962
tp1963
I0
s(g485
S'cracker'
p1964
tp1965
I0
s(g332
g588
tp1966
I0
s(g824
S'ghost_town'
p1967
tp1968
I0
s(g19
g212
tp1969
I0
s(g1113
S'bed'
p1970
tp1971
I1
s(g45
S'battering_ram'
p1972
tp1973
I0
s(g804
g1447
tp1974
I1
s(g438
S'pumpkin'
p1975
tp1976
I0
s(g37
S'bobsled'
p1977
tp1978
I0
s(g214
S'chisel'
p1979
tp1980
I1
s(g247
S'graveyard'
p1981
tp1982
I0
s(S'motionless'
p1983
S'sphinx'
p1984
tp1985
I0
s(g1342
g664
tp1986
I0
s(g278
S'spider_web'
p1987
tp1988
I0
s(g361
S'mast'
p1989
tp1990
I0
s(g320
g679
tp1991
I-1
s(S'sturdy'
p1992
S'saltine'
p1993
tp1994
I0
s(g674
S'marathoner'
p1995
tp1996
I0
s(g136
S'colt'
p1997
tp1998
I0
s(S'dry'
p1999
g759
tp2000
I0
s(g205
g496
tp2001
I1
s(S'dilute'
p2002
S'solution'
p2003
tp2004
I0
s(g1209
g726
tp2005
I0
s(g1467
g664
tp2006
I1
s(g954
g1536
tp2007
I0
s(g120
S'engine'
p2008
tp2009
I1
s(g474
g365
tp2010
I0
s(g545
S'toad'
p2011
tp2012
I0
s(g789
S'oak'
p2013
tp2014
I0
s(g37
S'bullet_train'
p2015
tp2016
I0
s(g753
S'sportsman'
p2017
tp2018
I0
s(g789
S'chimney'
p2019
tp2020
I0
s(g37
S'puma'
p2021
tp2022
I0
s(g69
S'bee_sting'
p2023
tp2024
I0
s(g779
S'toilet_seat'
p2025
tp2026
I0
s(g54
S'wizard'
p2027
tp2028
I0
s(g432
g694
tp2029
I-1
s(S'thirsty'
p2030
g1435
tp2031
I0
s(g320
S'spatula'
p2032
tp2033
I1
s(g658
g312
tp2034
I0
s(g182
g702
tp2035
I0
s(g722
S'phone_cord'
p2036
tp2037
I0
s(S'alive'
p2038
S'bacteria'
p2039
tp2040
I1
s(g45
g1545
tp2041
I0
s(g361
S'pipe'
p2042
tp2043
I0
s(g1352
g584
tp2044
I1
s(S'orderly'
p2045
S'stampede'
p2046
tp2047
I0
s(g1352
S'stallion'
p2048
tp2049
I0
s(g1243
S'dancer'
p2050
tp2051
I0
s(g432
S'lens'
p2052
tp2053
I1
s(g681
S'jellyfish'
p2054
tp2055
I0
s(g66
g70
tp2056
I0
s(g264
S'bamboo'
p2057
tp2058
I0
s(g361
S'soda_cracker'
p2059
tp2060
I0
s(g300
S'cell_membrane'
p2061
tp2062
I0
s(g51
S'maggot'
p2063
tp2064
I0
s(g19
g1055
tp2065
I0
s(g353
S'bench_vise'
p2066
tp2067
I1
s(g199
g1872
tp2068
I0
s(g173
S'seedling'
p2069
tp2070
I1
s(g25
S'dam'
p2071
tp2072
I0
s(g45
S'flint'
p2073
tp2074
I0
s(g1888
S'volcano'
p2075
tp2076
I0
s(g553
g761
tp2077
I0
s(g272
S'laser'
p2078
tp2079
I0
s(g269
S'toy_soldier'
p2080
tp2081
I0
s(g361
S'crutch'
p2082
tp2083
I0
s(g768
g1636
tp2084
I0
s(g314
S'rookie'
p2085
tp2086
I0
s(g37
S'jetliner'
p2087
tp2088
I0
s(g300
S'girdle'
p2089
tp2090
I-1
s(g1164
S'heroin_addict'
p2091
tp2092
I0
s(g883
g973
tp2093
I0
s(g188
g1363
tp2094
I1
s(g502
g336
tp2095
I0
s(g516
g1260
tp2096
I-1
s(g136
S'harp'
p2097
tp2098
I0
s(g401
S'drug'
p2099
tp2100
I0
s(g481
S'blast_furnace'
p2101
tp2102
I0
s(g99
S'thought'
p2103
tp2104
I1
s(g123
g1401
tp2105
I1
s(S'tense'
p2106
g137
tp2107
I1
s(g1304
g285
tp2108
I0
s(g108
S'mountain_bike'
p2109
tp2110
I0
s(g674
g749
tp2111
I0
s(g741
S'surgery'
p2112
tp2113
I1
s(g404
g169
tp2114
I1
s(g1483
g1401
tp2115
I0
s(g199
S'coffee_bean'
p2116
tp2117
I0
s(g699
g1368
tp2118
I0
s(S'barren'
p2119
S'wheat_field'
p2120
tp2121
I0
s(g87
S'tin_whistle'
p2122
tp2123
I0
s(g40
g1756
tp2124
I0
s(g731
S'airplane'
p2125
tp2126
I-1
s(g37
g1439
tp2127
I0
s(g72
g1680
tp2128
I0
s(g332
g1684
tp2129
I0
s(g789
g582
tp2130
I0
s(g633
g802
tp2131
I0
s(g633
S'spear'
p2132
tp2133
I0
s(g704
S'marionette'
p2134
tp2135
I0
s(S'natural'
p2136
S'mermaid'
p2137
tp2138
I0
s(g361
S'water_buffalo'
p2139
tp2140
I0
s(g284
S'cobweb'
p2141
tp2142
I0
s(g379
S'spoon'
p2143
tp2144
I-1
s(g147
S'sphinx'
p2145
tp2146
I0
s(S'carnivorous'
p2147
S'lion'
p2148
tp2149
I1
s(S'relaxed'
p2150
g1885
tp2151
I0
s(g66
g224
tp2152
I0
s(g182
S'mobius_strip'
p2153
tp2154
I0
s(g123
S'sapling'
p2155
tp2156
I1
s(g22
S'bell'
p2157
tp2158
I0
s(g502
g1846
tp2159
I0
s(g28
S'nut'
p2160
tp2161
I1
s(g361
g1184
tp2162
I0
s(g335
S'tease'
p2163
tp2164
I0
s(S'intricate'
p2165
S'clock'
p2166
tp2167
I0
s(g139
S'citrus'
p2168
tp2169
I-1
s(g19
S'smile'
p2170
tp2171
I0
s(S'unbalanced'
p2172
S'gyroscope'
p2173
tp2174
I0
s(g1164
g775
tp2175
I0
s(S'swift'
p2176
S'garbage_truck'
p2177
tp2178
I0
s(g438
S'pincushion'
p2179
tp2180
I0
s(g236
S'cpu'
p2181
tp2182
I0
s(g540
S'turd'
p2183
tp2184
I0
s(g40
g2013
tp2185
I0
s(g142
g1682
tp2186
I0
s(g1
g1144
tp2187
I-1
s(g1129
S'bulldog'
p2188
tp2189
I1
s(S'balanced'
p2190
S'nut_case'
p2191
tp2192
I0
s(g432
g321
tp2193
I0
s(S'wriggly'
p2194
g491
tp2195
I0
s(g361
S'truth_serum'
p2196
tp2197
I0
s(g133
S'cirrus_cloud'
p2198
tp2199
I1
s(g763
S'shark'
p2200
tp2201
I0
s(g1605
S'poniard'
p2202
tp2203
I1
s(g1304
g802
tp2204
I0
s(g906
S'acrobat'
p2205
tp2206
I0
s(g883
S'clam'
p2207
tp2208
I1
s(S'ineffective'
p2209
S'ham_sandwich'
p2210
tp2211
I0
s(g653
g844
tp2212
I1
s(g1957
S'modem'
p2213
tp2214
I-1
s(g474
S'tunnel'
p2215
tp2216
I0
s(g54
S'knight'
p2217
tp2218
I0
s(g361
S'bee_sting'
p2219
tp2220
I0
s(S'dangerous'
p2221
g368
tp2222
I-1
s(g379
g1217
tp2223
I0
s(g1999
S'sauvignon_blanc'
p2224
tp2225
I0
s(g604
S'coyote'
p2226
tp2227
I0
s(g28
g1868
tp2228
I0
s(g31
g981
tp2229
I-1
s(g117
S'rope'
p2230
tp2231
I-1
s(g1473
S'hand_grenade'
p2232
tp2233
I0
s(S'adroit'
p2234
S'athlete'
p2235
tp2236
I0
s(g808
S'graveyard'
p2237
tp2238
I0
s(g341
S'prairie_fire'
p2239
tp2240
I0
s(S'inanimate'
p2241
g224
tp2242
I1
s(g349
S'fawn'
p2243
tp2244
I0
s(g374
g1003
tp2245
I0
s(g31
S'butcher_knife'
p2246
tp2247
I0
s(g199
g900
tp2248
I0
s(g338
S'bracelet'
p2249
tp2250
I0
s(g490
S'mouse'
p2251
tp2252
I0
s(g954
g1079
tp2253
I0
s(g1129
S'nail'
p2254
tp2255
I1
s(g269
S'board'
p2256
tp2257
I1
s(g848
S'hospital_ward'
p2258
tp2259
I0
s(g699
S'elephant'
p2260
tp2261
I0
s(g1135
S'sunset'
p2262
tp2263
I1
s(g432
g1634
tp2264
I-1
s(g779
g1415
tp2265
I0
s(S'impermanent'
p2266
S'mandala'
p2267
tp2268
I0
s(g804
S'crust'
p2269
tp2270
I0
s(g1999
S'bone'
p2271
tp2272
I1
s(g214
S'rifle_shot'
p2273
tp2274
I0
s(g223
S'boulder'
p2275
tp2276
I0
s(g31
S'scythe'
p2277
tp2278
I0
s(g139
S'baby'
p2279
tp2280
I0
s(S'liquid'
p2281
S'savings_account'
p2282
tp2283
I0
s(g711
S'password'
p2284
tp2285
I-1
s(g674
S'mountain_goat'
p2286
tp2287
I0
s(g353
S'counterweight'
p2288
tp2289
I0
s(g320
g445
tp2290
I1
s(g1052
S'screen_door'
p2291
tp2292
I0
s(g1182
S'cloud'
p2293
tp2294
I1
s(g449
g2188
tp2295
I0
s(g658
S'crowbar'
p2296
tp2297
I0
s(g37
S'eagle'
p2298
tp2299
I0
s(g505
S'circle'
p2300
tp2301
I-1
s(g722
S'lamppost'
p2302
tp2303
I0
s(g160
S'tripod'
p2304
tp2305
I1
s(g1135
S'crystal'
p2306
tp2307
I1
s(g220
g864
tp2308
I0
s(g1753
S'reference_book'
p2309
tp2310
I0
s(g474
S'cave'
p2311
tp2312
I0
s(S'agile'
p2313
S'elephant'
p2314
tp2315
I0
s(g505
S'mobius_strip'
p2316
tp2317
I0
s(g117
S'willow'
p2318
tp2319
I0
s(g45
S'headstone'
p2320
tp2321
I0
s(g1603
S'cub_scout'
p2322
tp2323
I0
s(g264
S'robot'
p2324
tp2325
I0
s(g711
g1717
tp2326
I-1
s(g139
S'flower_bud'
p2327
tp2328
I0
s(g414
S'coil_spring'
p2329
tp2330
I0
s(S'piercing'
p2331
g1730
tp2332
I1
s(g545
S'finger'
p2333
tp2334
I0
s(g435
S'stinger'
p2335
tp2336
I0
s(S'substantive'
p2337
S'puddle'
p2338
tp2339
I0
s(g653
g1399
tp2340
I-1
s(g708
S'panther'
p2341
tp2342
I0
s(g335
S'ham_sandwich'
p2343
tp2344
I0
s(g7
S'shooting_star'
p2345
tp2346
I0
s(g40
g1345
tp2347
I0
s(S'brawny'
p2348
S'wrestler'
p2349
tp2350
I0
s(g763
S'anthill'
p2351
tp2352
I0
s(g253
S'pippin'
p2353
tp2354
I1
s(g356
S'choirboy'
p2355
tp2356
I0
s(g173
S'layer_cake'
p2357
tp2358
I0
s(g214
S'lance'
p2359
tp2360
I1
s(g214
S'bobby_pin'
p2361
tp2362
I0
s(g1809
S'haiku'
p2363
tp2364
I0
s(g510
S'miser'
p2365
tp2366
I0
s(g913
g1122
tp2367
I0
s(g374
g749
tp2368
I1
s(S'permanent'
p2369
S'scar'
p2370
tp2371
I1
s(S'unclean'
p2372
S'turd'
p2373
tp2374
I1
s(g31
S'carving_knife'
p2375
tp2376
I-1
s(g1315
S'mirror'
p2377
tp2378
I0
s(g1947
S'mustang'
p2379
tp2380
I0
s(g361
g937
tp2381
I0
s(g136
S'ballet_master'
p2382
tp2383
I0
s(g601
S'rube_goldberg'
p2384
tp2385
I0
s(S'cowardly'
p2386
S'coward'
p2387
tp2388
I0
s(g133
S'spirit'
p2389
tp2390
I1
s(S'rapid'
p2391
S'bullet'
p2392
tp2393
I0
s(g2172
S'cantilever_bridge'
p2394
tp2395
I0
s(g674
S'jaguar'
p2396
tp2397
I0
s(S'unsteady'
p2398
S'canoe'
p2399
tp2400
I0
s(g2241
g452
tp2401
I0
s(g1027
S'black_vulture'
p2402
tp2403
I0
s(g1182
S'shag_rug'
p2404
tp2405
I0
s(g16
S'bayonet'
p2406
tp2407
I0
s(g1646
S'sirloin'
p2408
tp2409
I0
s(g182
S'post'
p2410
tp2411
I0
s(g16
S'sword'
p2412
tp2413
I1
s(g69
S'rattler'
p2414
tp2415
I1
s(g689
S'primrose'
p2416
tp2417
I0
s(S'packed'
p2418
S'christmas_stocking'
p2419
tp2420
I0
s(g753
S'flea'
p2421
tp2422
I0
s(g1559
g52
tp2423
I0
s(g297
S'elephant'
p2424
tp2425
I0
s(g31
S'serpent'
p2426
tp2427
I1
s(g1035
S'weathercock'
p2428
tp2429
I0
s(g674
g2235
tp2430
I1
s(g31
S'lamb'
p2431
tp2432
I0
s(g1243
S'cowboy'
p2433
tp2434
I0
s(S'ironed'
p2435
S'prune'
p2436
tp2437
I0
s(g417
g1741
tp2438
I-1
s(g166
g124
tp2439
I0
s(g361
S'moped'
p2440
tp2441
I0
s(g147
S'painting'
p2442
tp2443
I0
s(g1069
S'musician'
p2444
tp2445
I1
s(g493
g1659
tp2446
I0
s(g722
S'board'
p2447
tp2448
I-1
s(g335
S'file_cabinet'
p2449
tp2450
I0
s(g1888
S'toaster'
p2451
tp2452
I0
s(S'watery'
p2453
S'puddle'
p2454
tp2455
I1
s(g1511
S'axe_handle'
p2456
tp2457
I0
s(S'dormant'
p2458
g1399
tp2459
I-1
s(g646
g937
tp2460
I0
s(g689
S'spray'
p2461
tp2462
I1
s(g320
S'nail'
p2463
tp2464
I-1
s(g120
S'bank_vault'
p2465
tp2466
I0
s(g1129
g726
tp2467
I0
s(S'pointed'
p2468
S'bowling_ball'
p2469
tp2470
I0
s(g1059
g350
tp2471
I0
s(g233
S'elephant_seal'
p2472
tp2473
I0
s(g353
S'muscle'
p2474
tp2475
I1
s(g176
S'kumquat'
p2476
tp2477
I0
s(g147
g916
tp2478
I0
s(g272
S'jackhammer'
p2479
tp2480
I0
s(g432
g1841
tp2481
I0
s(g320
g517
tp2482
I-1
s(S'doughy'
p2483
S'donut'
p2484
tp2485
I0
s(g40
g664
tp2486
I0
s(g954
g1877
tp2487
I0
s(g1892
S'model_t'
p2488
tp2489
I0
s(g37
g208
tp2490
I0
s(g269
S'drum'
p2491
tp2492
I1
s(g1275
g1260
tp2493
I-1
s(g1467
S'buffalo'
p2494
tp2495
I0
s(g1483
S'worm'
p2496
tp2497
I0
s(g40
S'dandelion'
p2498
tp2499
I0
s(g272
S'titan'
p2500
tp2501
I1
s(g1983
S'zombie'
p2502
tp2503
I0
s(g379
S'marble'
p2504
tp2505
I-1
s(g40
S'striker'
p2506
tp2507
I0
s(S'neat'
p2508
S'doctor'
p2509
tp2510
I0
s(g111
S'bank'
p2511
tp2512
I0
s(g194
S'pearl'
p2513
tp2514
I0
s(g2030
g664
tp2515
I0
s(g1
S'warrior'
p2516
tp2517
I0
s(g731
S'bus'
p2518
tp2519
I-1
s(g31
g1055
tp2520
I0
s(g247
g1776
tp2521
I0
s(g22
g1403
tp2522
I0
s(g510
S'condom'
p2523
tp2524
I0
s(g1617
S'leaf'
p2525
tp2526
I-1
s(g40
S'goldfish'
p2527
tp2528
I0
s(g114
g1717
tp2529
I0
s(g147
S'coffin'
p2530
tp2531
I0
s(g753
S'fiddle'
p2532
tp2533
I0
s(g2458
g405
tp2534
I0
s(g28
S'ranger'
p2535
tp2536
I1
s(g332
S'herb_garden'
p2537
tp2538
I0
s(g658
g2019
tp2539
I0
s(g681
S'mollusk'
p2540
tp2541
I-1
s(g789
g1652
tp2542
I0
s(g420
g333
tp2543
I0
s(g278
S'willow_tree'
p2544
tp2545
I0
s(S'dull'
p2546
S'mallet'
p2547
tp2548
I1
s(g493
g1623
tp2549
I1
s(g320
S'hawk'
p2550
tp2551
I-1
s(g48
g613
tp2552
I1
s(g361
g1258
tp2553
I0
s(g1497
S'prince'
p2554
tp2555
I0
s(g236
g1644
tp2556
I0
s(g1941
S'martini'
p2557
tp2558
I0
s(g456
S'concept'
p2559
tp2560
I1
s(g40
S'laser'
p2561
tp2562
I0
s(g800
g158
tp2563
I1
s(g768
S'bat'
p2564
tp2565
I0
s(g392
g2414
tp2566
I1
s(g16
S'hem'
p2567
tp2568
I0
s(S'firm'
p2569
g1371
tp2570
I1
s(g385
S'stork'
p2571
tp2572
I0
s(g633
g1247
tp2573
I-1
s(g28
g1779
tp2574
I0
s(g284
g1751
tp2575
I1
s(g493
S'dove'
p2576
tp2577
I0
s(g269
S'icicle'
p2578
tp2579
I0
s(g708
g1450
tp2580
I0
s(g848
S'cotton_ball'
p2581
tp2582
I0
s(S'nonpregnant'
p2583
S'milk_cow'
p2584
tp2585
I0
s(g320
S'vixen'
p2586
tp2587
I0
s(g1027
S'syringe'
p2588
tp2589
I0
s(g1098
S'judge'
p2590
tp2591
I0
s(g31
S'viper'
p2592
tp2593
I1
s(g317
g370
tp2594
I0
s(g173
S'flower_petal'
p2595
tp2596
I1
s(S'sterile'
p2597
S'garden'
p2598
tp2599
I0
s(g305
S'herring'
p2600
tp2601
I0
s(g1629
S'garden_hose'
p2602
tp2603
I0
s(g1221
S'apricot'
p2604
tp2605
I-1
s(g1129
g2275
tp2606
I1
s(g264
g1702
tp2607
I0
s(g449
g1130
tp2608
I0
s(g1
S'ice_cube'
p2609
tp2610
I0
s(g31
g2052
tp2611
I1
s(g1275
g459
tp2612
I0
s(g954
g1044
tp2613
I0
s(g269
S'cadaver'
p2614
tp2615
I0
s(g633
g158
tp2616
I0
s(g136
g1136
tp2617
I0
s(g954
S'caress'
p2618
tp2619
I0
s(g395
g1911
tp2620
I0
s(g1511
g2296
tp2621
I0
s(g681
S'chocolate_eclair'
p2622
tp2623
I0
s(g432
g1055
tp2624
I0
s(S'tight'
p2625
S'sieve'
p2626
tp2627
I0
s(g385
S'panther'
p2628
tp2629
I0
s(g1129
S'stone'
p2630
tp2631
I1
s(g711
S'mainframe'
p2632
tp2633
I0
s(g182
S'boomerang'
p2634
tp2635
I0
s(g1304
g1215
tp2636
I0
s(g214
S'surgeon'
p2637
tp2638
I1
s(g574
g851
tp2639
I0
s(S'dormant'
p2640
S'dormouse'
p2641
tp2642
I0
s(g731
S'freight_train'
p2643
tp2644
I0
s(S'durable'
p2645
S'croissant'
p2646
tp2647
I0
s(g1002
S'watch'
p2648
tp2649
I1
s(g510
S'bow'
p2650
tp2651
I0
s(g731
S'refrigerator'
p2652
tp2653
I-1
s(g708
S'speed_skater'
p2654
tp2655
I0
s(g1078
g1421
tp2656
I0
s(g361
S'gladiator'
p2657
tp2658
I0
s(g72
S'sop'
p2659
tp2660
I0
s(g278
g2431
tp2661
I0
s(g574
g1347
tp2662
I0
s(g264
S'gymnast'
p2663
tp2664
I0
s(g432
g1865
tp2665
I0
s(g1
g200
tp2666
I-1
s(g2458
S'anthill'
p2667
tp2668
I0
s(S'material'
p2669
g1103
tp2670
I1
s(g233
S'crab'
p2671
tp2672
I0
s(S'talentless'
p2673
g714
tp2674
I0
s(g804
S'beaver'
p2675
tp2676
I0
s(g117
g2324
tp2677
I0
s(g1224
S'dagger'
p2678
tp2679
I1
s(g1467
g1589
tp2680
I0
s(g722
g312
tp2681
I-1
s(g374
g2205
tp2682
I0
s(g31
g2219
tp2683
I0
s(g1027
S'volleyball'
p2684
tp2685
I0
s(g19
S'windbreaker'
p2686
tp2687
I-1
s(g1554
S'snail'
p2688
tp2689
I0
s(g1304
g584
tp2690
I0
s(g173
S'tissue'
p2691
tp2692
I0
s(g320
S'diamond'
p2693
tp2694
I-1
s(S'artificial'
p2695
g326
tp2696
I0
s(g420
g2
tp2697
I0
s(g356
g32
tp2698
I0
s(g1
S'slammer'
p2699
tp2700
I-1
s(g789
S'chopstick'
p2701
tp2702
I0
s(g689
S'berry'
p2703
tp2704
I1
s(g323
S'mackerel'
p2705
tp2706
I0
s(g429
S'monolith'
p2707
tp2708
I0
s(g1695
S'banana'
p2709
tp2710
I0
s(g2030
S'hippo'
p2711
tp2712
I0
s(g1461
S'exhaust_pipe'
p2713
tp2714
I0
s(g2165
S'brain'
p2715
tp2716
I1
s(S'rugged'
p2717
g126
tp2718
I0
s(g1078
g1305
tp2719
I0
s(g133
S'pebble'
p2720
tp2721
I0
s(g2717
S'jeep'
p2722
tp2723
I0
s(g242
g783
tp2724
I0
s(g607
g718
tp2725
I0
s(g48
g851
tp2726
I0
s(g361
S'stick'
p2727
tp2728
I0
s(g401
S'cocoon'
p2729
tp2730
I0
s(g16
S'ruler'
p2731
tp2732
I1
s(g516
g295
tp2733
I-1
s(g379
S'spatula'
p2734
tp2735
I-1
s(g34
g2251
tp2736
I0
s(S'supple'
p2737
S'skyscraper'
p2738
tp2739
I0
s(g432
g2219
tp2740
I0
s(g553
g1524
tp2741
I0
s(S'real'
p2742
S'documentary'
p2743
tp2744
I0
s(g75
S'swine'
p2745
tp2746
I0
s(g449
g759
tp2747
I0
s(g490
g2595
tp2748
I0
s(g817
S'squall'
p2749
tp2750
I0
s(g182
g1566
tp2751
I0
s(S'graceful'
p2752
S'pup'
p2753
tp2754
I0
s(g120
S'sledgehammer'
p2755
tp2756
I1
s(g2172
S'dancer'
p2757
tp2758
I0
s(S'hairy'
p2759
g2279
tp2760
I0
s(g247
S'tumbleweed'
p2761
tp2762
I0
s(g385
S'antelope'
p2763
tp2764
I0
s(g160
S'cell_wall'
p2765
tp2766
I0
s(g2165
g2384
tp2767
I0
s(g214
S'dart'
p2768
tp2769
I0
s(g2369
g911
tp2770
I0
s(g449
S'brick'
p2771
tp2772
I1
s(g28
g23
tp2773
I0
s(S'old'
p2774
g962
tp2775
I0
s(g1318
S'broom_handle'
p2776
tp2777
I-1
s(g768
S'baboon'
p2778
tp2779
I0
s(g1304
g937
tp2780
I0
s(g320
S'banana'
p2781
tp2782
I1
s(g857
g2715
tp2783
I0
s(g272
S'heroin_addiction'
p2784
tp2785
I0
s(g969
g1693
tp2786
I0
s(g272
S'atom_bomb'
p2787
tp2788
I1
s(g1764
S'fiddler'
p2789
tp2790
I0
s(g147
g1772
tp2791
I0
s(g147
g1500
tp2792
I0
s(S'impenetrable'
p2793
g2626
tp2794
I0
s(g114
S'anvil'
p2795
tp2796
I-1
s(g1062
S'steel_trap'
p2797
tp2798
I0
s(g789
g694
tp2799
I0
s(g618
S'teddy_bear'
p2800
tp2801
I1
s(g81
S'mountie'
p2802
tp2803
I0
s(g596
S'bomb_shelter'
p2804
tp2805
I0
s(g954
S'poodle'
p2806
tp2807
I0
s(g1941
g295
tp2808
I0
s(g420
S'turtle'
p2809
tp2810
I0
s(g28
S'bunny_rabbit'
p2811
tp2812
I0
s(g1511
g2013
tp2813
I0
s(g561
g916
tp2814
I0
s(g817
g1468
tp2815
I0
s(g272
S'thunderstorm'
p2816
tp2817
I1
s(g31
S'cemetery'
p2818
tp2819
I0
s(g160
S'tax_form'
p2820
tp2821
I0
s(g1092
S'popsicle'
p2822
tp2823
I-1
s(g1098
g1512
tp2824
I0
s(g242
g2693
tp2825
I-1
s(g768
S'tiger_shark'
p2826
tp2827
I0
s(g768
S'pug'
p2828
tp2829
I0
s(g1209
g714
tp2830
I1
s(g432
g2592
tp2831
I0
s(g2150
S'fist'
p2832
tp2833
I0
s(g214
S'razorblade'
p2834
tp2835
I1
s(g10
S'rookie'
p2836
tp2837
I0
s(g658
g2410
tp2838
I0
s(g361
g2561
tp2839
I0
s(g824
g1835
tp2840
I0
s(g361
g2217
tp2841
I0
s(g1511
S'twobyfour'
p2842
tp2843
I0
s(g136
g134
tp2844
I0
s(g401
S'goldfish_bowl'
p2845
tp2846
I0
s(g1941
g2675
tp2847
I0
s(g789
g659
tp2848
I0
s(g272
g1122
tp2849
I1
s(g40
g2657
tp2850
I-1
s(g320
S'quill'
p2851
tp2852
I-1
s(g1304
g2806
tp2853
I0
s(g99
S'smell'
p2854
tp2855
I0
s(g1277
S'soup'
p2856
tp2857
I0
s(g1588
S'politician'
p2858
tp2859
I0
s(g1129
g1040
tp2860
I1
s(S'supportive'
p2861
S'tumor'
p2862
tp2863
I0
s(g1164
S'life_raft'
p2864
tp2865
I0
s(g2597
g158
tp2866
I0
s(g45
S'ball_bearing'
p2867
tp2868
I0
s(g278
g2141
tp2869
I0
s(g133
S'cobweb'
p2870
tp2871
I0
s(g349
S'pup'
p2872
tp2873
I0
s(S'intricate'
p2874
g1365
tp2875
I0
s(g242
g330
tp2876
I-1
s(g1
g2643
tp2877
I0
s(g946
g1136
tp2878
I0
s(g1078
g1937
tp2879
I0
s(g392
g1719
tp2880
I1
s(g817
S'burlap_bag'
p2881
tp2882
I0
s(g364
S'orchard'
p2883
tp2884
I0
s(g272
g749
tp2885
I0
s(g364
g2576
tp2886
I0
s(g2172
S'tightrope_walker'
p2887
tp2888
I0
s(g338
g156
tp2889
I0
s(g789
g2410
tp2890
I0
s(g699
g2711
tp2891
I0
s(g789
g2447
tp2892
I-1
s(g843
g1770
tp2893
I0
s(S'complex'
p2894
S'child'
p2895
tp2896
I0
s(g1511
g2421
tp2897
I0
s(g111
S'labyrinth'
p2898
tp2899
I0
s(S'nonwoody'
p2900
S'hydrangea'
p2901
tp2902
I-1
s(g269
S'hardtop'
p2903
tp2904
I0
s(g604
g412
tp2905
I1
s(g173
S'dew'
p2906
tp2907
I0
s(g297
S'cow'
p2908
tp2909
I0
s(g1323
S'rumor'
p2910
tp2911
I0
s(g19
g551
tp2912
I0
s(g133
g153
tp2913
I0
s(g338
S'yoke'
p2914
tp2915
I0
s(S'developed'
p2916
S'fetus'
p2917
tp2918
I1
s(g202
S'mummy'
p2919
tp2920
I1
s(g323
S'stomach_pump'
p2921
tp2922
I0
s(g417
g85
tp2923
I-1
s(g490
g1538
tp2924
I1
s(g604
S'missile'
p2925
tp2926
I1
s(g269
S'broom_handle'
p2927
tp2928
I0
s(g236
S'root_canal'
p2929
tp2930
I0
s(S'airy'
p2931
S'beach_ball'
p2932
tp2933
I0
s(g731
S'latte'
p2934
tp2935
I0
s(g214
S'edge'
p2936
tp2937
I-1
s(g242
g1055
tp2938
I1
s(g173
g1623
tp2939
I1
s(g1
S'dumbbell'
p2940
tp2941
I0
s(S'slithering'
p2942
g1401
tp2943
I0
s(g1129
S'tire_iron'
p2944
tp2945
I0
s(g1947
S'gorilla'
p2946
tp2947
I0
s(g1318
S'ballpoint_pen'
p2948
tp2949
I0
s(g449
S'predator'
p2950
tp2951
I0
s(g317
S'mirage'
p2952
tp2953
I0
s(g753
S'greyhound'
p2954
tp2955
I0
s(g666
S'firecracker'
p2956
tp2957
I-1
s(g666
S'bomb'
p2958
tp2959
I-1
s(g708
g2946
tp2960
I0
s(g338
g970
tp2961
I0
s(g954
g1421
tp2962
I0
s(g31
g1536
tp2963
I0
s(g278
g613
tp2964
I1
s(g432
g285
tp2965
I-1
s(g272
g2502
tp2966
I1
s(g16
S'rake'
p2967
tp2968
I0
s(g420
S'garbage_truck'
p2969
tp2970
I0
s(g449
S'steel'
p2971
tp2972
I1
s(g379
S'cudgel'
p2973
tp2974
I0
s(g19
S'marshmallow'
p2975
tp2976
I0
s(g510
g1586
tp2977
I0
s(g789
g472
tp2978
I0
s(g821
S'girl'
p2979
tp2980
I0
s(S'feminine'
p2981
S'manicure'
p2982
tp2983
I0
s(g1182
g2806
tp2984
I0
s(S'homely'
p2985
g586
tp2986
I0
s(g242
S'eggshell'
p2987
tp2988
I0
s(g438
g1177
tp2989
I0
s(g510
S'balloon'
p2990
tp2991
I0
s(g220
S'thief'
p2992
tp2993
I1
s(g96
g2693
tp2994
I0
s(g269
S'sculpture'
p2995
tp2996
I0
s(g420
S'tea_ceremony'
p2997
tp2998
I0
s(g658
S'expressway'
p2999
tp3000
I0
s(g954
g1215
tp3001
I0
s(g114
g815
tp3002
I0
s(g272
g328
tp3003
I1
s(g481
S'junkie'
p3004
tp3005
I0
s(g1209
S'paper_doll'
p3006
tp3007
I0
s(g40
g1601
tp3008
I0
s(g1182
g955
tp3009
I0
s(g367
g2693
tp3010
I0
s(S'pregnant'
p3011
S'haiku'
p3012
tp3013
I0
s(g28
g169
tp3014
I1
s(g2234
S'richelieu'
p3015
tp3016
I0
s(g284
S'pickup_truck'
p3017
tp3018
I1
s(g658
S'arrow'
p3019
tp3020
I0
s(S'delicate'
p3021
S'hummer'
p3022
tp3023
I0
s(g505
S'corkscrew'
p3024
tp3025
I0
s(S'juicy'
p3026
S'banana'
p3027
tp3028
I0
s(g689
g1623
tp3029
I1
s(g553
g2279
tp3030
I0
s(g1827
S'lorry'
p3031
tp3032
I1
s(g182
g723
tp3033
I0
s(g269
S'crutch'
p3034
tp3035
I0
s(g1021
S'bowel_movement'
p3036
tp3037
I1
s(g658
g2447
tp3038
I0
s(g10
S'bison'
p3039
tp3040
I0
s(g2759
S'dolphin'
p3041
tp3042
I0
s(g553
g1721
tp3043
I0
s(g763
S'catalyst'
p3044
tp3045
I1
s(g22
S'drum'
p3046
tp3047
I1
s(S'swollen'
p3048
g970
tp3049
I0
s(g604
S'cannonball'
p3050
tp3051
I0
s(g31
g1889
tp3052
I1
s(g449
S'cape_buffalo'
p3053
tp3054
I0
s(S'vital'
p3055
S'heart'
p3056
tp3057
I1
s(g1646
S'broiler'
p3058
tp3059
I0
s(g699
S'lentil'
p3060
tp3061
I0
s(g278
g682
tp3062
I0
s(g615
g488
tp3063
I0
s(g1069
S'grandmaster'
p3064
tp3065
I0
s(g13
S'squirrel'
p3066
tp3067
I0
s(g353
g2304
tp3068
I0
s(g490
g1594
tp3069
I1
s(g789
S'pencil'
p3070
tp3071
I0
s(g420
S'blimp'
p3072
tp3073
I1
s(g1
g368
tp3074
I0
s(g469
g2183
tp3075
I0
s(g173
S'breeze'
p3076
tp3077
I0
s(g545
S'suet_pudding'
p3078
tp3079
I0
s(g114
g649
tp3080
I-1
s(g1
g815
tp3081
I0
s(g214
S'awl'
p3082
tp3083
I1
s(g10
g815
tp3084
I0
s(S'substantial'
p3085
S'entree'
p3086
tp3087
I0
s(g689
S'rose'
p3088
tp3089
I0
s(g136
S'mermaid'
p3090
tp3091
I0
s(g123
S'card'
p3092
tp3093
I1
s(g361
S'cart_horse'
p3094
tp3095
I0
s(g1556
S'snail'
p3096
tp3097
I0
s(g800
S'walrus'
p3098
tp3099
I0
s(g502
g1749
tp3100
I0
s(g335
S'head_cold'
p3101
tp3102
I0
s(g242
g1144
tp3103
I-1
s(g2372
S'tin_whistle'
p3104
tp3105
I0
s(g681
g1521
tp3106
I0
s(g364
S'candy'
p3107
tp3108
I0
s(g722
g582
tp3109
I0
s(g1520
g2540
tp3110
I0
s(g361
S'placebo'
p3111
tp3112
I0
s(g519
g714
tp3113
I1
s(g883
S'modem'
p3114
tp3115
I1
s(g364
g370
tp3116
I1
s(g25
S'hardwood'
p3117
tp3118
I1
s(g278
S'chicken'
p3119
tp3120
I1
s(g1078
S'fur_coat'
p3121
tp3122
I0
s(g37
S'racing_car'
p3123
tp3124
I0
s(g90
S'blueberry'
p3125
tp3126
I0
s(g524
S'curse'
p3127
tp3128
I0
s(g2695
S'video_game'
p3129
tp3130
I0
s(S'healthy'
p3131
S'junk_food'
p3132
tp3133
I0
s(g338
S'leotard'
p3134
tp3135
I1
s(g147
S'clam'
p3136
tp3137
I0
s(g385
S'swordsman'
p3138
tp3139
I0
s(g320
g1534
tp3140
I0
s(g341
g1036
tp3141
I0
s(g264
S'elastomer'
p3142
tp3143
I0
s(g545
g1203
tp3144
I0
s(g604
g675
tp3145
I1
s(g1243
S'tease'
p3146
tp3147
I0
s(g108
g273
tp3148
I0
s(g1342
g1389
tp3149
I0
s(g31
S'surgeon'
p3150
tp3151
I0
s(g217
S'mother'
p3152
tp3153
I0
s(g449
S'pirate'
p3154
tp3155
I0
s(g31
g285
tp3156
I1
s(g722
g543
tp3157
I-1
s(g658
g766
tp3158
I0
s(g160
S'fatwah'
p3159
tp3160
I0
s(g48
S'baby_bird'
p3161
tp3162
I0
s(g438
g2424
tp3163
I0
s(g438
g970
tp3164
I0
s(g474
S'drain'
p3165
tp3166
I1
s(g633
g981
tp3167
I-1
s(S'tired'
p3168
S'cliche'
p3169
tp3170
I0
s(S'orderly'
p3171
g2166
tp3172
I0
s(g250
g1751
tp3173
I0
s(g139
S'beginner'
p3174
tp3175
I0
s(g87
S'palace'
p3176
tp3177
I0
s(g699
S'heifer'
p3178
tp3179
I0
s(g414
S'water_moccasin'
p3180
tp3181
I0
s(g294
g1079
tp3182
I-1
s(g361
g2324
tp3183
I0
s(g561
g285
tp3184
I1
s(g633
g2324
tp3185
I0
s(g233
S'fart'
p3186
tp3187
I0
s(g31
g2463
tp3188
I-1
s(g133
g672
tp3189
I0
s(g160
S'metal_bar'
p3190
tp3191
I0
s(g81
S'car'
p3192
tp3193
I-1
s(g300
S'leech'
p3194
tp3195
I0
s(g1224
S'roadside'
p3196
tp3197
I0
s(g220
g124
tp3198
I0
s(g2752
S'cripple'
p3199
tp3200
I0
s(g2391
S'assassin'
p3201
tp3202
I0
s(g123
g2967
tp3203
I1
s(g272
S'bodybuilder'
p3204
tp3205
I1
s(g1957
S'brick'
p3206
tp3207
I0
s(g102
S'concept'
p3208
tp3209
I0
s(g45
g1527
tp3210
I1
s(g432
g1872
tp3211
I0
s(g214
S'machete'
p3212
tp3213
I1
s(g214
S'vixen'
p3214
tp3215
I0
s(g2695
S'fairy_tale'
p3216
tp3217
I0
s(g31
g1516
tp3218
I0
s(g432
S'thorn'
p3219
tp3220
I-1
s(g385
S'swan'
p3221
tp3222
I0
s(g361
S'cane'
p3223
tp3224
I0
s(g883
S'dinosaur'
p3225
tp3226
I0
s(g361
g1450
tp3227
I0
s(S'distributed'
p3228
S'perfume'
p3229
tp3230
I0
s(g37
g893
tp3231
I0
s(g182
g2296
tp3232
I0
s(S'virile'
p3233
g1851
tp3234
I0
s(g361
g3046
tp3235
I0
s(g1118
g664
tp3236
I-1
s(g314
S'chick'
p3237
tp3238
I0
s(g1957
g1217
tp3239
I0
s(g432
S'theme_park'
p3240
tp3241
I0
s(g10
g2795
tp3242
I-1
s(g364
S'pear'
p3243
tp3244
I0
s(g906
S'tree_branch'
p3245
tp3246
I0
s(g31
g1843
tp3247
I0
s(g284
g1608
tp3248
I0
s(g817
g1516
tp3249
I0
s(g1520
g2054
tp3250
I0
s(g704
g2314
tp3251
I0
s(g34
g2050
tp3252
I1
s(g60
S'marsh'
p3253
tp3254
I-1
s(g758
g2349
tp3255
I0
s(S'fertile'
p3256
S'gauze_bandage'
p3257
tp3258
I0
s(g817
g2494
tp3259
I0
s(g84
S'jungle'
p3260
tp3261
I0
s(g505
S'sidewinder'
p3262
tp3263
I0
s(g90
S'doorknob'
p3264
tp3265
I0
s(g1135
S'painting'
p3266
tp3267
I1
s(g574
S'potato_chip'
p3268
tp3269
I1
s(g1888
S'dodo'
p3270
tp3271
I0
s(g300
S'tambourine'
p3272
tp3273
I0
s(g1554
g2898
tp3274
I-1
s(g376
S'eggplant'
p3275
tp3276
I0
s(g574
S'layer_cake'
p3277
tp3278
I0
s(g646
g1305
tp3279
I0
s(g250
g1399
tp3280
I-1
s(g117
g570
tp3281
I0
s(g954
g1749
tp3282
I0
s(S'barren'
p3283
S'dune'
p3284
tp3285
I0
s(g220
g675
tp3286
I0
s(g242
S'knife'
p3287
tp3288
I1
s(g90
S'coot'
p3289
tp3290
I0
s(g789
g766
tp3291
I0
s(g744
g771
tp3292
I0
s(g689
g1874
tp3293
I1
s(g353
S'granite'
p3294
tp3295
I1
s(g1182
g3121
tp3296
I0
s(g420
g1258
tp3297
I0
s(g45
g285
tp3298
I1
s(g317
S'spider_web'
p3299
tp3300
I0
s(g604
g2396
tp3301
I0
s(g2508
S'razor'
p3302
tp3303
I0
s(g236
S'zoo'
p3304
tp3305
I0
s(g502
g2163
tp3306
I0
s(g214
g996
tp3307
I-1
s(g45
S'steel_plate'
p3308
tp3309
I0
s(g689
g2085
tp3310
I1
s(S'flexible'
p3311
g2296
tp3312
I0
s(g1143
g1911
tp3313
I1
s(g2669
g2559
tp3314
I1
s(g1275
g572
tp3315
I-1
s(g782
g2561
tp3316
I0
s(g1511
g240
tp3317
I0
s(S'inflexible'
p3318
g714
tp3319
I0
s(g404
S'cliche'
p3320
tp3321
I0
s(g789
S'basketball_hoop'
p3322
tp3323
I0
s(g438
S'ham'
p3324
tp3325
I1
s(g123
S'ironing_board'
p3326
tp3327
I0
s(g114
g1500
tp3328
I0
s(g214
S'vulture'
p3329
tp3330
I0
s(g502
g2867
tp3331
I0
s(S'muscular'
p3332
S'paperclip'
p3333
tp3334
I0
s(g1050
S'mutton'
p3335
tp3336
I0
s(g173
S'insect'
p3337
tp3338
I1
s(g731
g1038
tp3339
I0
s(g604
S'roadrunner'
p3340
tp3341
I0
s(g272
S'steamroller'
p3342
tp3343
I0
s(g84
g2075
tp3344
I0
s(g353
g1175
tp3345
I0
s(g1511
g2652
tp3346
I0
s(g3283
S'battlefield'
p3347
tp3348
I0
s(g728
S'tumbleweed'
p3349
tp3350
I0
s(g3171
S'polka_dot'
p3351
tp3352
I0
s(g108
S'axe_handle'
p3353
tp3354
I0
s(g789
g3019
tp3355
I0
s(g1275
g1751
tp3356
I0
s(g31
g1841
tp3357
I0
s(g242
g1527
tp3358
I1
s(g1050
g1661
tp3359
I1
s(g1243
S'peacock'
p3360
tp3361
I0
s(g1561
g920
tp3362
I0
s(g633
S'computer'
p3363
tp3364
I0
s(g1014
S'doorpost'
p3365
tp3366
I0
s(g297
S'cripple'
p3367
tp3368
I0
s(g40
S'couch_potato'
p3369
tp3370
I0
s(g502
g1917
tp3371
I0
s(g19
g2525
tp3372
I0
s(g1941
S'sauvignon_blanc'
p3373
tp3374
I0
s(g361
g2693
tp3375
I0
s(g1892
S'quarter_horse'
p3376
tp3377
I0
s(g545
g1376
tp3378
I0
s(g684
S'watermelon'
p3379
tp3380
I1
s(g314
S'prey'
p3381
tp3382
I0
s(g817
g1589
tp3383
I0
s(g1209
g853
tp3384
I0
s(g233
S'scarecrow'
p3385
tp3386
I0
s(g320
g2219
tp3387
I0
s(g1520
g1638
tp3388
I0
s(g233
g439
tp3389
I0
s(g214
S'cutlass'
p3390
tp3391
I1
s(g108
S'barn'
p3392
tp3393
I0
s(g1753
S'blueprint'
p3394
tp3395
I0
s(g139
S'daisy'
p3396
tp3397
I-1
s(g338
S'life_preserver'
p3398
tp3399
I0
s(g545
S'phone_book'
p3400
tp3401
I0
s(g804
S'frog'
p3402
tp3403
I0
s(g438
S'dumpling'
p3404
tp3405
I1
s(g108
S'trunk'
p3406
tp3407
I0
s(g114
g11
tp3408
I-1
s(g493
S"willo'thewisp"
p3409
tp3410
I0
s(g123
S'pencil'
p3411
tp3412
I1
s(g108
g714
tp3413
I0
s(g1182
g2975
tp3414
I0
s(g317
S'soap_bubble'
p3415
tp3416
I0
s(g1092
g143
tp3417
I0
s(g1050
S'doornail'
p3418
tp3419
I0
s(g768
g1447
tp3420
I0
s(g561
g243
tp3421
I0
s(g48
S'rag_doll'
p3422
tp3423
I0
s(g633
S'tax_form'
p3424
tp3425
I0
s(g317
S'tissue_paper'
p3426
tp3427
I1
s(g133
g1256
tp3428
I0
s(g361
g169
tp3429
I0
s(g120
S'whale'
p3430
tp3431
I1
s(g111
S'crystal_lattice'
p3432
tp3433
I0
s(g379
S'automaton'
p3434
tp3435
I0
s(g142
g433
tp3436
I-1
s(g220
g1851
tp3437
I0
s(g758
g1005
tp3438
I0
s(g361
S'moose'
p3439
tp3440
I0
s(S'delicate'
p3441
S'john_deere'
p3442
tp3443
I0
s(g247
g664
tp3444
I1
s(S'heavy'
p3445
S'hammock'
p3446
tp3447
I-1
s(g239
g802
tp3448
I0
s(g374
g672
tp3449
I0
s(g1709
S'pumice_stone'
p3450
tp3451
I0
s(g3011
g2908
tp3452
I1
s(S'complete'
p3453
S'manx_cat'
p3454
tp3455
I0
s(g25
S'masonry'
p3456
tp3457
I0
s(g2172
S'pyramid'
p3458
tp3459
I0
s(g353
S'fighter'
p3460
tp3461
I1
s(g361
S'bodybuilder'
p3462
tp3463
I0
s(g2752
S'straitjacket'
p3464
tp3465
I0
s(g1002
S'laptop'
p3466
tp3467
I1
s(g199
S'chess_match'
p3468
tp3469
I0
s(g314
S'babe'
p3470
tp3471
I1
s(g173
S'wisp'
p3472
tp3473
I0
s(S'energetic'
p3474
S'tree_sloth'
p3475
tp3476
I0
s(g220
g605
tp3477
I1
s(g341
g1518
tp3478
I0
s(g502
S'peacock'
p3479
tp3480
I0
s(g147
g2013
tp3481
I0
s(g474
S'church_bell'
p3482
tp3483
I0
s(g1494
g714
tp3484
I1
s(g2458
S'catalyst'
p3485
tp3486
I-1
s(g1605
S'black_vulture'
p3487
tp3488
I0
s(g361
g543
tp3489
I0
s(g269
S'pipe'
p3490
tp3491
I0
s(g338
S'choker'
p3492
tp3493
I1
s(g385
S'swallow'
p3494
tp3495
I0
s(g574
S'daddy_longlegs'
p3496
tp3497
I0
s(g789
g1247
tp3498
I0
s(g2717
g1122
tp3499
I1
s(g2337
S'sandwich'
p3500
tp3501
I0
s(g284
g1877
tp3502
I0
s(g214
S'pocket_knife'
p3503
tp3504
I1
s(g361
g839
tp3505
I0
s(g40
S'searchlight'
p3506
tp3507
I0
s(g19
S'soap_bubble'
p3508
tp3509
I0
s(g1367
g2990
tp3510
I0
s(g31
S'rapier'
p3511
tp3512
I0
s(g461
g494
tp3513
I0
s(g607
g1282
tp3514
I0
s(g379
S'butter_knife'
p3515
tp3516
I0
s(g242
g1868
tp3517
I0
s(g699
g3400
tp3518
I0
s(g10
S'tin_can'
p3519
tp3520
I1
s(g1467
g716
tp3521
I0
s(g848
g52
tp3522
I1
s(g173
S'rosebush'
p3523
tp3524
I1
s(g1769
g844
tp3525
I0
s(g173
S'flute'
p3526
tp3527
I0
s(g744
S'mother'
p3528
tp3529
I0
s(g804
g3373
tp3530
I0
s(g1143
g2442
tp3531
I0
s(g160
S'totem_pole'
p3532
tp3533
I0
s(g332
g3174
tp3534
I1
s(g510
g2832
tp3535
I0
s(g353
g726
tp3536
I1
s(g214
g975
tp3537
I-1
s(g10
S'planet'
p3538
tp3539
I-1
s(g317
S'spider'
p3540
tp3541
I0
s(g320
g1057
tp3542
I-1
s(g2546
S'spoon'
p3543
tp3544
I1
s(g731
g720
tp3545
I0
s(g40
g2795
tp3546
I0
s(g136
g221
tp3547
I0
s(g40
S'mosquito_bite'
p3548
tp3549
I0
s(g361
S'telegraph_pole'
p3550
tp3551
I0
s(g314
g1538
tp3552
I1
s(S'convincing'
p3553
S'tissue_paper'
p3554
tp3555
I0
s(g1224
S'sidewalk'
p3556
tp3557
I-1
s(g2281
S'soup'
p3558
tp3559
I1
s(g278
S'slacker'
p3560
tp3561
I0
s(g669
g742
tp3562
I0
s(g214
S'tack'
p3563
tp3564
I1
s(g75
S'coal_miner'
p3565
tp3566
I0
s(g317
S'mirror'
p3567
tp3568
I1
s(g385
S'ballet_master'
p3569
tp3570
I0
s(g1170
S'cappuccino'
p3571
tp3572
I0
s(g335
S'oil_change'
p3573
tp3574
I0
s(g979
g1389
tp3575
I0
s(g19
g2293
tp3576
I0
s(g1275
g819
tp3577
I0
s(g1059
S'sprite'
p3578
tp3579
I0
s(g28
S'walnut'
p3580
tp3581
I1
s(g658
g1566
tp3582
I0
s(g758
S'gale'
p3583
tp3584
I0
s(g1588
S'question_mark'
p3585
tp3586
I0
s(g173
S'jeweler'
p3587
tp3588
I1
s(g3445
S'feather'
p3589
tp3590
I-1
s(g1992
S'flea'
p3591
tp3592
I0
s(g10
g2516
tp3593
I0
s(S'fertile'
p3594
g3206
tp3595
I0
s(g2369
S'skin_graft'
p3596
tp3597
I0
s(S'masculine'
p3598
S'skirt'
p3599
tp3600
I-1
s(g2458
g200
tp3601
I0
s(g3131
S'hamburger'
p3602
tp3603
I0
s(g689
S'shamrock'
p3604
tp3605
I0
s(g758
S'burlap_bag'
p3606
tp3607
I0
s(g510
g301
tp3608
I0
s(g490
S'shirley_temple'
p3609
tp3610
I0
s(g173
S'breath'
p3611
tp3612
I0
s(g272
S'python'
p3613
tp3614
I0
s(g264
S'hairpin'
p3615
tp3616
I0
s(g1243
g514
tp3617
I0
s(g385
S'mermaid'
p3618
tp3619
I0
s(g633
S'bookcase'
p3620
tp3621
I0
s(S'herbivorous'
p3622
S'fox'
p3623
tp3624
I-1
s(g1467
S'lady'
p3625
tp3626
I0
s(g722
g410
tp3627
I0
s(g449
S'steak'
p3628
tp3629
I1
s(g1182
S'roadside'
p3630
tp3631
I1
s(g711
g1586
tp3632
I0
s(S'breathing'
p3633
g1552
tp3634
I0
s(g966
g70
tp3635
I0
s(g1315
g402
tp3636
I0
s(S'unnatural'
p3637
S'graveyard_shift'
p3638
tp3639
I0
s(g510
g3272
tp3640
I0
s(g449
g514
tp3641
I0
s(g2468
S'beach_ball'
p3642
tp3643
I0
s(g519
g427
tp3644
I0
s(S'blunt'
p3645
g2709
tp3646
I0
s(g361
g243
tp3647
I0
s(g561
g2296
tp3648
I1
s(g233
g26
tp3649
I0
s(g269
S'rod'
p3650
tp3651
I1
s(g320
S'lemon'
p3652
tp3653
I0
s(g423
S'sea_anemone'
p3654
tp3655
I0
s(g789
S'ironing_board'
p3656
tp3657
I0
s(g2372
S'dust'
p3658
tp3659
I0
s(g449
g1502
tp3660
I0
s(g763
S'adventure'
p3661
tp3662
I0
s(g420
S'dirge'
p3663
tp3664
I0
s(g3553
g3508
tp3665
I0
s(g272
S'slayer'
p3666
tp3667
I1
s(g120
g1040
tp3668
I1
s(g2313
S'telephone_pole'
p3669
tp3670
I0
s(g142
g664
tp3671
I-1
s(g574
g3508
tp3672
I0
s(g636
g2771
tp3673
I1
s(g361
g41
tp3674
I0
s(g1078
g802
tp3675
I0
s(S'mobile'
p3676
g626
tp3677
I0
s(g2569
S'park_bench'
p3678
tp3679
I0
s(g31
S'hatchet'
p3680
tp3681
I-1
s(g139
g554
tp3682
I0
s(g1753
S'encyclopedia'
p3683
tp3684
I0
s(S'nontoxic'
p3685
g1589
tp3686
I-1
s(g99
g2293
tp3687
I0
s(g120
S'airplane'
p3688
tp3689
I1
s(S'concentrated'
p3690
S'torrent'
p3691
tp3692
I0
s(g361
S'twister'
p3693
tp3694
I0
s(g1511
S'lion'
p3695
tp3696
I0
s(g1629
S'whip'
p3697
tp3698
I1
s(g133
g973
tp3699
I1
s(g1098
S'desktop_computer'
p3700
tp3701
I0
s(g108
g267
tp3702
I0
s(g220
g137
tp3703
I1
s(g577
S'field_mouse'
p3704
tp3705
I0
s(g16
g1804
tp3706
I0
s(g10
g200
tp3707
I-1
s(g674
g174
tp3708
I0
s(g883
g427
tp3709
I0
s(g220
g393
tp3710
I0
s(g19
g2141
tp3711
I1
s(g1957
S'armadillo'
p3712
tp3713
I0
s(S'vital'
p3714
S'tree_stump'
p3715
tp3716
I0
s(g236
S'mainframe'
p3717
tp3718
I1
s(g502
S'cruise_missile'
p3719
tp3720
I0
s(g1238
g664
tp3721
I0
s(g711
S'prison'
p3722
tp3723
I-1
s(g353
S'dumbbell'
p3724
tp3725
I-1
s(g800
S'tortoise'
p3726
tp3727
I0
s(g646
S'cymbal'
p3728
tp3729
I0
s(g574
S'jeweler'
p3730
tp3731
I0
s(S'weightless'
p3732
S'sigh'
p3733
tp3734
I0
s(g874
S'glider'
p3735
tp3736
I0
s(g1809
S'meringue'
p3737
tp3738
I0
s(g66
g631
tp3739
I0
s(g1315
g3260
tp3740
I0
s(g906
S'rope'
p3741
tp3742
I1
s(g320
g790
tp3743
I0
s(g284
S'teaspoon'
p3744
tp3745
I0
s(g1556
S'tortoise'
p3746
tp3747
I0
s(g338
S'garter_belt'
p3748
tp3749
I0
s(g40
g543
tp3750
I0
s(g332
g592
tp3751
I0
s(g1561
S'vine'
p3752
tp3753
I0
s(g758
g2816
tp3754
I0
s(g574
g1425
tp3755
I0
s(g510
S'barnacle'
p3756
tp3757
I0
s(g332
g613
tp3758
I-1
s(g31
S'owl'
p3759
tp3760
I0
s(g449
g3294
tp3761
I1
s(g502
S'striptease'
p3762
tp3763
I-1
s(g120
S'sun'
p3764
tp3765
I1
s(g361
g346
tp3766
I0
s(g601
g2715
tp3767
I1
s(g214
g1926
tp3768
I1
s(g1170
S'dandelion'
p3769
tp3770
I0
s(g37
S'prairie_fire'
p3771
tp3772
I0
s(g768
g700
tp3773
I0
s(g385
S'deer'
p3774
tp3775
I0
s(g320
S'bowie_knife'
p3776
tp3777
I0
s(S'untempered'
p3778
S'new_york'
p3779
tp3780
I0
s(g90
S'lightbulb'
p3781
tp3782
I0
s(g242
g2013
tp3783
I-1
s(g40
g3439
tp3784
I0
s(g356
g868
tp3785
I0
s(g3645
S'cudgel'
p3786
tp3787
I1
s(g3171
S'bank'
p3788
tp3789
I0
s(g323
S'sump_pump'
p3790
tp3791
I0
s(g114
S'launching_pad'
p3792
tp3793
I0
s(g2221
g1363
tp3794
I0
s(g317
g2870
tp3795
I0
s(g524
S'idea'
p3796
tp3797
I1
s(g438
g3379
tp3798
I1
s(g1298
S'bee_sting'
p3799
tp3800
I0
s(g954
g3630
tp3801
I0
s(g564
S'apple_pie'
p3802
tp3803
I0
s(S'woody'
p3804
S'shrub'
p3805
tp3806
I1
s(g19
S'croissant'
p3807
tp3808
I-1
s(g1554
g2632
tp3809
I-1
s(g31
g2032
tp3810
I1
s(S'physical'
p3811
S'spirit'
p3812
tp3813
I1
s(g2391
S'hummingbird'
p3814
tp3815
I0
s(g420
g2711
tp3816
I0
s(g40
g656
tp3817
I0
s(g789
g2132
tp3818
I-1
s(g1983
g3567
tp3819
I0
s(g341
g1540
tp3820
I0
s(g1027
S'pike'
p3821
tp3822
I0
s(g361
g2663
tp3823
I0
s(g535
g3485
tp3824
I1
s(g618
g920
tp3825
I1
s(g114
S'screen_door'
p3826
tp3827
I0
s(g753
S'fullback'
p3828
tp3829
I0
s(g66
g1441
tp3830
I0
s(g139
S'sun'
p3831
tp3832
I0
s(g2038
S'forest'
p3833
tp3834
I1
s(g40
g2260
tp3835
I0
s(g800
g1972
tp3836
I0
s(S'untangled'
p3837
S'kudzu_vine'
p3838
tp3839
I0
s(g639
S'gas_engine'
p3840
tp3841
I0
s(g214
S'laser_printer'
p3842
tp3843
I0
s(g414
S'lawyer'
p3844
tp3845
I0
s(g2038
S'heartbeat'
p3846
tp3847
I1
s(g817
S'pumice_stone'
p3848
tp3849
I0
s(g722
g1247
tp3850
I0
s(g1511
g2410
tp3851
I0
s(g954
g802
tp3852
I-1
s(g16
S'needle'
p3853
tp3854
I0
s(S'hearing'
p3855
g621
tp3856
I0
s(g28
g1853
tp3857
I0
s(g320
g1235
tp3858
I0
s(g1561
g1136
tp3859
I0
s(g75
S'pig'
p3860
tp3861
I0
s(g699
S'barrel'
p3862
tp3863
I0
s(g1307
g1751
tp3864
I1
s(g45
g1868
tp3865
I0
s(g1190
g1060
tp3866
I0
s(g674
S'alley_cat'
p3867
tp3868
I0
s(g545
S'dumpling'
p3869
tp3870
I-1
s(g1830
S'rainforest'
p3871
tp3872
I0
s(g294
g418
tp3873
I0
s(g37
S'cyclone'
p3874
tp3875
I0
s(g272
g2424
tp3876
I0
s(g561
g330
tp3877
I1
s(g320
g1207
tp3878
I0
s(g1556
S'coffee_bean'
p3879
tp3880
I0
s(S'taut'
p3881
g1900
tp3882
I0
s(g1769
g654
tp3883
I0
s(g182
g2463
tp3884
I0
s(g320
g1079
tp3885
I-1
s(g379
S'donut'
p3886
tp3887
I0
s(g22
g457
tp3888
I0
s(g618
S'petal'
p3889
tp3890
I1
s(g426
S'dodo'
p3891
tp3892
I1
s(g40
S'bulldozer'
p3893
tp3894
I0
s(g220
S'wolf'
p3895
tp3896
I0
s(g2717
g1175
tp3897
I0
s(g1947
g2654
tp3898
I0
s(g294
g459
tp3899
I0
s(g242
g3229
tp3900
I1
s(g1209
g2502
tp3901
I0
s(g485
S'sugar_cookie'
p3902
tp3903
I0
s(g633
g2447
tp3904
I-1
s(g281
g1403
tp3905
I0
s(g361
g1776
tp3906
I0
s(g753
S'swimmer'
p3907
tp3908
I0
s(g54
S'chef'
p3909
tp3910
I-1
s(g432
g2246
tp3911
I0
s(g341
g35
tp3912
I1
s(g401
g712
tp3913
I0
s(g696
g344
tp3914
I0
s(g1574
S'necromancer'
p3915
tp3916
I0
s(g848
S'gauze_bandage'
p3917
tp3918
I0
s(g768
g1779
tp3919
I0
s(g142
g3363
tp3920
I0
s(g361
S'spine'
p3921
tp3922
I0
s(g96
S'temple'
p3923
tp3924
I0
s(g114
g1586
tp3925
I0
s(g429
g344
tp3926
I0
s(g2030
g844
tp3927
I0
s(g1059
S'puppy'
p3928
tp3929
I0
s(g385
S'ballet_dancer'
p3930
tp3931
I0
s(g31
g2550
tp3932
I0
s(g1470
S'hyena'
p3933
tp3934
I0
s(g2106
S'thriller'
p3935
tp3936
I0
s(g1473
S'firecracker'
p3937
tp3938
I1
s(g10
g664
tp3939
I-1
s(g338
S'tambourine'
p3940
tp3941
I0
s(g284
S'breeze'
p3942
tp3943
I0
s(g731
g2940
tp3944
I-1
s(g294
g1741
tp3945
I-1
s(g349
g1997
tp3946
I0
s(g136
S'swallow'
p3947
tp3948
I1
s(g658
g2036
tp3949
I0
s(g1
S'anchor'
p3950
tp3951
I0
s(g233
S'wart'
p3952
tp3953
I0
s(g45
g2463
tp3954
I0
s(g1511
g402
tp3955
I0
s(g385
S'flower'
p3956
tp3957
I0
s(g779
S'clock'
p3958
tp3959
I0
s(g1209
g1706
tp3960
I0
s(g1627
S'sunbeam'
p3961
tp3962
I0
s(g320
g295
tp3963
I-1
s(g1129
g267
tp3964
I1
s(g636
S'ass'
p3965
tp3966
I1
s(g883
S'garbage_truck'
p3967
tp3968
I0
s(g353
g1736
tp3969
I1
s(g1143
g2693
tp3970
I0
s(g420
S'caterpillar'
p3971
tp3972
I0
s(g353
S'tree_trunk'
p3973
tp3974
I0
s(g808
S'mausoleum'
p3975
tp3976
I0
s(g646
g1749
tp3977
I0
s(g768
g2373
tp3978
I0
s(S'incomplete'
p3979
S'manx_cat'
p3980
tp3981
I0
s(g3171
S'map'
p3982
tp3983
I0
s(g236
S'chess_game'
p3984
tp3985
I1
s(g689
S'shower'
p3986
tp3987
I0
s(g242
S'milk_tooth'
p3988
tp3989
I0
s(g364
S'cake'
p3990
tp3991
I0
s(g1304
g1179
tp3992
I0
s(g596
S'horse_barn'
p3993
tp3994
I0
s(g1027
g3070
tp3995
I-1
s(g78
g1851
tp3996
I0
s(g379
g470
tp3997
I0
s(g335
g3479
tp3998
I0
s(g1629
g318
tp3999
I1
s(g66
g1680
tp4000
I0
s(g60
S'monsoon'
p4001
tp4002
I0
s(g553
g613
tp4003
I-1
s(g502
S'corvette'
p4004
tp4005
I0
s(g741
S'tattoo'
p4006
tp4007
I-1
s(g574
S'goose_egg'
p4008
tp4009
I0
s(g2165
S'brooch'
p4010
tp4011
I1
s(g250
g405
tp4012
I0
s(g3283
S'ice_field'
p4013
tp4014
I0
s(g269
g3973
tp4015
I0
s(g574
S'ladybird'
p4016
tp4017
I0
s(g564
S'norman_rockwell'
p4018
tp4019
I0
s(g1275
g613
tp4020
I-1
s(g722
g3070
tp4021
I0
s(g426
g3349
tp4022
I0
s(g3311
S'motherinlaw'
p4023
tp4024
I0
s(g1050
g1981
tp4025
I0
s(g1629
S'willow'
p4026
tp4027
I0
s(g744
S'husband'
p4028
tp4029
I0
s(g150
S'tragedy'
p4030
tp4031
I0
s(g96
S'picture_postcard'
p4032
tp4033
I0
s(g1992
S'beer_can'
p4034
tp4035
I0
s(g510
S'tennis_racquet'
p4036
tp4037
I0
s(g1695
S'fishing_worm'
p4038
tp4039
I1
s(g429
S'jungle'
p4040
tp4041
I1
s(g1
S'muscle'
p4042
tp4043
I-1
s(g160
g3326
tp4044
I0
s(g60
S'lake'
p4045
tp4046
I0
s(S'seamed'
p4047
g3508
tp4048
I0
s(g456
g1103
tp4049
I1
s(g653
g3485
tp4050
I-1
s(g2916
S'model_t'
p4051
tp4052
I0
s(g874
g851
tp4053
I0
s(g392
S'scorpion'
p4054
tp4055
I1
s(g804
S'biscuit'
p4056
tp4057
I-1
s(g618
S'whisper'
p4058
tp4059
I1
s(g147
S'tomb'
p4060
tp4061
I0
s(g31
S'pocket_knife'
p4062
tp4063
I-1
s(g449
g1371
tp4064
I1
s(g3256
g868
tp4065
I0
s(g160
g2412
tp4066
I1
s(g75
S'gargoyle'
p4067
tp4068
I0
s(g1769
g200
tp4069
I0
s(g1304
g1079
tp4070
I0
s(g272
S'gladiator'
p4071
tp4072
I1
s(g31
g2693
tp4073
I1
s(g278
g2753
tp4074
I0
s(g272
g2349
tp4075
I0
s(g242
g2561
tp4076
I0
s(g160
S'girder'
p4077
tp4078
I0
s(g432
S'glass_eye'
p4079
tp4080
I0
s(g353
S'courthouse'
p4081
tp4082
I0
s(S'tidy'
p4083
g1203
tp4084
I0
s(g1764
g590
tp4085
I0
s(g40
S'jackhammer'
p4086
tp4087
I1
s(g1182
g851
tp4088
I-1
s(g31
S'armpit'
p4089
tp4090
I0
s(g233
S'asshole'
p4091
tp4092
I0
s(g194
g996
tp4093
I1
s(g194
g508
tp4094
I0
s(g66
g623
tp4095
I0
s(g505
S'basketball_hoop'
p4096
tp4097
I0
s(g789
g2302
tp4098
I0
s(g478
S'trash_bin'
p4099
tp4100
I0
s(g120
g452
tp4101
I1
s(g166
S'seal'
p4102
tp4103
I0
s(g604
g3697
tp4104
I0
s(g604
S'hornet'
p4105
tp4106
I1
s(S'inorganic'
p4107
g85
tp4108
I1
s(g633
g3656
tp4109
I0
s(g239
g4056
tp4110
I1
s(g1182
S'sidewalk'
p4111
tp4112
I1
s(g753
S'alley_cat'
p4113
tp4114
I0
s(g658
g464
tp4115
I0
s(g28
S'flower_petal'
p4116
tp4117
I1
s(g711
g402
tp4118
I0
s(g120
S'telephone_directory'
p4119
tp4120
I0
s(g341
g1060
tp4121
I0
s(g136
S'poet'
p4122
tp4123
I0
s(S'flimsy'
p4124
g1594
tp4125
I0
s(g420
g405
tp4126
I0
s(g438
S'burgher'
p4127
tp4128
I0
s(g2165
g3984
tp4129
I1
s(S'hungry'
p4130
S'rock'
p4131
tp4132
I0
s(g1304
g2293
tp4133
I0
s(g269
S'plate'
p4134
tp4135
I0
s(g269
g224
tp4136
I1
s(g136
g174
tp4137
I0
s(g2372
g357
tp4138
I0
s(g561
g1972
tp4139
I0
s(g1342
g2260
tp4140
I0
s(g114
g2
tp4141
I0
s(g361
S'wild_boar'
p4142
tp4143
I0
s(g1164
S'dance_floor'
p4144
tp4145
I0
s(g1098
S'hacker'
p4146
tp4147
I0
s(g300
g1542
tp4148
I0
s(g253
S'grape'
p4149
tp4150
I0
s(g529
g476
tp4151
I0
s(g242
g2463
tp4152
I1
s(g432
g2277
tp4153
I0
s(g356
g1215
tp4154
I0
s(g353
S'train'
p4155
tp4156
I0
s(g1511
g158
tp4157
I0
s(g31
g1634
tp4158
I-1
s(g320
g739
tp4159
I0
s(g768
g3831
tp4160
I0
s(g490
g3299
tp4161
I0
s(g239
g1447
tp4162
I0
s(g490
g2800
tp4163
I0
s(g490
S'schoolgirl'
p4164
tp4165
I0
s(g2241
g726
tp4166
I0
s(g420
g3136
tp4167
I1
s(g87
g777
tp4168
I0
s(g1
g115
tp4169
I0
s(g704
S'hippopotamus'
p4170
tp4171
I0
s(g382
S'flashlight'
p4172
tp4173
I-1
s(g744
S'wife'
p4174
tp4175
I0
s(g1352
g991
tp4176
I0
s(g111
g3958
tp4177
I0
s(g120
g2188
tp4178
I1
s(g1467
S'gang'
p4179
tp4180
I0
s(g31
g1666
tp4181
I1
s(g1605
S'quill'
p4182
tp4183
I0
s(g1027
g1437
tp4184
I0
s(g236
S'computer'
p4185
tp4186
I1
s(g529
S'whopper'
p4187
tp4188
I0
s(g689
S'citrus'
p4189
tp4190
I1
s(g1888
g664
tp4191
I1
s(g1078
g2975
tp4192
I0
s(g432
S'steroid'
p4193
tp4194
I1
s(g176
S'lover'
p4195
tp4196
I0
s(g142
S'football'
p4197
tp4198
I0
s(g2038
g3871
tp4199
I1
s(g361
g1157
tp4200
I0
s(g1821
g2343
tp4201
I0
s(g510
g1839
tp4202
I0
s(g1118
S'sport'
p4203
tp4204
I-1
s(g711
S'jail'
p4205
tp4206
I-1
s(g2569
g126
tp4207
I1
s(g160
g2771
tp4208
I0
s(g432
S'cudgel'
p4209
tp4210
I0
s(g414
g1005
tp4211
I0
s(g725
S'prototype'
p4212
tp4213
I0
s(g708
g2379
tp4214
I0
s(g40
g3094
tp4215
I0
s(g3021
g1146
tp4216
I0
s(S'secure'
p4217
g2291
tp4218
I0
s(g28
g11
tp4219
I1
s(g4124
g3299
tp4220
I0
s(g385
S'butterfly'
p4221
tp4222
I0
s(g317
S'meringue'
p4223
tp4224
I1
s(g763
g2715
tp4225
I1
s(g320
S'electron_microscope'
p4226
tp4227
I0
s(g545
g2711
tp4228
I0
s(g669
g2693
tp4229
I0
s(g561
g2693
tp4230
I1
s(g272
S'warrior'
p4231
tp4232
I1
s(g779
S'stable'
p4233
tp4234
I0
s(g10
g2699
tp4235
I-1
s(g768
S'witch'
p4236
tp4237
I0
s(g182
g1247
tp4238
I0
s(g481
S'pearl'
p4239
tp4240
I0
s(g1190
S'alligator'
p4241
tp4242
I0
s(g966
S'goldfish'
p4243
tp4244
I0
s(g320
S'pocketknife'
p4245
tp4246
I-1
s(g40
g1911
tp4247
I1
s(g31
S'laser_printer'
p4248
tp4249
I0
s(g574
S'moth'
p4250
tp4251
I0
s(g353
S'shield'
p4252
tp4253
I1
s(g1
g1717
tp4254
I0
s(g432
S'grace'
p4255
tp4256
I1
s(S'balanced'
p4257
S'cantilever_bridge'
p4258
tp4259
I0
s(g1473
S'molotov'
p4260
tp4261
I0
s(g1078
g1877
tp4262
I0
s(g689
g1538
tp4263
I0
s(g214
g2254
tp4264
I1
s(g1078
S'icepick'
p4265
tp4266
I0
s(S'malignant'
p4267
S'dill_pickle'
p4268
tp4269
I0
s(g1769
g2667
tp4270
I0
s(g2372
g1215
tp4271
I0
s(g272
g2148
tp4272
I0
s(g2717
g2109
tp4273
I0
s(g269
g1289
tp4274
I1
s(g553
S'primrose'
p4275
tp4276
I0
s(g824
S'spam'
p4277
tp4278
I0
s(g272
g675
tp4279
I1
s(g133
g370
tp4280
I0
s(g2172
S'nut_case'
p4281
tp4282
I0
s(g2759
g1347
tp4283
I0
s(g332
g554
tp4284
I0
s(g4267
S'toaster'
p4285
tp4286
I0
s(g214
S'samurai'
p4287
tp4288
I0
s(g264
S'pretzel'
p4289
tp4290
I0
s(g31
S'chisel'
p4291
tp4292
I-1
s(g10
g1443
tp4293
I-1
s(g272
S'minotaur'
p4294
tp4295
I1
s(g1253
S'scarecrow'
p4296
tp4297
I0
s(g808
S'turnip'
p4298
tp4299
I0
s(g704
g3746
tp4300
I0
s(g199
g3726
tp4301
I0
s(g646
g584
tp4302
I-1
s(g300
S'life_preserver'
p4303
tp4304
I0
s(g731
S'engine'
p4305
tp4306
I-1
s(g361
S'broomstick'
p4307
tp4308
I0
s(g361
S'beast'
p4309
tp4310
I0
s(g1947
g243
tp4311
I0
s(g3881
S'bow'
p4312
tp4313
I0
s(g13
g350
tp4314
I0
s(g45
g664
tp4315
I1
s(g577
S'wimp'
p4316
tp4317
I0
s(g272
g450
tp4318
I0
s(g493
S'daffodil'
p4319
tp4320
I0
s(g163
g2990
tp4321
I0
s(g81
S'watch'
p4322
tp4323
I-1
s(g182
S'razor'
p4324
tp4325
I0
s(g31
S'cricket'
p4326
tp4327
I0
s(g1069
g662
tp4328
I0
s(g16
g2392
tp4329
I0
s(g120
g3724
tp4330
I1
s(g426
S'mutton'
p4331
tp4332
I1
s(g364
S'bride'
p4333
tp4334
I0
s(g361
S'rhino'
p4335
tp4336
I0
s(g117
S'snake'
p4337
tp4338
I0
s(g395
S'mountain_bike'
p4339
tp4340
I0
s(g16
g2768
tp4341
I0
s(g2372
g3923
tp4342
I0
s(g601
S'chess_match'
p4343
tp4344
I0
s(g2234
S'juggler'
p4345
tp4346
I0
s(g633
g2320
tp4347
I0
s(g1467
g1450
tp4348
I0
s(g449
g2465
tp4349
I0
s(g510
S'tourniquet'
p4350
tp4351
I0
s(g461
g2578
tp4352
I0
s(g449
g1540
tp4353
I1
s(g1738
S'blueprint'
p4354
tp4355
I0
s(g461
S'saltine'
p4356
tp4357
I0
s(g385
S'eagle'
p4358
tp4359
I0
s(g432
S'graveyard_shift'
p4360
tp4361
I0
s(g173
g3889
tp4362
I1
s(g28
S'predator'
p4363
tp4364
I0
s(g3474
g405
tp4365
I0
s(g1243
S'aircraft_carrier'
p4366
tp4367
I0
s(g3690
S'perfume'
p4368
tp4369
I1
s(g272
S'cedar_tree'
p4370
tp4371
I1
s(g305
S'fish'
p4372
tp4373
I0
s(g2165
S'wicker_basket'
p4374
tp4375
I0
s(g540
S'slug'
p4376
tp4377
I0
s(g335
g1592
tp4378
I0
s(g510
g1067
tp4379
I0
s(g133
g4223
tp4380
I0
s(g1360
g1087
tp4381
I0
s(g1243
S'master_bedroom'
p4382
tp4383
I0
s(g1170
S'calf'
p4384
tp4385
I0
s(g220
S'roadster'
p4386
tp4387
I0
s(g114
S'bench_vise'
p4388
tp4389
I-1
s(g217
g955
tp4390
I0
s(g272
S'bear'
p4391
tp4392
I0
s(g272
g1060
tp4393
I0
s(g1209
S'mask'
p4394
tp4395
I0
s(g361
g410
tp4396
I0
s(g1027
g1347
tp4397
I0
s(g40
g580
tp4398
I0
s(g284
g891
tp4399
I0
s(g133
g3889
tp4400
I1
s(g3881
g2491
tp4401
I0
s(g1135
g3814
tp4402
I0
s(g31
g197
tp4403
I0
s(g1511
S'bridge'
p4404
tp4405
I0
s(g253
S'lover'
p4406
tp4407
I0
s(g519
g2207
tp4408
I0
s(g1078
g3630
tp4409
I0
s(g3598
S'pants_suit'
p4410
tp4411
I0
s(g2369
S'tattoo'
p4412
tp4413
I1
s(g779
S'ditch_digger'
p4414
tp4415
I0
s(g199
g3422
tp4416
I0
s(g356
S'toilet'
p4417
tp4418
I-1
s(g136
g1518
tp4419
I0
s(g1470
g2318
tp4420
I0
s(g37
g2341
tp4421
I0
s(g320
S'needle'
p4422
tp4423
I-1
s(g789
g909
tp4424
I0
s(g708
g3462
tp4425
I0
s(S'unwholesome'
p4426
S'hymn'
p4427
tp4428
I0
s(g438
g2908
tp4429
I0
s(g1129
S'fist'
p4430
tp4431
I1
s(g323
g4298
tp4432
I0
s(g681
g200
tp4433
I-1
s(g31
g1429
tp4434
I1
s(g147
g664
tp4435
I0
s(S'maladroit'
p4436
g208
tp4437
I0
s(g449
S'twobyfour'
p4438
tp4439
I0
s(g272
g4155
tp4440
I0
s(g332
S'rose'
p4441
tp4442
I0
s(g633
g3464
tp4443
I0
s(g604
g1003
tp4444
I0
s(g728
S'kudzu'
p4445
tp4446
I0
s(g561
g835
tp4447
I0
s(g28
S'alligator'
p4448
tp4449
I0
s(g432
g4226
tp4450
I0
s(g323
S'date_rape'
p4451
tp4452
I0
s(g155
g2419
tp4453
I0
s(g341
S'arrow'
p4454
tp4455
I0
s(S'malignant'
p4456
S'melanoma'
p4457
tp4458
I1
s(g561
S'river_boulder'
p4459
tp4460
I0
s(g420
g2260
tp4461
I0
s(g275
S'goat'
p4462
tp4463
I0
s(g1098
S'tractor'
p4464
tp4465
I0
s(g804
g1942
tp4466
I0
s(g341
g1003
tp4467
I0
s(g87
S'crystal_ball'
p4468
tp4469
I0
s(S'liquid'
p4470
g2469
tp4471
I1
s(g1596
g318
tp4472
I0
s(g1554
S'drinking_glass'
p4473
tp4474
I1
s(S'insectivorous'
p4475
g3695
tp4476
I-1
s(g1830
S'compost_pile'
p4477
tp4478
I0
s(g954
g1305
tp4479
I0
s(g883
g2496
tp4480
I0
s(g361
g1911
tp4481
I0
s(g374
g221
tp4482
I0
s(g722
S'rail_fence'
p4483
tp4484
I0
s(g596
S'hippo'
p4485
tp4486
I0
s(g2717
S'hummer'
p4487
tp4488
I0
s(g1315
g664
tp4489
I0
s(g604
g1060
tp4490
I0
s(g28
g2975
tp4491
I1
s(S'stable'
p4492
S'life_raft'
p4493
tp4494
I0
s(g253
S'kumquat'
p4495
tp4496
I0
s(g401
S'deposit_account'
p4497
tp4498
I0
s(g214
S'stiletto_heel'
p4499
tp4500
I1
s(g220
g3697
tp4501
I0
s(g2569
g2474
tp4502
I1
s(g1483
S'castaway'
p4503
tp4504
I0
s(g284
g2975
tp4505
I0
s(g272
g1313
tp4506
I1
s(g269
g427
tp4507
I0
s(g704
S'lame_duck'
p4508
tp4509
I0
s(g432
g790
tp4510
I0
s(g37
g1601
tp4511
I0
s(g954
g647
tp4512
I-1
s(S'untidy'
p4513
g3860
tp4514
I0
s(g272
S'beast'
p4515
tp4516
I1
s(g1821
S'drunkard'
p4517
tp4518
I0
s(S'unnatural'
p4519
S'swan'
p4520
tp4521
I0
s(g2221
g2818
tp4522
I0
s(g335
g2757
tp4523
I0
s(g1352
S'junk_food'
p4524
tp4525
I0
s(g160
S'bookcase'
p4526
tp4527
I0
s(g438
S'suet_pudding'
p4528
tp4529
I0
s(g414
g902
tp4530
I0
s(S'limp'
p4531
S'potato_chip'
p4532
tp4533
I0
s(g604
S'microwave_oven'
p4534
tp4535
I0
s(g3690
g2078
tp4536
I0
s(g432
S'engraver'
p4537
tp4538
I0
s(g666
S'megaton_bomb'
p4539
tp4540
I0
s(g1035
g3895
tp4541
I0
s(g689
S'geisha_girl'
p4542
tp4543
I0
s(g696
S'deposit_account'
p4544
tp4545
I0
s(g242
S'sock'
p4546
tp4547
I1
s(g72
S'octopus'
p4548
tp4549
I1
s(g269
S'flagpole'
p4550
tp4551
I0
s(g28
S'girl_scout'
p4552
tp4553
I0
s(g233
S'abortion'
p4554
tp4555
I1
s(g1511
S'beer_can'
p4556
tp4557
I0
s(g633
g1824
tp4558
I0
s(g361
g208
tp4559
I0
s(g320
S'steak_knife'
p4560
tp4561
I0
s(g1
S'courthouse'
p4562
tp4563
I0
s(g272
g126
tp4564
I1
s(g72
g2454
tp4565
I1
s(g356
g4324
tp4566
I0
s(g361
S'icicle'
p4567
tp4568
I0
s(S'penetrating'
p4569
S'freight_train'
p4570
tp4571
I0
s(g236
S'jigsaw_puzzle'
p4572
tp4573
I0
s(g768
S'scarecrow'
p4574
tp4575
I0
s(g335
S'dictionary'
p4576
tp4577
I0
s(g1002
S'car'
p4578
tp4579
I1
s(g1764
S'jackson_pollock'
p4580
tp4581
I0
s(g1027
S'poniard'
p4582
tp4583
I-1
s(g37
g158
tp4584
I0
s(g202
S'maggot'
p4585
tp4586
I0
s(g1315
g839
tp4587
I0
s(g220
S'blink'
p4588
tp4589
I0
s(g2669
S'specter'
p4590
tp4591
I1
s(g34
g920
tp4592
I0
s(g722
g464
tp4593
I0
s(g2030
g1033
tp4594
I0
s(g607
g2349
tp4595
I0
s(g335
g2867
tp4596
I0
s(g2106
g3867
tp4597
I0
s(g610
S'conjurer'
p4598
tp4599
I0
s(g1999
S'crust'
p4600
tp4601
I0
s(g150
S'hurricane'
p4602
tp4603
I0
s(g2546
S'hoe'
p4604
tp4605
I0
s(g335
g4004
tp4606
I0
s(g906
g749
tp4607
I0
s(g1304
g3728
tp4608
I0
s(g4124
S'paper_towel'
p4609
tp4610
I0
s(g857
S'prune'
p4611
tp4612
I0
s(S'shaky'
p4613
g590
tp4614
I0
s(g182
g1843
tp4615
I0
s(g353
g714
tp4616
I1
s(g2640
g3891
tp4617
I0
s(g401
g2818
tp4618
I0
s(g429
g714
tp4619
I1
s(g2241
g2630
tp4620
I1
s(S'undrained'
p4621
S'puppet'
p4622
tp4623
I0
s(g449
S'hacksaw'
p4624
tp4625
I0
s(g220
g2251
tp4626
I0
s(g913
g3190
tp4627
I0
s(g2045
S'labyrinth'
p4628
tp4629
I0
s(g1834
g3369
tp4630
I0
s(g2176
g3096
tp4631
I0
s(g205
S'tomato'
p4632
tp4633
I-1
s(g60
S'river'
p4634
tp4635
I0
s(g4130
S'supermodel'
p4636
tp4637
I0
s(g19
g1877
tp4638
I0
s(g636
S'compost'
p4639
tp4640
I1
s(g176
S'plum'
p4641
tp4642
I-1
s(g2759
S'hotdog'
p4643
tp4644
I1
s(g1243
g359
tp4645
I0
s(g37
S'missile'
p4646
tp4647
I-1
s(g114
g131
tp4648
I0
s(g250
g200
tp4649
I1
s(g1129
S'brickbat'
p4650
tp4651
I0
s(g40
g1146
tp4652
I0
s(g166
S'coupe'
p4653
tp4654
I0
s(g1014
g2630
tp4655
I0
s(g10
S'california_redwood'
p4656
tp4657
I0
s(g646
g1215
tp4658
I0
s(g114
g1120
tp4659
I0
s(g269
S'coat_hanger'
p4660
tp4661
I0
s(g966
S'lamprey'
p4662
tp4663
I0
s(g1554
S'jigsaw_puzzle'
p4664
tp4665
I0
s(g789
S'rainbow'
p4666
tp4667
I0
s(g3676
S'boulder'
p4668
tp4669
I0
s(g731
g3831
tp4670
I1
s(g545
g41
tp4671
I0
s(g139
g1215
tp4672
I0
s(g1554
S'microprocessor'
p4673
tp4674
I-1
s(g10
S'swiss_cheese'
p4675
tp4676
I0
s(g561
g46
tp4677
I1
s(g364
S'chime'
p4678
tp4679
I0
s(g3283
S'wasteland'
p4680
tp4681
I1
s(g561
g2987
tp4682
I0
s(g1467
g2881
tp4683
I0
s(g1190
S'moose'
p4684
tp4685
I0
s(g236
g2715
tp4686
I1
s(g31
g679
tp4687
I0
s(S'skilled'
p4688
g3206
tp4689
I0
s(g45
g330
tp4690
I1
s(g93
S'pants_suit'
p4691
tp4692
I0
s(g604
g393
tp4693
I0
s(g28
g1663
tp4694
I-1
s(g1941
S'sand_trap'
p4695
tp4696
I0
s(g72
S'sink'
p4697
tp4698
I1
s(g1050
g991
tp4699
I0
s(g364
g3764
tp4700
I0
s(g3732
g134
tp4701
I0
s(g689
S'herb_garden'
p4702
tp4703
I0
s(g361
g2934
tp4704
I0
s(g789
g2999
tp4705
I-1
s(g1888
S'rainforest'
p4706
tp4707
I0
s(g31
S'marble'
p4708
tp4709
I1
s(g753
S'mountain_goat'
p4710
tp4711
I0
s(g516
g1751
tp4712
I0
s(g474
S'bell'
p4713
tp4714
I0
s(g45
g4546
tp4715
I0
s(g220
S'rapier'
p4716
tp4717
I1
s(S'tense'
p4718
S'sunday_school'
p4719
tp4720
I0
s(g105
g747
tp4721
I1
s(g379
S'dog_turd'
p4722
tp4723
I0
s(g545
g3862
tp4724
I-1
s(g646
g955
tp4725
I0
s(S'active'
p4726
S'sloth'
p4727
tp4728
I1
s(g133
S'windbreaker'
p4729
tp4730
I1
s(S'speedy'
p4731
S'mustang'
p4732
tp4733
I0
s(g4426
S'boy_scout'
p4734
tp4735
I0
s(g954
g709
tp4736
I0
s(g2241
S'chair'
p4737
tp4738
I1
s(g653
g405
tp4739
I0
s(g1646
g3628
tp4740
I0
s(S'breathless'
p4741
g1462
tp4742
I0
s(g2241
g1433
tp4743
I0
s(g753
g208
tp4744
I-1
s(g264
S'spaghetti'
p4745
tp4746
I0
s(g653
g1770
tp4747
I0
s(g1352
S'salad'
p4748
tp4749
I-1
s(g31
S'turnip'
p4750
tp4751
I1
s(g111
S'fire_drill'
p4752
tp4753
I0
s(g1605
S'stiletto'
p4754
tp4755
I1
s(g84
g2451
tp4756
I0
s(g136
S'charlie_parker'
p4757
tp4758
I0
s(g2372
g3150
tp4759
I0
s(g278
S'babe'
p4760
tp4761
I-1
s(g906
g4026
tp4762
I0
s(g510
g2089
tp4763
I-1
s(g636
S'compost_heap'
p4764
tp4765
I0
s(g1473
S'bomb'
p4766
tp4767
I1
s(g4107
g769
tp4768
I0
s(g182
g4666
tp4769
I0
s(g374
S'track_star'
p4770
tp4771
I0
s(g674
g35
tp4772
I0
s(g782
S'extract'
p4773
tp4774
I0
s(g1318
S'finger'
p4775
tp4776
I-1
s(g4492
S'toothpick'
p4777
tp4778
I0
s(g1078
g2293
tp4779
I0
s(g294
S'songbird'
p4780
tp4781
I0
s(g821
g2089
tp4782
I0
s(g1957
S'wall'
p4783
tp4784
I1
s(g2597
g813
tp4785
I0
s(g1947
g1033
tp4786
I0
s(g78
g1012
tp4787
I0
s(g269
g2329
tp4788
I0
s(g1243
S'striptease'
p4789
tp4790
I1
s(g516
g1741
tp4791
I-1
s(g1307
g837
tp4792
I0
s(g449
S'nut'
p4793
tp4794
I1
s(g1342
S'sitcom'
p4795
tp4796
I0
s(g824
g2990
tp4797
I0
s(g214
S'electron_microscope'
p4798
tp4799
I0
s(g3256
S'eunuch'
p4800
tp4801
I-1
s(g10
g2
tp4802
I0
s(g28
S'knot'
p4803
tp4804
I0
s(g1511
S'paper_clip'
p4805
tp4806
I0
s(g2386
g2226
tp4807
I0
s(g4257
S'gyroscope'
p4808
tp4809
I0
s(g409
S'rumor'
p4810
tp4811
I0
s(g3131
g1254
tp4812
I0
s(g341
g2925
tp4813
I1
s(g214
S'pocketknife'
p4814
tp4815
I1
s(g133
g3076
tp4816
I1
s(g519
g126
tp4817
I1
s(g943
S'administrator'
p4818
tp4819
I0
s(g28
g285
tp4820
I1
s(g395
g1468
tp4821
I0
s(g338
g1736
tp4822
I1
s(g574
S'seismograph'
p4823
tp4824
I0
s(g1
g1586
tp4825
I0
s(g233
g2496
tp4826
I0
s(g335
S'cuckoo_clock'
p4827
tp4828
I0
s(g461
S'wafer'
p4829
tp4830
I0
s(g31
g766
tp4831
I0
s(g414
S'counterfeiter'
p4832
tp4833
I0
s(g320
g459
tp4834
I0
s(g338
g1441
tp4835
I1
s(g220
g672
tp4836
I0
s(g438
S'hog'
p4837
tp4838
I0
s(g300
g3046
tp4839
I0
s(g804
g594
tp4840
I1
s(g699
g720
tp4841
I0
s(g432
g1057
tp4842
I-1
s(g1695
S'jelly'
p4843
tp4844
I0
s(g943
S'desktop_computer'
p4845
tp4846
I0
s(g34
g174
tp4847
I0
s(g361
g2410
tp4848
I0
s(g946
S'ballet_dancer'
p4849
tp4850
I0
s(g449
S'automobile_tire'
p4851
tp4852
I0
s(S'bouncy'
p4853
S'flea'
p4854
tp4855
I0
s(g883
S'sloth'
p4856
tp4857
I0
s(g4426
S'quilting_bee'
p4858
tp4859
I0
s(g194
S'opal'
p4860
tp4861
I0
s(g1352
g1889
tp4862
I0
s(g320
S'butter_knife'
p4863
tp4864
I0
s(g361
S'coat_hanger'
p4865
tp4866
I0
s(g34
S'sparrow'
p4867
tp4868
I0
s(g913
g267
tp4869
I0
s(g2266
S'shooting_star'
p4870
tp4871
I1
s(g768
S'crocodile'
p4872
tp4873
I0
s(g179
g2359
tp4874
I1
s(g3676
S'glacier'
p4875
tp4876
I0
s(g338
S'mason_jar'
p4877
tp4878
I0
s(g385
S'cat'
p4879
tp4880
I0
s(g385
S'giraffe'
p4881
tp4882
I0
s(g502
S'engine_block'
p4883
tp4884
I0
s(g173
g370
tp4885
I0
s(g353
g273
tp4886
I0
s(g529
g1670
tp4887
I0
s(g19
g1960
tp4888
I0
s(g2372
g2355
tp4889
I0
s(g173
g3540
tp4890
I0
s(g220
g4155
tp4891
I0
s(g449
S'armor'
p4892
tp4893
I0
s(g401
S'library'
p4894
tp4895
I0
s(g3645
g1479
tp4896
I1
s(g28
g1033
tp4897
I0
s(g341
g2768
tp4898
I0
s(S'potent'
p4899
g4800
tp4900
I0
s(g1588
S'water_moccasin'
p4901
tp4902
I0
s(g2695
S'theme_park'
p4903
tp4904
I0
s(g1809
S'cotton_candy'
p4905
tp4906
I0
s(g338
S'treasure_chest'
p4907
tp4908
I0
s(S'bisexual'
p4909
g1795
tp4910
I0
s(g19
g1819
tp4911
I0
s(g731
g1779
tp4912
I0
s(g789
g1452
tp4913
I0
s(g160
g4185
tp4914
I0
s(g320
g568
tp4915
I0
s(g658
g1843
tp4916
I0
s(g789
g2463
tp4917
I0
s(g1304
g4265
tp4918
I0
s(g574
g1144
tp4919
I1
s(g2372
g32
tp4920
I0
s(g31
S'cutlass'
p4921
tp4922
I1
s(g28
g835
tp4923
I0
s(g2468
S'volleyball'
p4924
tp4925
I0
s(g1554
g1215
tp4926
I-1
s(g54
S'musician'
p4927
tp4928
I-1
s(g199
S'puppy'
p4929
tp4930
I0
s(S'light'
p4931
S'sledgehammer'
p4932
tp4933
I-1
s(g817
S'grater'
p4934
tp4935
I0
s(g199
g2753
tp4936
I0
s(g75
g4837
tp4937
I0
s(g40
g1418
tp4938
I0
s(g401
g1363
tp4939
I0
s(g284
g49
tp4940
I0
s(g604
g35
tp4941
I1
s(g139
g588
tp4942
I0
s(g646
g851
tp4943
I-1
s(g320
g2592
tp4944
I0
s(g817
S'rasp'
p4945
tp4946
I0
s(g1238
g839
tp4947
I1
s(g25
g1267
tp4948
I0
s(g779
S'swine'
p4949
tp4950
I0
s(g272
g106
tp4951
I1
s(g1190
g3329
tp4952
I0
s(g699
S'sausage'
p4953
tp4954
I-1
s(g510
g3046
tp4955
I0
s(g857
S'walnut'
p4956
tp4957
I0
s(g272
g344
tp4958
I1
s(g361
S'cappuccino'
p4959
tp4960
I0
s(g4899
g2975
tp4961
I0
s(g120
g675
tp4962
I1
s(g48
g1215
tp4963
I0
s(g28
S'armor'
p4964
tp4965
I1
s(g320
g1751
tp4966
I1
s(g432
g3744
tp4967
I0
s(g182
g4422
tp4968
I0
s(g607
S'boxer'
p4969
tp4970
I1
s(g1209
g326
tp4971
I1
s(g2266
g1650
tp4972
I0
s(g242
g1157
tp4973
I1
s(g320
g3287
tp4974
I-1
s(g1342
S'anchovy'
p4975
tp4976
I0
s(g722
g1007
tp4977
I-1
s(g658
g11
tp4978
I0
s(g2241
g714
tp4979
I1
s(g34
g1518
tp4980
I0
s(g1315
g4706
tp4981
I0
s(g1627
S'child'
p4982
tp4983
I1
s(g37
g4464
tp4984
I0
s(g4124
g3426
tp4985
I1
s(g1129
S'river_boulder'
p4986
tp4987
I0
s(g1209
g224
tp4988
I0
s(g4741
S'nightmare'
p4989
tp4990
I0
s(g510
S'noose'
p4991
tp4992
I0
s(g108
g1333
tp4993
I1
s(g1143
S'photograph'
p4994
tp4995
I1
s(g160
S'straitjacket'
p4996
tp4997
I0
s(g658
g582
tp4998
I0
s(g173
g973
tp4999
I1
s(g264
g303
tp5000
I0
s(g1243
S'cruise_missile'
p5001
tp5002
I0
s(g1352
S'cookie'
p5003
tp5004
I0
s(g3318
g726
tp5005
I0
s(g28
S'automobile_tire'
p5006
tp5007
I0
s(g1182
g4265
tp5008
I0
s(g338
S'thermos_bottle'
p5009
tp5010
I0
s(g4426
S'porn'
p5011
tp5012
I1
s(S'imperfect'
p5013
S'defect'
p5014
tp5015
I1
s(g223
g1984
tp5016
I0
s(g1078
g937
tp5017
I0
s(g1021
g1623
tp5018
I1
s(g906
g3613
tp5019
I0
s(g669
S'constellation'
p5020
tp5021
I0
s(g821
S'boy'
p5022
tp5023
I0
s(S'irreversible'
p5024
S'lobotomy'
p5025
tp5026
I1
s(g804
g2557
tp5027
I1
s(g19
g1608
tp5028
I0
s(g2669
g4666
tp5029
I0
s(g233
S'rhinoceros'
p5030
tp5031
I0
s(g256
g2895
tp5032
I0
s(g217
S'chair'
p5033
tp5034
I-1
s(g708
g4004
tp5035
I0
s(S'undeveloped'
p5036
g4982
tp5037
I0
s(g332
g1087
tp5038
I0
s(g524
S'phantom'
p5039
tp5040
I1
s(g432
g2586
tp5041
I0
s(g1021
S'waterfall'
p5042
tp5043
I1
s(g341
S'foal'
p5044
tp5045
I0
s(S'unbreakable'
p5046
g1540
tp5047
I0
s(S'manly'
p5048
S'baseball_player'
p5049
tp5050
I0
s(g114
g200
tp5051
I-1
s(g300
g1111
tp5052
I0
s(g553
g4441
tp5053
I0
s(g1797
g4360
tp5054
I0
s(g242
g562
tp5055
I0
s(g574
S'orchid'
p5056
tp5057
I-1
s(S'elastic'
p5058
S'bungee_cord'
p5059
tp5060
I0
s(g636
S'fudge'
p5061
tp5062
I0
s(g1078
g285
tp5063
I0
s(g3233
g4462
tp5064
I0
s(g317
g1594
tp5065
I0
s(g300
S'suture'
p5066
tp5067
I0
s(g284
g2525
tp5068
I1
s(g272
g4684
tp5069
I0
s(g646
g1421
tp5070
I0
s(g353
g270
tp5071
I1
s(g233
S'bat'
p5072
tp5073
I0
s(g242
g3308
tp5074
I0
s(g379
g3642
tp5075
I0
s(g40
g4363
tp5076
I0
s(g166
g412
tp5077
I0
s(g120
S'log'
p5078
tp5079
I1
s(g789
S'line'
p5080
tp5081
I-1
s(g117
S'printer_cable'
p5082
tp5083
I0
s(g10
g1853
tp5084
I0
s(g40
g4335
tp5085
I0
s(g108
g933
tp5086
I1
s(g1470
S'cossack'
p5087
tp5088
I0
s(g438
S'heifer'
p5089
tp5090
I0
s(g2597
g4111
tp5091
I0
s(g320
g694
tp5092
I-1
s(g1
g916
tp5093
I0
s(g87
g180
tp5094
I1
s(g300
S'choker'
p5095
tp5096
I1
s(g40
g2663
tp5097
I0
s(g1999
S'death_valley'
p5098
tp5099
I0
s(g320
S'razorblade'
p5100
tp5101
I-1
s(g1307
g251
tp5102
I0
s(g510
S'dog_collar'
p5103
tp5104
I-1
s(g493
S'baby_bird'
p5105
tp5106
I0
s(g264
g1017
tp5107
I0
s(g1588
g667
tp5108
I0
s(g1547
S'bachelor_party'
p5109
tp5110
I0
s(g535
g3369
tp5111
I0
s(g510
S'jar'
p5112
tp5113
I0
s(g236
S'metropolis'
p5114
tp5115
I1
s(g264
g2230
tp5116
I0
s(g51
g1262
tp5117
I0
s(g353
S'planet'
p5118
tp5119
I1
s(g133
S'marshmallow'
p5120
tp5121
I1
s(g278
g1215
tp5122
I0
s(g317
S'flower_bud'
p5123
tp5124
I0
s(g81
g1087
tp5125
I0
s(g361
g2498
tp5126
I0
s(g272
S'titanium'
p5127
tp5128
I0
s(g40
S'steamroller'
p5129
tp5130
I0
s(g160
S'robot'
p5131
tp5132
I0
s(g108
g2771
tp5133
I0
s(g361
g1870
tp5134
I0
s(g182
g5080
tp5135
I-1
s(g4217
S'tissue_paper'
p5136
tp5137
I0
s(g1019
g714
tp5138
I1
s(g28
g346
tp5139
I0
s(g417
g572
tp5140
I-1
s(g959
g2832
tp5141
I0
s(S'diffuse'
p5142
g973
tp5143
I0
s(g768
g682
tp5144
I0
s(g72
g4102
tp5145
I0
s(g272
g270
tp5146
I1
s(g4436
S'juggler'
p5147
tp5148
I0
s(S'ripe'
p5149
g1124
tp5150
I0
s(g684
S'filet_mignon'
p5151
tp5152
I0
s(g1511
S'barn'
p5153
tp5154
I0
s(g57
S'prototype'
p5155
tp5156
I0
s(g16
S'die'
p5157
tp5158
I0
s(g731
g1144
tp5159
I-1
s(S'rapid'
p5160
S'monk'
p5161
tp5162
I0
s(g40
S'minotaur'
p5163
tp5164
I-1
s(g214
S'carving_knife'
p5165
tp5166
I1
s(g341
g3947
tp5167
I1
s(g332
g1944
tp5168
I0
s(g269
S'cane'
p5169
tp5170
I0
s(g160
g2502
tp5171
I0
s(g1467
g4934
tp5172
I0
s(g1129
S'ball_bearing'
p5173
tp5174
I0
s(g111
S'map'
p5175
tp5176
I0
s(g2221
g712
tp5177
I0
s(g545
S'telephone_book'
p5178
tp5179
I0
s(g93
S'woman'
p5180
tp5181
I0
s(g964
S'sandbag'
p5182
tp5183
I0
s(g1834
g330
tp5184
I0
s(g2337
S'burger'
p5185
tp5186
I0
s(g604
g2235
tp5187
I0
s(g31
g4209
tp5188
I1
s(g964
g3194
tp5189
I0
s(g1834
g536
tp5190
I0
s(S'wrinkled'
p5191
S'jelly_bean'
p5192
tp5193
I0
s(g3855
g2410
tp5194
I0
s(g4726
g4376
tp5195
I1
s(g618
S'shag_rug'
p5196
tp5197
I0
s(g269
S'marionette'
p5198
tp5199
I0
s(g432
g1564
tp5200
I0
s(g147
g1889
tp5201
I0
s(g658
g2634
tp5202
I0
s(g385
S'harp'
p5203
tp5204
I0
s(g2221
g868
tp5205
I0
s(g31
g844
tp5206
I0
s(g906
S'slipper'
p5207
tp5208
I0
s(g1556
g1171
tp5209
I0
s(g40
g85
tp5210
I1
s(g3441
S'sledge'
p5211
tp5212
I0
s(g2985
g1644
tp5213
I0
s(g1605
S'dagger'
p5214
tp5215
I1
s(g1511
g3022
tp5216
I0
s(g335
g29
tp5217
I0
s(g426
S'coffin_nail'
p5218
tp5219
I1
s(g136
g4867
tp5220
I0
s(g22
g594
tp5221
I1
s(g194
S'metronome'
p5222
tp5223
I0
s(g1069
S'wizard'
p5224
tp5225
I0
s(g155
S'sandbag'
p5226
tp5227
I1
s(g205
g2314
tp5228
I0
s(g789
g410
tp5229
I0
s(g99
S'curse'
p5230
tp5231
I0
s(g111
S'checker_board'
p5232
tp5233
I0
s(g242
g2296
tp5234
I0
s(g1164
g1079
tp5235
I0
s(g966
S'earthworm'
p5236
tp5237
I0
s(g646
g1079
tp5238
I0
s(g272
g718
tp5239
I0
s(g338
g2207
tp5240
I0
s(g163
S'spring'
p5241
tp5242
I-1
s(g338
S'egg'
p5243
tp5244
I0
s(g1129
g751
tp5245
I0
s(g758
S'buffalo'
p5246
tp5247
I0
s(g16
S'gun_barrel'
p5248
tp5249
I0
s(g78
g1933
tp5250
I0
s(g954
g1179
tp5251
I-1
s(g40
g4959
tp5252
I0
s(g2030
S'supermodel'
p5253
tp5254
I0
s(g364
S'swan'
p5255
tp5256
I0
s(g31
S'salsa'
p5257
tp5258
I0
s(g40
g2494
tp5259
I0
s(g1511
g835
tp5260
I0
s(g40
S'atom_bomb'
p5261
tp5262
I0
s(g114
g368
tp5263
I0
s(g545
g4953
tp5264
I-1
s(g374
S'cruiser'
p5265
tp5266
I0
s(g45
g775
tp5267
I0
s(g266
g675
tp5268
I0
s(g335
g3762
tp5269
I0
s(g4456
S'tumor'
p5270
tp5271
I-1
s(g320
g3680
tp5272
I-1
s(g139
g1642
tp5273
I-1
s(g114
g1144
tp5274
I-1
s(g711
g2511
tp5275
I0
s(g45
S'heavyweight'
p5276
tp5277
I0
s(g420
g2293
tp5278
I0
s(g1629
g4312
tp5279
I0
s(g1888
g85
tp5280
I0
s(g364
S'queen'
p5281
tp5282
I0
s(g335
S'sax'
p5283
tp5284
I0
s(g291
S'trooper'
p5285
tp5286
I0
s(g275
g3066
tp5287
I0
s(g320
g613
tp5288
I-1
s(g272
S'mountaineer'
p5289
tp5290
I0
s(g3676
S'oak_tree'
p5291
tp5292
I0
s(g63
g3788
tp5293
I0
s(g320
g1347
tp5294
I0
s(g40
S'paper_bag'
p5295
tp5296
I0
s(g341
g3691
tp5297
I0
s(g300
S'yoke'
p5298
tp5299
I1
s(g1069
S'artisan'
p5300
tp5301
I1
s(g22
g1437
tp5302
I0
s(g1078
g1188
tp5303
I0
s(S'hungry'
p5304
S'bedouin'
p5305
tp5306
I0
s(g1556
S'centipede'
p5307
tp5308
I0
s(g395
g844
tp5309
I0
s(g323
S'mullet'
p5310
tp5311
I0
s(g217
S'doctor'
p5312
tp5313
I0
s(g979
g1099
tp5314
I0
s(g284
g875
tp5315
I1
s(g236
S'library_catalog'
p5316
tp5317
I0
s(g817
S'scrubbing_brush'
p5318
tp5319
I0
s(g2150
g1251
tp5320
I0
s(S'meaty'
p5321
S'skeleton'
p5322
tp5323
I0
s(g37
S'microwave_oven'
p5324
tp5325
I0
s(g1483
g1538
tp5326
I0
s(g199
g2688
tp5327
I0
s(g361
S'superman'
p5328
tp5329
I0
s(g2030
g4448
tp5330
I0
s(g284
g2686
tp5331
I1
s(g574
S'breath'
p5332
tp5333
I0
s(g1027
g3744
tp5334
I0
s(g120
S'destroyer'
p5335
tp5336
I1
s(g1143
g433
tp5337
I1
s(g147
g4994
tp5338
I0
s(g4475
g3623
tp5339
I-1
s(g2221
g3111
tp5340
I0
s(g615
S'snowman'
p5341
tp5342
I0
s(g317
S'toothpick'
p5343
tp5344
I1
s(g278
S'thread'
p5345
tp5346
I1
s(g40
g396
tp5347
I0
s(g54
S'master'
p5348
tp5349
I-1
s(S'breakable'
p5350
g815
tp5351
I0
s(g117
S'cinder_block'
p5352
tp5353
I0
s(g1
g1038
tp5354
I0
s(g242
g2867
tp5355
I0
s(g199
S'terrier'
p5356
tp5357
I0
s(g768
S'harp_seal'
p5358
tp5359
I0
s(g800
g1258
tp5360
I0
s(g510
g904
tp5361
I0
s(g1342
g1099
tp5362
I0
s(g1483
S'orangutan'
p5363
tp5364
I0
s(g1143
g1411
tp5365
I0
s(g300
g1179
tp5366
I0
s(S'sighted'
p5367
g4250
tp5368
I0
s(g16
g1289
tp5369
I1
s(g34
g221
tp5370
I0
s(g708
g243
tp5371
I0
s(g361
S'typhoon'
p5372
tp5373
I0
s(g264
g2318
tp5374
I0
s(g5304
g295
tp5375
I0
s(g493
g4867
tp5376
I0
s(g561
g1101
tp5377
I0
s(g1182
g3728
tp5378
I0
s(g1764
S'nightingale'
p5379
tp5380
I0
s(S'gradual'
p5381
S'trickle'
p5382
tp5383
I0
s(g763
S'monkey'
p5384
tp5385
I0
s(g114
g2836
tp5386
I0
s(g1520
g802
tp5387
I0
s(g722
g3550
tp5388
I0
s(g2136
S'toupee'
p5389
tp5390
I0
s(g658
g2302
tp5391
I0
s(g10
g3950
tp5392
I0
s(S'effortful'
p5393
S'prima_ballerina'
p5394
tp5395
I0
s(g1769
g1751
tp5396
I0
s(g744
S'bra'
p5397
tp5398
I1
s(g341
S'ninja'
p5399
tp5400
I0
s(g87
g2637
tp5401
I0
s(g1983
g3973
tp5402
I0
s(g379
g3206
tp5403
I-1
s(g40
g4309
tp5404
I1
s(S'macho'
p5405
S'toreador'
p5406
tp5407
I0
s(g432
g32
tp5408
I-1
s(g3732
g1594
tp5409
I0
s(g1209
g1009
tp5410
I0
s(g147
g1981
tp5411
I0
s(g48
g1960
tp5412
I0
s(g19
g3744
tp5413
I0
s(g604
S'puma'
p5414
tp5415
I0
s(g1520
g682
tp5416
I0
s(g432
g1749
tp5417
I0
s(g1118
S'construction_worker'
p5418
tp5419
I0
s(g1135
g412
tp5420
I0
s(g75
S'sewer_rat'
p5421
tp5422
I0
s(g338
S'tennis_racquet'
p5423
tp5424
I0
s(g173
S'neurosurgeon'
p5425
tp5426
I0
s(g10
g1120
tp5427
I0
s(g1
g1363
tp5428
I1
s(g335
g922
tp5429
I0
s(g114
g158
tp5430
I-1
s(g1164
g2141
tp5431
I0
s(g553
g1215
tp5432
I0
s(g1596
S'water_snake'
p5433
tp5434
I0
s(g294
S'mermaid'
p5435
tp5436
I0
s(g105
g675
tp5437
I0
s(g269
g215
tp5438
I0
s(S'perfect'
p5439
S'defect'
p5440
tp5441
I0
s(g432
g1397
tp5442
I1
s(g40
g2059
tp5443
I1
s(g768
g846
tp5444
I0
s(S'filled'
p5445
S'balloon'
p5446
tp5447
I0
s(g300
g1717
tp5448
I0
s(g2221
g1717
tp5449
I-1
s(S'heterogeneous'
p5450
g1749
tp5451
I0
s(g120
S'artillery_shell'
p5452
tp5453
I0
s(g63
S'password'
p5454
tp5455
I1
s(g120
S'bus'
p5456
tp5457
I1
s(g233
g76
tp5458
I0
s(g2569
g714
tp5459
I1
s(g731
S'whale'
p5460
tp5461
I0
s(g28
S'sofa_bed'
p5462
tp5463
I0
s(g426
S'morgue'
p5464
tp5465
I0
s(g323
S'hairball'
p5466
tp5467
I0
s(g223
g1706
tp5468
I0
s(g722
g1907
tp5469
I0
s(g37
S'polecat'
p5470
tp5471
I0
s(g31
g3623
tp5472
I0
s(g136
g1012
tp5473
I0
s(g722
g694
tp5474
I0
s(g699
g1855
tp5475
I0
s(g1605
S'pentagon'
p5476
tp5477
I0
s(g317
g2069
tp5478
I1
s(g1892
S'broom'
p5479
tp5480
I0
s(g1221
g2781
tp5481
I0
s(g2759
g1000
tp5482
I0
s(g684
S'grapefruit'
p5483
tp5484
I1
s(g490
S'pygmy'
p5485
tp5486
I0
s(g1605
g1730
tp5487
I1
s(g3855
g916
tp5488
I0
s(g272
S'striker'
p5489
tp5490
I1
s(g4456
S'tapeworm'
p5491
tp5492
I0
s(g54
g2550
tp5493
I0
s(g1386
S'girdle'
p5494
tp5495
I0
s(g2281
S'money_market'
p5496
tp5497
I0
s(g449
g344
tp5498
I0
s(g708
g1948
tp5499
I0
s(g31
S'samurai'
p5500
tp5501
I0
s(g607
S'gorilla'
p5502
tp5503
I0
s(g1078
S'blanket'
p5504
tp5505
I0
s(g883
S'granny'
p5506
tp5507
I0
s(g2038
g525
tp5508
I1
s(S'developed'
p5509
g2895
tp5510
I0
s(g233
S'tiger_shark'
p5511
tp5512
I0
s(g139
g333
tp5513
I-1
s(g417
g613
tp5514
I-1
s(g1
S'shield'
p5515
tp5516
I1
s(g969
g1210
tp5517
I0
s(g214
g2406
tp5518
I1
s(g954
g937
tp5519
I0
s(g596
g106
tp5520
I1
s(g40
g1564
tp5521
I0
s(g5367
g2550
tp5522
I0
s(g374
g137
tp5523
I1
s(g696
S'goldfish_bowl'
p5524
tp5525
I0
s(g1709
g809
tp5526
I0
s(g40
g1017
tp5527
I0
s(S'complex'
p5528
g2143
tp5529
I0
s(g768
g4335
tp5530
I0
s(g1164
g2711
tp5531
I0
s(g220
g935
tp5532
I0
s(g99
S'idea'
p5533
tp5534
I1
s(g37
S'hummingbird'
p5535
tp5536
I0
s(g1182
g1454
tp5537
I0
s(g1
g2795
tp5538
I0
s(g266
S'bouncer'
p5539
tp5540
I0
s(g10
S'jailhouse'
p5541
tp5542
I-1
s(g4456
S'cesspool'
p5543
tp5544
I0
s(g320
g418
tp5545
I0
s(g45
g2987
tp5546
I0
s(g16
g2273
tp5547
I0
s(g278
g2895
tp5548
I-1
s(g220
S'aircraft'
p5549
tp5550
I0
s(g2331
S'meat_hook'
p5551
tp5552
I0
s(g136
g3814
tp5553
I0
s(g31
S'wasp'
p5554
tp5555
I0
s(g374
g412
tp5556
I1
s(g264
g4337
tp5557
I0
s(g689
g145
tp5558
I1
s(S'compound'
p5559
g2895
tp5560
I0
s(S'supernatural'
p5561
S'grace'
p5562
tp5563
I1
s(g31
g46
tp5564
I-1
s(g48
g1652
tp5565
I1
s(g136
S'antelope'
p5566
tp5567
I0
s(g633
S'girder'
p5568
tp5569
I0
s(g173
S'blossom'
p5570
tp5571
I1
s(g553
g3831
tp5572
I0
s(g699
g41
tp5573
I0
s(g236
S'fusion_reactor'
p5574
tp5575
I0
s(g618
g1441
tp5576
I1
s(g353
S'anvil'
p5577
tp5578
I1
s(g364
g1724
tp5579
I0
s(g117
S'noodle'
p5580
tp5581
I0
s(g432
g4062
tp5582
I-1
s(g10
g4042
tp5583
I-1
s(g34
g4462
tp5584
I0
s(g628
S'tornado'
p5585
tp5586
I0
s(g108
g2148
tp5587
I0
s(g300
g1586
tp5588
I0
s(g1277
S'money_market'
p5589
tp5590
I0
s(g2717
S'cement_mixer'
p5591
tp5592
I0
s(g31
S'knife_edge'
p5593
tp5594
I0
s(g16
S'chimney'
p5595
tp5596
I1
s(g604
S'bobsled'
p5597
tp5598
I0
s(g804
g4695
tp5599
I0
s(g438
S'suckling_pig'
p5600
tp5601
I0
s(g959
S'fight'
p5602
tp5603
I0
s(g16
g3961
tp5604
I0
s(g37
S'roadrunner'
p5605
tp5606
I0
s(g272
g5577
tp5607
I1
s(g1574
g2451
tp5608
I0
s(g490
g4609
tp5609
I0
s(S'speedy'
p5610
S'dump_truck'
p5611
tp5612
I0
s(g596
g4366
tp5613
I0
s(g432
g46
tp5614
I-1
s(g69
g393
tp5615
I1
s(g561
g1443
tp5616
I-1
s(g136
S'tightrope_walker'
p5617
tp5618
I0
s(g744
g4737
tp5619
I1
s(g1605
g2406
tp5620
I1
s(g214
g2306
tp5621
I-1
s(g1062
S'spine'
p5622
tp5623
I0
s(g10
g5515
tp5624
I0
s(g1052
g2626
tp5625
I0
s(g269
g2971
tp5626
I1
s(g438
g298
tp5627
I0
s(g45
g1347
tp5628
I0
s(g1078
g647
tp5629
I0
s(g81
g1038
tp5630
I0
s(g220
g3814
tp5631
I1
s(g1002
S'mountie'
p5632
tp5633
I0
s(g432
g4567
tp5634
I0
s(g142
g5033
tp5635
I-1
s(g731
S'artillery_shell'
p5636
tp5637
I0
s(g1052
S'soup'
p5638
tp5639
I-1
s(g281
g1099
tp5640
I0
s(g1821
g802
tp5641
I0
s(g361
g1079
tp5642
I0
s(S'gorgeous'
p5643
S'vacuum_cleaner'
p5644
tp5645
I0
s(g768
g1203
tp5646
I0
s(g160
g1804
tp5647
I0
s(g90
S'ball'
p5648
tp5649
I0
s(g320
g2277
tp5650
I0
s(g2369
S'surgery'
p5651
tp5652
I1
s(g40
g1160
tp5653
I-1
s(g658
g3322
tp5654
I0
s(g561
g2073
tp5655
I0
s(g1304
g5504
tp5656
I0
s(S'nutritious'
p5657
S'chocolate_bar'
p5658
tp5659
I0
s(g524
S'daydream'
p5660
tp5661
I0
s(g31
g4324
tp5662
I-1
s(g1559
S'yeti'
p5663
tp5664
I0
s(g2030
g5460
tp5665
I0
s(g1014
g726
tp5666
I0
s(S'diffuse'
p5667
S'laser_beam'
p5668
tp5669
I0
s(g361
g498
tp5670
I0
s(S'awkward'
p5671
S'refrigerator'
p5672
tp5673
I1
s(g906
S'bamboo'
p5674
tp5675
I0
s(g843
g1399
tp5676
I-1
s(g45
g2296
tp5677
I0
s(g824
g1981
tp5678
I0
s(g490
S'twig'
p5679
tp5680
I0
s(g596
g1577
tp5681
I0
s(g117
g1378
tp5682
I0
s(g220
g4231
tp5683
I0
s(g1304
g3121
tp5684
I0
s(g385
S'supermodel'
p5685
tp5686
I0
s(g2597
S'field'
p5687
tp5688
I0
s(g414
S'boomerang'
p5689
tp5690
I0
s(g1957
S'tractor'
p5691
tp5692
I0
s(g114
g5515
tp5693
I0
s(g1129
g924
tp5694
I1
s(g1
g259
tp5695
I1
s(g1304
g3630
tp5696
I0
s(g16
g318
tp5697
I0
s(g139
g592
tp5698
I0
s(g1170
S'chipmunk'
p5699
tp5700
I0
s(g136
g2576
tp5701
I0
s(g31
g2975
tp5702
I1
s(g147
g1835
tp5703
I0
s(g314
g1687
tp5704
I0
s(g114
g644
tp5705
I0
s(g1629
g1401
tp5706
I0
s(S'well'
p5707
S'parrot'
p5708
tp5709
I0
s(g3645
S'bulldozer'
p5710
tp5711
I0
s(g964
g1839
tp5712
I0
s(g824
g4060
tp5713
I1
s(g361
g664
tp5714
I0
s(g954
g285
tp5715
I-1
s(g45
S'mike_tyson'
p5716
tp5717
I0
s(g2759
S'skull'
p5718
tp5719
I0
s(g236
S'aircraft_engine'
p5720
tp5721
I0
s(g449
S'coconut'
p5722
tp5723
I0
s(g48
S"willo'thewisp"
p5724
tp5725
I0
s(g364
g996
tp5726
I0
s(g1941
g3402
tp5727
I0
s(g684
S'melon'
p5728
tp5729
I1
s(g1629
S'youngster'
p5730
tp5731
I0
s(g320
g2375
tp5732
I-1
s(g2165
S'steam_engine'
p5733
tp5734
I0
s(g31
S'cocktail_party'
p5735
tp5736
I0
s(g1304
g1536
tp5737
I0
s(g155
g5243
tp5738
I1
s(g666
S'meteor_shower'
p5739
tp5740
I0
s(g176
S'fruit'
p5741
tp5742
I-1
s(g843
g251
tp5743
I0
s(g48
S'bubble'
p5744
tp5745
I0
s(g84
g1931
tp5746
I0
s(g45
g2013
tp5747
I0
s(g3171
S'golf_course'
p5748
tp5749
I0
s(g242
g5716
tp5750
I0
s(g432
g815
tp5751
I1
s(g1753
S'treatise'
p5752
tp5753
I0
s(g618
S'chamois_cloth'
p5754
tp5755
I0
s(g114
g3538
tp5756
I-1
s(g182
g2036
tp5757
I0
s(g3645
g2755
tp5758
I1
s(g385
S'leopard'
p5759
tp5760
I0
s(g379
S'armpit'
p5761
tp5762
I0
s(g699
g197
tp5763
I0
s(g323
S'file_cabinet'
p5764
tp5765
I0
s(g561
g2463
tp5766
I1
s(g114
g2940
tp5767
I0
s(g2194
S'tadpole'
p5768
tp5769
I0
s(g1352
g169
tp5770
I0
s(S'lame'
p5771
g967
tp5772
I0
s(g432
g1675
tp5773
I-1
s(g114
g1363
tp5774
I0
s(g1992
g3589
tp5775
I0
s(g1983
g126
tp5776
I1
s(g658
g3070
tp5777
I0
s(g37
g445
tp5778
I0
s(g969
g4680
tp5779
I0
s(g300
g2990
tp5780
I0
s(g817
S'file'
p5781
tp5782
I0
s(g1674
g4360
tp5783
I0
s(g636
g1577
tp5784
I0
s(g341
g1012
tp5785
I0
s(g247
g1661
tp5786
I1
s(g441
g1399
tp5787
I0
s(g10
g2609
tp5788
I0
s(g2645
S'paper_towel'
p5789
tp5790
I0
s(g2435
g1399
tp5791
I0
s(g114
g2516
tp5792
I0
s(g2165
S'labyrinth'
p5793
tp5794
I1
s(g516
g5435
tp5795
I0
s(g2209
g1680
tp5796
I0
s(g545
g1233
tp5797
I-1
s(g361
S'cedar_tree'
p5798
tp5799
I0
s(g1511
g1363
tp5800
I0
s(g817
S'cob'
p5801
tp5802
I0
s(g28
g664
tp5803
I1
s(g1135
g3928
tp5804
I0
s(g1603
S'skull'
p5805
tp5806
I0
s(g214
g1597
tp5807
I0
s(g341
S'kingfisher'
p5808
tp5809
I0
s(g182
g909
tp5810
I0
s(g628
S'boston_fern'
p5811
tp5812
I0
s(g264
g916
tp5813
I0
s(g432
g568
tp5814
I1
s(g117
g517
tp5815
I0
s(g364
g2906
tp5816
I0
s(g768
S'louse'
p5817
tp5818
I0
s(g300
g3136
tp5819
I0
s(g1459
S'shrug'
p5820
tp5821
I0
s(S'ravenous'
p5822
g3895
tp5823
I0
s(g553
g2327
tp5824
I0
s(g332
g2279
tp5825
I1
s(g108
S'bridge'
p5826
tp5827
I0
s(g658
g1652
tp5828
I0
s(g432
g5500
tp5829
I0
s(g3055
g221
tp5830
I0
s(g1809
S'sitcom'
p5831
tp5832
I0
s(g40
g2693
tp5833
I1
s(g5771
S'quadriplegic'
p5834
tp5835
I0
s(g40
g775
tp5836
I1
s(g2386
S'wimp'
p5837
tp5838
I0
s(g214
g4716
tp5839
I1
s(g111
S'quadrille'
p5840
tp5841
I0
s(S'poisonous'
p5842
S'earthworm'
p5843
tp5844
I0
s(g264
S'garden_hose'
p5845
tp5846
I0
s(S'nimble'
p5847
S'oil_tanker'
p5848
tp5849
I0
s(g2916
S'broom'
p5850
tp5851
I0
s(g353
g126
tp5852
I1
s(g1559
g4391
tp5853
I0
s(g704
S'walrus'
p5854
tp5855
I0
s(g696
g2465
tp5856
I1
s(g1027
g937
tp5857
I-1
s(g28
S'hickory_tree'
p5858
tp5859
I0
s(g943
S'judge'
p5860
tp5861
I1
s(g758
g1024
tp5862
I1
s(g10
g1500
tp5863
I0
s(g633
S'rod'
p5864
tp5865
I-1
s(g946
g1401
tp5866
I0
s(g2916
S'housefly'
p5867
tp5868
I0
s(g646
g1179
tp5869
I-1
s(g28
S'chinook'
p5870
tp5871
I1
s(g432
g2463
tp5872
I-1
s(g2241
S'gun'
p5873
tp5874
I0
s(g37
S'rambler'
p5875
tp5876
I0
s(g214
S'steak_knife'
p5877
tp5878
I0
s(g2894
g664
tp5879
I1
s(g182
g3550
tp5880
I0
s(g1
g3538
tp5881
I-1
s(g1473
S'supernova'
p5882
tp5883
I0
s(S'dead'
p5884
S'possum'
p5885
tp5886
I0
s(g320
g4291
tp5887
I-1
s(S'voracious'
p5888
g3430
tp5889
I0
s(g1999
S'dust_devil'
p5890
tp5891
I0
s(g338
S'locker'
p5892
tp5893
I1
s(g490
g2870
tp5894
I0
s(g120
g5577
tp5895
I1
s(g90
S'tomato'
p5896
tp5897
I0
s(g722
g2999
tp5898
I-1
s(g913
S'trooper'
p5899
tp5900
I0
s(g160
g714
tp5901
I1
s(g45
g1443
tp5902
I0
s(g114
g5589
tp5903
I0
s(g2038
g270
tp5904
I0
s(g242
g4459
tp5905
I0
s(g516
g459
tp5906
I1
s(g4426
S'apple_pie'
p5907
tp5908
I0
s(g72
g5421
tp5909
I0
s(g1342
g1055
tp5910
I0
s(g432
g445
tp5911
I1
s(g423
g2630
tp5912
I1
s(g31
g2867
tp5913
I0
s(g699
g546
tp5914
I1
s(g139
g1944
tp5915
I0
s(S'intangible'
p5916
g916
tp5917
I-1
s(g432
g3070
tp5918
I-1
s(g166
g137
tp5919
I0
s(g5450
S'snowbank'
p5920
tp5921
I0
s(g214
g180
tp5922
I1
s(g220
g2925
tp5923
I1
s(g906
g415
tp5924
I0
s(g364
S'orchid'
p5925
tp5926
I1
s(g173
g3415
tp5927
I0
s(g48
g5253
tp5928
I0
s(g3837
S'soap_opera'
p5929
tp5930
I0
s(g5393
S'shrug'
p5931
tp5932
I0
s(S'sporty'
p5933
g4653
tp5934
I0
s(g182
g2013
tp5935
I0
s(g320
g1429
tp5936
I-1
s(g1561
g1401
tp5937
I0
s(g438
S'walrus'
p5938
tp5939
I0
s(S'ungainly'
p5940
g2671
tp5941
I0
s(S'exploited'
p5942
g2895
tp5943
I0
s(g1164
g1389
tp5944
I1
s(S'impervious'
p5945
g5658
tp5946
I0
s(g182
g3656
tp5947
I0
s(g284
g1819
tp5948
I0
s(g1143
g4060
tp5949
I0
s(g633
g664
tp5950
I0
s(g1554
S'root_canal'
p5951
tp5952
I0
s(g353
g344
tp5953
I0
s(g1603
g1538
tp5954
I0
s(g272
S'searchlight'
p5955
tp5956
I0
s(g1170
S'paper_bag'
p5957
tp5958
I0
s(g2569
g270
tp5959
I1
s(g461
S'tortilla_chip'
p5960
tp5961
I0
s(g361
g4464
tp5962
I0
s(g3021
g1911
tp5963
I0
s(g40
g3695
tp5964
I0
s(g142
g2652
tp5965
I0
s(g31
g1347
tp5966
I0
s(g1695
S'chocolate_eclair'
p5967
tp5968
I0
s(g22
g5589
tp5969
I0
s(g111
S'lattice'
p5970
tp5971
I0
s(g108
g944
tp5972
I0
s(g2673
S'potato'
p5973
tp5974
I0
s(g320
g158
tp5975
I-1
s(g722
g2019
tp5976
I0
s(g28
g2693
tp5977
I0
s(g3228
g2561
tp5978
I0
s(g722
g522
tp5979
I0
s(g361
g3656
tp5980
I0
s(S'phony'
p5981
S'slug'
p5982
tp5983
I0
s(g205
S'sofa_bed'
p5984
tp5985
I0
s(g1888
S'forest'
p5986
tp5987
I0
s(g490
S'thread'
p5988
tp5989
I1
s(g48
S'snowdrop'
p5990
tp5991
I0
s(g545
g472
tp5992
I0
s(g272
g5585
tp5993
I1
s(g800
g5929
tp5994
I0
s(g2030
g4872
tp5995
I0
s(g789
g1843
tp5996
I0
s(g220
g1003
tp5997
I0
s(g722
g1843
tp5998
I0
s(g233
g1599
tp5999
I0
s(g1224
S'chainsaw'
p6000
tp6001
I1
s(g10
S'jelly'
p6002
tp6003
I0
s(g233
S'witch'
p6004
tp6005
I1
s(g317
g1659
tp6006
I0
s(g1483
S'buck'
p6007
tp6008
I0
s(g1646
S'meat_pie'
p6009
tp6010
I0
s(g40
g1148
tp6011
I0
s(g658
g543
tp6012
I0
s(g540
S'traffic_jam'
p6013
tp6014
I0
s(g646
g4111
tp6015
I0
s(g553
g1684
tp6016
I0
s(g1554
g5003
tp6017
I1
s(g69
S'poison'
p6018
tp6019
I1
s(g361
g2260
tp6020
I0
s(g120
g3973
tp6021
I0
s(g615
g726
tp6022
I0
s(g768
S'dog'
p6023
tp6024
I0
s(g392
g864
tp6025
I1
s(g361
g1853
tp6026
I0
s(g2209
g920
tp6027
I0
s(g2372
g4417
tp6028
I-1
s(g10
g1972
tp6029
I0
s(g139
S'shower'
p6030
tp6031
I0
s(g1092
g1087
tp6032
I0
s(g320
g1848
tp6033
I0
s(g432
S'fairy_tale'
p6034
tp6035
I0
s(g4853
g1900
tp6036
I0
s(g1957
g4376
tp6037
I0
s(g432
g2990
tp6038
I0
s(g731
g1911
tp6039
I1
s(g545
S'suckling_pig'
p6040
tp6041
I0
s(g253
g1975
tp6042
I0
s(g1135
S'peony'
p6043
tp6044
I0
s(g84
g4706
tp6045
I0
s(g722
g183
tp6046
I0
s(S'ugly'
p6047
S'sun'
p6048
tp6049
I0
s(g449
g749
tp6050
I0
s(g13
g137
tp6051
I0
s(g5367
S'mole'
p6052
tp6053
I0
s(g364
S'pie'
p6054
tp6055
I0
s(g3283
g714
tp6056
I0
s(g261
g2011
tp6057
I0
s(g123
S'hair'
p6058
tp6059
I1
s(g2313
S'mountain'
p6060
tp6061
I1
s(g545
g5460
tp6062
I0
s(g1
g3519
tp6063
I-1
s(g34
g1594
tp6064
I0
s(S'sleek'
p6065
S'ocean_liner'
p6066
tp6067
I0
s(g223
g2207
tp6068
I0
s(g1554
S'mainframe_computer'
p6069
tp6070
I-1
s(g758
S'slaver'
p6071
tp6072
I0
s(g361
g2795
tp6073
I0
s(S'slithery'
p6074
g1401
tp6075
I0
s(g1677
S'flame'
p6076
tp6077
I0
s(g1511
S'weed'
p6078
tp6079
I0
s(g954
g2293
tp6080
I0
s(g1221
g197
tp6081
I-1
s(g441
g3580
tp6082
I0
s(g510
S'leotard'
p6083
tp6084
I-1
s(g2597
g4706
tp6085
I0
s(g22
S'jackolantern'
p6086
tp6087
I0
s(g66
S'banana_peel'
p6088
tp6089
I0
s(g722
g2013
tp6090
I0
s(g432
g4863
tp6091
I0
s(g37
g1872
tp6092
I0
s(g22
S'treasury_bond'
p6093
tp6094
I0
s(g658
g4666
tp6095
I0
s(g493
g1136
tp6096
I0
s(g722
g1184
tp6097
I0
s(g31
g1857
tp6098
I-1
s(S'hardened'
p6099
S'new_york'
p6100
tp6101
I0
s(g2717
g2200
tp6102
I0
s(g1769
g251
tp6103
I0
s(g1143
S'portrait'
p6104
tp6105
I0
s(g3131
S'cookie'
p6106
tp6107
I0
s(g5981
S'platinum_blond'
p6108
tp6109
I0
s(g1941
g802
tp6110
I0
s(g1078
g1201
tp6111
I0
s(g2569
g3294
tp6112
I1
s(g297
g2872
tp6113
I0
s(g485
S'eggshell'
p6114
tp6115
I0
s(g420
g3762
tp6116
I1
s(g139
g1331
tp6117
I0
s(S'seamless'
p6118
g3415
tp6119
I0
s(g666
g1732
tp6120
I-1
s(g779
S'greaser'
p6121
tp6122
I0
s(g604
S'cyclone'
p6123
tp6124
I0
s(g22
g1278
tp6125
I0
s(g10
g1347
tp6126
I1
s(g946
g393
tp6127
I0
s(g1
g3792
tp6128
I0
s(g449
g675
tp6129
I1
s(g1782
g257
tp6130
I0
s(g54
S'ninja'
p6131
tp6132
I0
s(g278
g2279
tp6133
I-1
s(g385
S'colt'
p6134
tp6135
I0
s(g31
g4537
tp6136
I0
s(g40
g243
tp6137
I0
s(g725
S'toothache'
p6138
tp6139
I0
s(g2030
g3439
tp6140
I0
s(S'invulnerable'
p6141
g1122
tp6142
I1
s(g2569
g1540
tp6143
I1
s(g353
S'jailhouse'
p6144
tp6145
I1
s(g272
g1644
tp6146
I1
s(g75
S'pigpen'
p6147
tp6148
I0
s(g272
g5502
tp6149
I0
s(g3778
g447
tp6150
I0
s(g5981
g870
tp6151
I0
s(g954
g1454
tp6152
I0
s(g34
g2205
tp6153
I0
s(g906
S'giraffe'
p6154
tp6155
I0
s(g658
g4483
tp6156
I0
s(g300
g3756
tp6157
I0
s(g320
g46
tp6158
I-1
s(g1629
g137
tp6159
I0
s(g28
g2
tp6160
I1
s(g744
S'teammate'
p6161
tp6162
I0
s(g3233
S'hercules'
p6163
tp6164
I0
s(g40
g1033
tp6165
I0
s(g1574
S'dill_pickle'
p6166
tp6167
I0
s(g40
g2946
tp6168
I0
s(g105
g1462
tp6169
I0
s(g272
S'water_buffalo'
p6170
tp6171
I0
s(S'lithe'
p6172
g1492
tp6173
I0
s(g843
g200
tp6174
I0
s(g4741
S'marathon'
p6175
tp6176
I0
s(g789
g3550
tp6177
I0
s(g1556
S'dishrag'
p6178
tp6179
I0
s(g438
S'barrel'
p6180
tp6181
I1
s(g524
g103
tp6182
I1
s(g31
g2561
tp6183
I0
s(g150
g106
tp6184
I1
s(g731
g368
tp6185
I0
s(g1277
g6093
tp6186
I0
s(g19
g285
tp6187
I-1
s(g704
S'sheep'
p6188
tp6189
I0
s(g731
g115
tp6190
I-1
s(g332
g584
tp6191
I-1
s(g432
g4708
tp6192
I1
s(g220
g5585
tp6193
I0
s(g574
S'seashell'
p6194
tp6195
I0
s(g353
g4969
tp6196
I1
s(g2372
S'steam_whistle'
p6197
tp6198
I0
s(g294
g613
tp6199
I-1
s(g1243
S'thong'
p6200
tp6201
I1
s(g553
g140
tp6202
I0
s(g1999
S'biscuit'
p6203
tp6204
I1
s(g417
g1751
tp6205
I0
s(g1129
g2392
tp6206
I1
s(g1957
S'rambler'
p6207
tp6208
I0
s(g481
S'toilet'
p6209
tp6210
I0
s(g561
g893
tp6211
I0
s(g10
S'gravestone'
p6212
tp6213
I0
s(g242
g46
tp6214
I1
s(g320
g4708
tp6215
I-1
s(g123
g1926
tp6216
I1
s(g561
g3287
tp6217
I1
s(g182
g11
tp6218
I-1
s(g139
g1524
tp6219
I0
s(g40
g1853
tp6220
I0
s(g744
S'family'
p6221
tp6222
I1
s(g3633
g1188
tp6223
I0
s(g2435
g442
tp6224
I0
s(g768
g1157
tp6225
I0
s(g1182
g2618
tp6226
I0
s(g5350
g664
tp6227
I1
s(g3637
S'automaton'
p6228
tp6229
I1
s(g1170
S'twig'
p6230
tp6231
I1
s(g5916
g58
tp6232
I0
s(g367
g664
tp6233
I-1
s(g356
S'butcher'
p6234
tp6235
I0
s(g182
g766
tp6236
I0
s(g323
S'dinosaur'
p6237
tp6238
I0
s(g1209
g623
tp6239
I0
s(g646
g1536
tp6240
I0
s(g87
S'choirboy'
p6241
tp6242
I0
s(g1605
S'syringe'
p6243
tp6244
I1
s(g1243
S'bomber'
p6245
tp6246
I0
s(g278
S'shirley_temple'
p6247
tp6248
I0
s(g272
g5710
tp6249
I0
s(g574
g2293
tp6250
I0
s(g19
S'cotton_ball'
p6251
tp6252
I0
s(g361
S'hero'
p6253
tp6254
I0
s(g5048
g3302
tp6255
I0
s(g449
S'hickory_tree'
p6256
tp6257
I1
s(g432
g4248
tp6258
I0
s(g696
g1654
tp6259
I1
s(g3233
g106
tp6260
I1
s(g338
S'marriage'
p6261
tp6262
I1
s(g449
S'chinook'
p6263
tp6264
I1
s(g19
S'pebble'
p6265
tp6266
I0
s(g420
S'granny'
p6267
tp6268
I0
s(g490
S'chicken'
p6269
tp6270
I0
s(g31
S'doorknob'
p6271
tp6272
I0
s(g2150
g2650
tp6273
I0
s(g1459
S'prima_ballerina'
p6274
tp6275
I0
s(g188
g333
tp6276
I0
s(g139
g3942
tp6277
I0
s(g432
g844
tp6278
I0
s(g2209
S'pea_shooter'
p6279
tp6280
I0
s(g604
g975
tp6281
I1
s(g821
g4324
tp6282
I0
s(g1830
S'field'
p6283
tp6284
I1
s(g449
g2254
tp6285
I1
s(g233
g4854
tp6286
I0
s(g1078
g709
tp6287
I0
s(g93
S'football_game'
p6288
tp6289
I0
s(g223
g3266
tp6290
I0
s(g432
g2781
tp6291
I1
s(S'macho'
p6292
S'doormat'
p6293
tp6294
I0
s(g1941
g805
tp6295
I0
s(g320
S'meatball'
p6296
tp6297
I0
s(g722
g866
tp6298
I-1
s(g658
S'sunbeam'
p6299
tp6300
I0
s(g160
g427
tp6301
I0
s(g2372
g4324
tp6302
I0
s(S'restless'
p6303
S'willow'
p6304
tp6305
I0
s(g561
g1545
tp6306
I0
s(g2597
S'queen_bee'
p6307
tp6308
I0
s(g272
g3895
tp6309
I1
s(g574
S'wind_chime'
p6310
tp6311
I0
s(g173
g2952
tp6312
I0
s(g272
S'espresso'
p6313
tp6314
I1
s(g63
g2465
tp6315
I1
s(g429
g3871
tp6316
I1
s(g233
g3329
tp6317
I0
s(g341
g2392
tp6318
I0
s(g658
g981
tp6319
I0
s(g123
S'cigarette'
p6320
tp6321
I0
s(g96
S'metronome'
p6322
tp6323
I0
s(g817
g4179
tp6324
I0
s(g1027
S'pikestaff'
p6325
tp6326
I0
s(g1129
g1177
tp6327
I0
s(g1797
g1675
tp6328
I0
s(g349
g1256
tp6329
I0
s(g636
S'dictionary'
p6330
tp6331
I1
s(g242
g815
tp6332
I-1
s(g45
g835
tp6333
I0
s(g214
S'tooth'
p6334
tp6335
I1
s(g356
g3150
tp6336
I0
s(g943
S'laptop_computer'
p6337
tp6338
I0
s(g19
g1201
tp6339
I0
s(g2176
g3746
tp6340
I0
s(g1674
g1798
tp6341
I0
s(g320
g3150
tp6342
I0
s(g182
g1452
tp6343
I0
s(g123
g853
tp6344
I1
s(g4
g3737
tp6345
I1
s(g4853
g2872
tp6346
I0
s(g1999
S'sand_trap'
p6347
tp6348
I0
s(g2106
g4312
tp6349
I1
s(g1129
g3294
tp6350
I1
s(g3881
S'bowstring'
p6351
tp6352
I0
s(g502
S'bomber'
p6353
tp6354
I0
s(g1352
g1552
tp6355
I0
s(g356
g2373
tp6356
I1
s(g722
g3019
tp6357
I0
s(g1078
g851
tp6358
I0
s(g99
S'phantom'
p6359
tp6360
I0
s(g217
S'fatwa'
p6361
tp6362
I0
s(g432
S'meat_cleaver'
p6363
tp6364
I-1
s(S'unaddicted'
p6365
g2091
tp6366
I0
s(g1764
S'market'
p6367
tp6368
I0
s(g90
S'cabbage'
p6369
tp6370
I0
s(g954
g1201
tp6371
I0
s(g335
S'aircraft_carrier'
p6372
tp6373
I0
s(g31
g1776
tp6374
I0
s(g561
g621
tp6375
I0
s(g220
g3201
tp6376
I0
s(g1556
S'rag_doll'
p6377
tp6378
I0
s(g2759
S'cub_scout'
p6379
tp6380
I0
s(g374
g5399
tp6381
I0
s(g374
g4849
tp6382
I0
s(g1827
S'bull'
p6383
tp6384
I0
s(S'reversible'
p6385
S'birth'
p6386
tp6387
I0
s(g1224
S'potato'
p6388
tp6389
I1
s(g432
g282
tp6390
I0
s(g332
S'rain'
p6391
tp6392
I1
s(g2861
S'fatwa'
p6393
tp6394
I0
s(g1947
g1450
tp6395
I0
s(g817
g3219
tp6396
I0
s(g789
g2634
tp6397
I0
s(g731
S'log'
p6398
tp6399
I-1
s(g1027
g694
tp6400
I-1
s(g1098
g5372
tp6401
I0
s(S'organic'
p6402
S'dump'
p6403
tp6404
I0
s(g689
S'beginner'
p6405
tp6406
I1
s(g40
g5328
tp6407
I0
s(g574
g2279
tp6408
I0
s(g379
g3737
tp6409
I0
s(g123
g1289
tp6410
I1
s(g1021
g1659
tp6411
I1
s(g804
g240
tp6412
I-1
s(g493
S'bubble'
p6413
tp6414
I0
s(g722
g981
tp6415
I0
s(g194
g5131
tp6416
I0
s(g361
g1087
tp6417
I0
s(g217
S'parent'
p6418
tp6419
I-1
s(g3441
g1758
tp6420
I1
s(g173
g5925
tp6421
I1
s(g808
S'wax_figure'
p6422
tp6423
I0
s(g432
g1235
tp6424
I0
s(g272
S'storm'
p6425
tp6426
I1
s(g108
S'skyscraper'
p6427
tp6428
I0
s(g3732
g365
tp6429
I0
s(g1143
g532
tp6430
I0
s(g1574
S'tumor'
p6431
tp6432
I1
s(g954
g1188
tp6433
I-1
s(g1574
S'melanoma'
p6434
tp6435
I-1
s(g5048
g4732
tp6436
I0
s(g323
S'cuckoo_clock'
p6437
tp6438
I0
s(g320
g1215
tp6439
I-1
s(S'runny'
p6440
S'egg_yolk'
p6441
tp6442
I0
s(g214
g2078
tp6443
I0
s(g1209
g3264
tp6444
I0
s(g214
S'burr'
p6445
tp6446
I1
s(g60
g1788
tp6447
I0
s(g753
S'footballer'
p6448
tp6449
I-1
s(g10
g2643
tp6450
I0
s(g2372
S'nun'
p6451
tp6452
I0
s(g379
S'mud_pie'
p6453
tp6454
I0
s(g31
g4226
tp6455
I0
s(g4124
g3415
tp6456
I0
s(g194
g326
tp6457
I0
s(S'mortal'
p6458
g623
tp6459
I0
s(g182
g1527
tp6460
I0
s(g1
g4464
tp6461
I0
s(g704
g3206
tp6462
I0
s(g264
S'string'
p6463
tp6464
I0
s(g3228
g783
tp6465
I0
s(g81
g169
tp6466
I-1
s(g722
g4666
tp6467
I0
s(g320
S'scalpel'
p6468
tp6469
I-1
s(g376
g5644
tp6470
I0
s(g731
g893
tp6471
I-1
s(g1182
g1536
tp6472
I0
s(g3131
S'cadaver'
p6473
tp6474
I0
s(g426
g726
tp6475
I0
s(g60
S'sop'
p6476
tp6477
I0
s(g574
g2327
tp6478
I0
s(g1021
S'sunflower'
p6479
tp6480
I0
s(g474
g5722
tp6481
I0
s(g376
g380
tp6482
I0
s(g356
S'clinic'
p6483
tp6484
I0
s(g72
S'diver'
p6485
tp6486
I0
s(g1551
S'exhaust_pipe'
p6487
tp6488
I0
s(g1473
S'suicide_bomber'
p6489
tp6490
I0
s(g139
S'spray'
p6491
tp6492
I0
s(g1182
g1305
tp6493
I1
s(g2241
S'football'
p6494
tp6495
I0
s(g361
g1007
tp6496
I0
s(g2038
g933
tp6497
I1
s(g2669
S'poem'
p6498
tp6499
I1
s(g426
g2614
tp6500
I1
s(g1275
g517
tp6501
I-1
s(g510
g1201
tp6502
I0
s(g2435
g897
tp6503
I0
s(g779
S'coal_miner'
p6504
tp6505
I0
s(g420
S'milk_float'
p6506
tp6507
I0
s(g553
g2537
tp6508
I0
s(g19
g875
tp6509
I-1
s(g374
g153
tp6510
I0
s(g314
S'fetus'
p6511
tp6512
I1
s(g2106
S'fight'
p6513
tp6514
I0
s(g658
g2013
tp6515
I0
s(g432
g2561
tp6516
I0
s(g341
g5566
tp6517
I0
s(g10
g4562
tp6518
I0
s(g173
g1538
tp6519
I1
s(S'addicted'
p6520
S'heroin_addict'
p6521
tp6522
I0
s(g272
g1502
tp6523
I0
s(g4107
g2525
tp6524
I-1
s(g220
g1060
tp6525
I0
s(g516
g418
tp6526
I0
s(g779
S'sewer'
p6527
tp6528
I0
s(g242
g621
tp6529
I1
s(g5393
g1819
tp6530
I0
s(g824
g1682
tp6531
I1
s(g361
S'superstructure'
p6532
tp6533
I0
s(g320
g3070
tp6534
I0
s(g567
g4863
tp6535
I0
s(g2742
g6425
tp6536
I1
s(g1695
S'mollusk'
p6537
tp6538
I1
s(g4124
S'screen_door'
p6539
tp6540
I0
s(g1830
g3833
tp6541
I1
s(g398
g911
tp6542
I0
s(g731
S'hammock'
p6543
tp6544
I1
s(g596
g1175
tp6545
I0
s(g1554
S'aircraft_engine'
p6546
tp6547
I0
s(g3171
S'card_catalogue'
p6548
tp6549
I0
s(g147
g1911
tp6550
I0
s(g2583
g3098
tp6551
I0
s(g5707
g200
tp6552
I0
s(g1182
g1421
tp6553
I0
s(g519
g2275
tp6554
I1
s(g2717
g5577
tp6555
I1
s(g341
g4105
tp6556
I0
s(g133
S'pillow'
p6557
tp6558
I1
s(g1941
g4056
tp6559
I-1
s(g2597
S'compost_pile'
p6560
tp6561
I0
s(g16
g3326
tp6562
I0
s(g951
S'burger'
p6563
tp6564
I0
s(g5058
S'spring'
p6565
tp6566
I1
s(g4257
g5617
tp6567
I0
s(g510
g1717
tp6568
I0
s(g22
S'tunnel'
p6569
tp6570
I1
s(g223
S'coffin'
p6571
tp6572
I0
s(g379
g5446
tp6573
I0
s(g320
g85
tp6574
I-1
s(g66
g3741
tp6575
I0
s(g3881
g3940
tp6576
I0
s(g31
g4422
tp6577
I-1
s(g432
g4291
tp6578
I-1
s(g574
g1055
tp6579
I-1
s(g332
g140
tp6580
I1
s(g31
g1534
tp6581
I0
s(g233
g2908
tp6582
I0
s(g114
g4562
tp6583
I0
s(g4741
g4058
tp6584
I0
s(g1315
g1087
tp6585
I0
s(g1078
g3728
tp6586
I0
s(g1164
g1500
tp6587
I-1
s(g205
S'pillow'
p6588
tp6589
I0
s(g722
g3322
tp6590
I0
s(g1476
g1150
tp6591
I0
s(g824
S'gourd'
p6592
tp6593
I0
s(g374
g4462
tp6594
I0
s(g1467
S'gale'
p6595
tp6596
I0
s(g139
g584
tp6597
I-1
s(g666
g2075
tp6598
I0
s(g233
S'turd'
p6599
tp6600
I0
s(g338
S'dog_collar'
p6601
tp6602
I1
s(g353
g1577
tp6603
I0
s(g284
g1074
tp6604
I1
s(g40
g2296
tp6605
I0
s(g1473
S'meteor_shower'
p6606
tp6607
I0
s(g4217
g2626
tp6608
I0
s(g294
g819
tp6609
I0
s(g779
S'pigpen'
p6610
tp6611
I0
s(g220
S'racer'
p6612
tp6613
I1
s(g505
S'hoop'
p6614
tp6615
I0
s(g449
g1599
tp6616
I0
s(g223
g1210
tp6617
I0
s(g341
g675
tp6618
I0
s(g493
g370
tp6619
I0
s(g320
g4209
tp6620
I0
s(g45
g3287
tp6621
I1
s(g466
g4856
tp6622
I0
s(g824
g5744
tp6623
I1
s(g3311
g5798
tp6624
I0
s(g242
g2832
tp6625
I0
s(g574
g3161
tp6626
I0
s(g1129
S'axe'
p6627
tp6628
I1
s(g779
g769
tp6629
I0
s(g105
g145
tp6630
I1
s(g75
S'pigsty'
p6631
tp6632
I0
s(g341
g914
tp6633
I0
s(g90
S'mushroom'
p6634
tp6635
I0
s(g361
g667
tp6636
I0
s(g361
g5479
tp6637
I0
s(g731
g6212
tp6638
I-1
s(g214
S'wood_chisel'
p6639
tp6640
I0
s(g704
S'turkey'
p6641
tp6642
I0
s(g674
g1150
tp6643
I0
s(g653
g2667
tp6644
I0
s(g220
g1282
tp6645
I0
s(g1304
g1749
tp6646
I0
s(g2241
S'wall'
p6647
tp6648
I1
s(g438
g4119
tp6649
I0
s(g449
g1046
tp6650
I1
s(g147
g1038
tp6651
I0
s(S'athletic'
p6652
S'linebacker'
p6653
tp6654
I0
s(S'dirty'
p6655
S'clock'
p6656
tp6657
I0
s(g669
S'papal_bull'
p6658
tp6659
I0
s(g90
S'mango'
p6660
tp6661
I0
s(g545
g1179
tp6662
I0
s(g356
g6451
tp6663
I0
s(g2752
S'hound_dog'
p6664
tp6665
I0
s(g5888
g1282
tp6666
I0
s(g1947
S'leopard'
p6667
tp6668
I0
s(g385
S'matador'
p6669
tp6670
I0
s(g220
g5414
tp6671
I0
s(g214
S'knife_edge'
p6672
tp6673
I0
s(g2221
g2845
tp6674
I0
s(g429
g1122
tp6675
I1
s(g3168
S'dog'
p6676
tp6677
I0
s(g233
S'confrontation'
p6678
tp6679
I0
s(g561
g998
tp6680
I0
s(g753
S'marathoner'
p6681
tp6682
I0
s(g553
g584
tp6683
I0
s(g1143
g148
tp6684
I0
s(g3256
S'hospital_ward'
p6685
tp6686
I0
s(g233
g3540
tp6687
I0
s(g385
S'surgeon'
p6688
tp6689
I0
s(g553
g6491
tp6690
I0
s(g618
g145
tp6691
I1
s(g214
g6627
tp6692
I1
s(g2931
g3611
tp6693
I0
s(g432
S'awl'
p6694
tp6695
I-1
s(g364
S'jasmine'
p6696
tp6697
I0
s(g1617
g769
tp6698
I0
s(g906
g174
tp6699
I0
s(g250
g2667
tp6700
I0
s(g1470
g5535
tp6701
I0
s(g628
S'weed'
p6702
tp6703
I0
s(g300
S'thermos_bottle'
p6704
tp6705
I0
s(g182
g2132
tp6706
I-1
s(g1568
g5120
tp6707
I0
s(g320
g1133
tp6708
I1
s(g272
g3225
tp6709
I0
s(g133
S'membrane'
p6710
tp6711
I1
s(g332
g6491
tp6712
I0
s(g1947
g709
tp6713
I0
s(g1078
g2806
tp6714
I0
s(g474
g2932
tp6715
I0
s(g269
g996
tp6716
I0
s(g5142
g5660
tp6717
I0
s(g1069
S'diplomat'
p6718
tp6719
I0
s(g731
g396
tp6720
I-1
s(g361
g2447
tp6721
I0
s(S'explosive'
p6722
S'sparkler'
p6723
tp6724
I0
s(S'formed'
p6725
g4760
tp6726
I0
s(g1164
S'forklift'
p6727
tp6728
I0
s(g1830
g1851
tp6729
I0
s(g117
g2663
tp6730
I1
s(g31
S'falcon'
p6731
tp6732
I0
s(g361
S'surfboard'
p6733
tp6734
I0
s(g699
g1179
tp6735
I0
s(g117
g6463
tp6736
I-1
s(g768
g2421
tp6737
I0
s(g136
S'noel_coward'
p6738
tp6739
I0
s(g2266
g2262
tp6740
I0
s(g220
g914
tp6741
I1
s(g1554
S'fusion_reactor'
p6742
tp6743
I0
s(g946
S'chess_piece'
p6744
tp6745
I0
s(g353
g2971
tp6746
I1
s(g45
g4086
tp6747
I0
s(g300
g2650
tp6748
I0
s(g1135
g3176
tp6749
I0
s(g3676
S'dinner_table'
p6750
tp6751
I0
s(g108
g450
tp6752
I0
s(g561
g1055
tp6753
I0
s(g364
g5379
tp6754
I1
s(g335
g6353
tp6755
I0
s(g699
g1203
tp6756
I0
s(g1983
g5896
tp6757
I0
s(g242
g4773
tp6758
I0
s(g4124
S'mist'
p6759
tp6760
I0
s(g117
g4289
tp6761
I0
s(g768
g3971
tp6762
I0
s(g236
g1659
tp6763
I1
s(g291
S'rocket'
p6764
tp6765
I0
s(g1129
g2479
tp6766
I1
s(g545
g2990
tp6767
I0
s(g278
g3422
tp6768
I0
s(g2030
g1601
tp6769
I0
s(g31
g2421
tp6770
I0
s(g438
g3860
tp6771
I1
s(g2348
g5289
tp6772
I0
s(g205
S'girl_scout'
p6773
tp6774
I0
s(g220
S'calculator'
p6775
tp6776
I0
s(S'wholesome'
p6777
S'porn'
p6778
tp6779
I0
s(g214
g5214
tp6780
I1
s(g646
g1454
tp6781
I0
s(g574
S'wisp'
p6782
tp6783
I0
s(g636
g3871
tp6784
I1
s(g722
g909
tp6785
I0
s(g335
g4750
tp6786
I0
s(g28
S'football_player'
p6787
tp6788
I1
s(g31
g3652
tp6789
I0
s(g300
S'bathing_cap'
p6790
tp6791
I0
s(g361
g5163
tp6792
I0
s(g214
g2396
tp6793
I0
s(g102
S'rainbow'
p6794
tp6795
I0
s(g214
g4754
tp6796
I1
s(g1559
S'armadillo'
p6797
tp6798
I0
s(g114
g1853
tp6799
I0
s(g75
S'prostitute'
p6800
tp6801
I0
s(g808
S'cemetery'
p6802
tp6803
I0
s(g943
S'leader'
p6804
tp6805
I0
s(g3732
g973
tp6806
I0
s(g284
S'spirit'
p6807
tp6808
I1
s(g797
S'snowbank'
p6809
tp6810
I0
s(g646
g2618
tp6811
I0
s(g139
g1374
tp6812
I-1
s(g90
g1040
tp6813
I0
s(g1069
g2637
tp6814
I1
s(g883
S'milk_float'
p6815
tp6816
I0
s(g1059
S'terrier'
p6817
tp6818
I0
s(g120
g1577
tp6819
I0
s(g604
S'racing_car'
p6820
tp6821
I0
s(g28
g1447
tp6822
I1
s(g618
S'cushion'
p6823
tp6824
I1
s(g123
g4754
tp6825
I0
s(g1069
g5399
tp6826
I1
s(g160
S'tuning_fork'
p6827
tp6828
I0
s(g954
g2404
tp6829
I0
s(g524
S'scent'
p6830
tp6831
I0
s(g658
g2132
tp6832
I0
s(g10
g709
tp6833
I0
s(g535
g330
tp6834
I1
s(g699
g1435
tp6835
I0
s(g220
g2768
tp6836
I0
s(g379
g6388
tp6837
I0
s(g516
g85
tp6838
I-1
s(g2209
S'drunkard'
p6839
tp6840
I0
s(g223
S'mausoleum'
p6841
tp6842
I0
s(g1830
S'rain_forest'
p6843
tp6844
I0
s(g1304
g709
tp6845
I0
s(g114
g396
tp6846
I0
s(g96
S'pearl'
p6847
tp6848
I0
s(g3685
S'rattler'
p6849
tp6850
I-1
s(g1021
g3245
tp6851
I1
s(S'nutritious'
p6852
g5973
tp6853
I1
s(g432
g3759
tp6854
I1
s(g1182
g584
tp6855
I-1
s(g199
g1124
tp6856
I0
s(g722
g4324
tp6857
I0
s(g1221
g4641
tp6858
I-1
s(g1709
S'gang'
p6859
tp6860
I0
s(g741
S'skin_graft'
p6861
tp6862
I0
s(S'sudden'
p6863
g1361
tp6864
I0
s(S'slow'
p6865
S'rocket'
p6866
tp6867
I0
s(g478
g3540
tp6868
I0
s(g564
S'baseball_game'
p6869
tp6870
I1
s(g114
g4464
tp6871
I0
s(g272
g2275
tp6872
I1
s(g314
g5982
tp6873
I0
s(g2030
g346
tp6874
I0
s(g341
S'sand_viper'
p6875
tp6876
I0
s(g493
S'foetus'
p6877
tp6878
I0
s(g102
S'specter'
p6879
tp6880
I1
s(g4
S'sock'
p6881
tp6882
I0
s(g2106
g4430
tp6883
I0
s(g1098
g575
tp6884
I0
s(g90
g1445
tp6885
I0
s(S'sexy'
p6886
S'wicker'
p6887
tp6888
I0
s(g1605
S'knitting_needle'
p6889
tp6890
I0
s(g6402
S'nose_job'
p6891
tp6892
I0
s(g779
S'prostitute'
p6893
tp6894
I0
s(g361
g333
tp6895
I0
s(g658
g522
tp6896
I0
s(g1467
g3848
tp6897
I0
s(g40
g5798
tp6898
I0
s(g353
g1371
tp6899
I1
s(g731
g815
tp6900
I-1
s(g2150
g4113
tp6901
I0
s(g114
S'block'
p6902
tp6903
I-1
s(g1554
S'zoo'
p6904
tp6905
I0
s(g545
S'burgher'
p6906
tp6907
I0
s(g34
g5384
tp6908
I1
s(g954
g3728
tp6909
I0
s(g1470
S'wind'
p6910
tp6911
I0
s(g574
g3942
tp6912
I0
s(g182
g2701
tp6913
I0
s(g81
S'vehicle'
p6914
tp6915
I-1
s(g1769
g405
tp6916
I0
s(g449
g3895
tp6917
I0
s(g60
S'diver'
p6918
tp6919
I0
s(g461
g6203
tp6920
I0
s(g139
g2836
tp6921
I0
s(g666
S'petrol_bomb'
p6922
tp6923
I0
s(g490
S'slacker'
p6924
tp6925
I0
s(g658
g4422
tp6926
I0
s(g666
S'supernova'
p6927
tp6928
I0
s(g45
g2832
tp6929
I0
s(g395
g839
tp6930
I0
s(g5707
g6023
tp6931
I0
s(g3171
S'quadrille'
p6932
tp6933
I0
s(g658
g472
tp6934
I0
s(g1806
g1133
tp6935
I-1
s(g13
g3928
tp6936
I0
s(g2742
S'earthquake'
p6937
tp6938
I0
s(g37
S'cheetah'
p6939
tp6940
I0
s(g432
g1155
tp6941
I0
s(g474
g103
tp6942
I0
s(g1050
g2818
tp6943
I0
s(g510
g2061
tp6944
I0
s(g1467
g1033
tp6945
I0
s(g2981
g94
tp6946
I1
s(g2981
g6288
tp6947
I0
s(g40
g2975
tp6948
I0
s(g1301
S'butcher'
p6949
tp6950
I0
s(g906
S'elastomer'
p6951
tp6952
I1
s(g385
S'cheetah'
p6953
tp6954
I0
s(g728
S'kudzu_vine'
p6955
tp6956
I0
s(g1
g4656
tp6957
I0
s(g314
g2496
tp6958
I0
s(g87
S'steam_whistle'
p6959
tp6960
I0
s(g1318
g4777
tp6961
I-1
s(g711
g368
tp6962
I-1
s(g800
S'lame_duck'
p6963
tp6964
I0
s(g553
g2168
tp6965
I-1
s(g40
g4464
tp6966
I0
s(g173
g494
tp6967
I1
s(g1467
g4945
tp6968
I0
s(g40
g5372
tp6969
I0
s(g545
g1774
tp6970
I0
s(g414
S'boa_constrictor'
p6971
tp6972
I0
s(g681
g802
tp6973
I-1
s(g214
g2023
tp6974
I0
s(g353
S'launching_pad'
p6975
tp6976
I0
s(g6865
S'photon'
p6977
tp6978
I0
s(g2435
g3580
tp6979
I0
s(g10
g6902
tp6980
I-1
s(g291
S'worker_bee'
p6981
tp6982
I0
s(g768
S'sea_slug'
p6983
tp6984
I0
s(g353
g6647
tp6985
I1
s(g696
S'placebo'
p6986
tp6987
I1
s(g374
g2286
tp6988
I0
s(g1143
g1500
tp6989
I0
s(g1605
S'parable'
p6990
tp6991
I0
s(S'crispy'
p6992
g6203
tp6993
I0
s(g1511
g656
tp6994
I0
s(g2038
S'raconteur'
p6995
tp6996
I0
s(g983
S'video_game'
p6997
tp6998
I0
s(g438
S'sausage'
p6999
tp7000
I1
s(g1221
g584
tp7001
I-1
s(g1511
S'plow_horse'
p7002
tp7003
I0
s(g1143
g1038
tp7004
I0
s(g800
g700
tp7005
I0
s(g6652
g749
tp7006
I1
s(g1511
g1774
tp7007
I0
s(g16
g3302
tp7008
I1
s(g2266
g973
tp7009
I0
s(g510
S'mason_jar'
p7010
tp7011
I0
s(g1143
g1889
tp7012
I0
s(g133
g4867
tp7013
I0
s(g2313
S'turtle'
p7014
tp7015
I0
s(g699
g5182
tp7016
I0
s(g272
g26
tp7017
I0
s(g10
g839
tp7018
I1
s(g300
g4991
tp7019
I0
s(g37
S'microwave'
p7020
tp7021
I0
s(g114
g1278
tp7022
I0
s(g699
g5178
tp7023
I0
s(g353
S'battering_ram'
p7024
tp7025
I0
s(g1224
S'cymbal'
p7026
tp7027
I0
s(g28
S'soldier'
p7028
tp7029
I0
s(g689
S'rain'
p7030
tp7031
I1
s(g120
g439
tp7032
I1
s(g1596
g1401
tp7033
I0
s(g6992
g494
tp7034
I0
s(g136
g5399
tp7035
I0
s(g63
S'jail'
p7036
tp7037
I1
s(g1143
S'crypt'
p7038
tp7039
I0
s(g502
g6372
tp7040
I0
s(g789
g4422
tp7041
I0
s(g28
g4335
tp7042
I0
s(g545
S'candle'
p7043
tp7044
I0
s(g6099
S'harlot'
p7045
tp7046
I0
s(g160
g726
tp7047
I0
s(g545
g3178
tp7048
I0
s(g361
g3695
tp7049
I0
s(g272
g914
tp7050
I1
s(g414
S'question_mark'
p7051
tp7052
I0
s(g214
g3411
tp7053
I1
s(g133
S'leaf'
p7054
tp7055
I1
s(g789
g543
tp7056
I-1
s(g10
g644
tp7057
I0
s(S'developed'
p7058
S'quarter_horse'
p7059
tp7060
I0
s(g561
g1144
tp7061
I0
s(g332
g1331
tp7062
I0
s(g432
g4422
tp7063
I-1
s(g1497
g947
tp7064
I0
s(g166
S'mont_blanc'
p7065
tp7066
I0
s(g2221
g4497
tp7067
I0
s(g173
g1724
tp7068
I0
s(g114
g3519
tp7069
I-1
s(g524
g6794
tp7070
I0
s(g1307
g844
tp7071
I0
s(S'blunt'
p7072
S'axe'
p7073
tp7074
I0
s(g3228
g2693
tp7075
I0
s(g699
S'pincushion'
p7076
tp7077
I0
s(g31
S'jackson_pollock'
p7078
tp7079
I0
s(g300
S'pressure_cooker'
p7080
tp7081
I0
s(g114
g3039
tp7082
I0
s(g574
g1960
tp7083
I0
s(g361
g1564
tp7084
I0
s(g3474
g5129
tp7085
I1
s(g335
S'plumber'
p7086
tp7087
I0
s(g367
S'chocolate_bar'
p7088
tp7089
I0
s(g320
g2990
tp7090
I0
s(g220
S'weasel'
p7091
tp7092
I0
s(g574
g1215
tp7093
I0
s(g28
S'root'
p7094
tp7095
I1
s(g1342
g1397
tp7096
I0
s(g173
S'moth'
p7097
tp7098
I0
s(g432
g1133
tp7099
I0
s(g10
g2940
tp7100
I1
s(g1143
g2013
tp7101
I0
s(g1221
S'tomato'
p7102
tp7103
I0
s(g278
S'fruit_fly'
p7104
tp7105
I0
s(g120
S'gravestone'
p7106
tp7107
I1
s(g1629
S'scarf'
p7108
tp7109
I0
s(g1588
S'hunchback'
p7110
tp7111
I0
s(g768
S'sin'
p7112
tp7113
I0
s(g553
g4045
tp7114
I-1
s(g490
g1623
tp7115
I1
s(g4492
S'heroin_addict'
p7116
tp7117
I0
s(g114
g1911
tp7118
I-1
s(g5381
g488
tp7119
I0
s(g633
g333
tp7120
I0
s(g800
g3893
tp7121
I0
s(g78
g1003
tp7122
I0
s(g432
S'tack'
p7123
tp7124
I-1
s(g1221
S'filet_mignon'
p7125
tp7126
I0
s(g361
g6667
tp7127
I0
s(g3441
g2469
tp7128
I0
s(g320
g3511
tp7129
I0
s(g689
g2906
tp7130
I0
s(g1999
S'martini'
p7131
tp7132
I1
s(g1941
g240
tp7133
I-1
s(g2372
S'palace'
p7134
tp7135
I0
s(g335
g3719
tp7136
I0
s(g432
S'cabbage'
p7137
tp7138
I1
s(g1605
g3411
tp7139
I1
s(g696
S'cocoon'
p7140
tp7141
I0
s(g147
g1762
tp7142
I0
s(g1511
g4339
tp7143
I0
s(g3804
S'hydrangea'
p7144
tp7145
I1
s(g426
g623
tp7146
I1
s(g711
g3826
tp7147
I0
s(g176
S'melon'
p7148
tp7149
I-1
s(g28
S'fighter'
p7150
tp7151
I1
s(g2640
g6841
tp7152
I0
s(g281
S'documentary'
p7153
tp7154
I0
s(g1738
S'treatise'
p7155
tp7156
I0
s(g658
g3550
tp7157
I0
s(g364
S'kitty'
p7158
tp7159
I0
s(g874
g1608
tp7160
I0
s(g753
g1636
tp7161
I0
s(g1304
g1937
tp7162
I0
s(g604
S'jetliner'
p7163
tp7164
I0
s(g516
g1079
tp7165
I-1
s(g449
S'root'
p7166
tp7167
I1
s(g239
g3402
tp7168
I0
s(g1164
g6372
tp7169
I0
s(g3445
g1299
tp7170
I0
s(g646
g2404
tp7171
I0
s(g1695
g2496
tp7172
I1
s(g19
S'sledgehammer'
p7173
tp7174
I0
s(g338
g2465
tp7175
I1
s(g3441
S'abattoir'
p7176
tp7177
I0
s(g610
S'mongoose'
p7178
tp7179
I0
s(g40
g1450
tp7180
I0
s(g3171
S'funeral'
p7181
tp7182
I0
s(g40
g4142
tp7183
I0
s(g37
g952
tp7184
I-1
s(g2241
g4185
tp7185
I0
s(S'acrobatic'
p7186
g5384
tp7187
I0
s(g432
g1437
tp7188
I0
s(g1113
S'bedroom'
p7189
tp7190
I1
s(g438
S'telephone_book'
p7191
tp7192
I0
s(g341
g221
tp7193
I0
s(g6385
S'lobotomy'
p7194
tp7195
I-1
s(g658
g790
tp7196
I0
s(g1957
g2917
tp7197
I0
s(g136
g2050
tp7198
I0
s(g1504
S'insect'
p7199
tp7200
I0
s(g323
g6388
tp7201
I1
s(g1947
g2341
tp7202
I0
s(g31
g815
tp7203
I1
s(g385
S'charlie_parker'
p7204
tp7205
I0
s(g2752
g846
tp7206
I0
s(g553
g2836
tp7207
I0
s(g2695
S'puppet_show'
p7208
tp7209
I0
s(g160
g3650
tp7210
I1
s(g320
g2132
tp7211
I-1
s(g567
g1807
tp7212
I0
s(S'omnivorous'
p7213
g3623
tp7214
I-1
s(g704
S'refrigerator'
p7215
tp7216
I0
s(g133
S'teaspoon'
p7217
tp7218
I0
s(g332
g1374
tp7219
I-1
s(g214
S'lemon'
p7220
tp7221
I1
s(g3881
S'tightrope'
p7222
tp7223
I0
s(g1224
S'storm'
p7224
tp7225
I0
s(g708
g957
tp7226
I0
s(g1554
g3363
tp7227
I1
s(g1769
g837
tp7228
I0
s(g561
g2320
tp7229
I0
s(g233
g2188
tp7230
I0
s(g385
S'gymnast'
p7231
tp7232
I0
s(g2386
S'jackal'
p7233
tp7234
I0
s(g658
g1907
tp7235
I0
s(g604
g4732
tp7236
I0
s(g633
S'amoeba'
p7237
tp7238
I0
s(g75
S'sewer'
p7239
tp7240
I0
s(g1520
g2781
tp7241
I0
s(g117
g4745
tp7242
I0
s(g317
S'lark'
p7243
tp7244
I0
s(g1059
S'cheerleader'
p7245
tp7246
I0
s(g22
S"jacko'lantern"
p7247
tp7248
I0
s(g964
g1368
tp7249
I0
s(g220
g4854
tp7250
I1
s(g173
g4319
tp7251
I0
s(g214
S'switchblade'
p7252
tp7253
I0
s(g323
S'oil_change'
p7254
tp7255
I0
s(g722
g6299
tp7256
I0
s(g1674
g4193
tp7257
I1
s(g364
g672
tp7258
I0
s(g84
S'soul'
p7259
tp7260
I1
s(g236
g5131
tp7261
I1
s(g959
g2650
tp7262
I0
s(g31
g739
tp7263
I0
s(g120
g1015
tp7264
I1
s(g272
g2232
tp7265
I0
s(g1483
g5768
tp7266
I0
s(g432
g312
tp7267
I-1
s(g81
g649
tp7268
I0
s(g502
S'sump_pump'
p7269
tp7270
I0
s(g874
g2293
tp7271
I0
s(g684
S'apricot'
p7272
tp7273
I1
s(g31
S'bobby_pin'
p7274
tp7275
I1
s(g242
g664
tp7276
I-1
s(g300
g6083
tp7277
I1
s(g182
g2999
tp7278
I-1
s(g1603
g1177
tp7279
I0
s(g420
g3199
tp7280
I0
s(g789
g2296
tp7281
I0
s(g5439
S'failure'
p7282
tp7283
I0
s(g320
g3219
tp7284
I-1
s(g969
g2491
tp7285
I0
s(g432
g2426
tp7286
I0
s(g3441
g5611
tp7287
I0
s(g150
g1122
tp7288
I0
s(g385
S'ballerina'
p7289
tp7290
I0
s(g353
S'bison'
p7291
tp7292
I0
s(g332
g3396
tp7293
I-1
s(g349
g2286
tp7294
I0
s(g220
S'racehorse'
p7295
tp7296
I0
s(g1809
g2646
tp7297
I0
s(g510
g7080
tp7298
I0
s(g1019
g2465
tp7299
I0
s(g1021
g933
tp7300
I1
s(g123
S'microchip'
p7301
tp7302
I1
s(g28
S'haircut'
p7303
tp7304
I0
s(g3441
S'anvil'
p7305
tp7306
I1
s(g31
g1865
tp7307
I0
s(g139
g4045
tp7308
I-1
s(g1129
S'knife'
p7309
tp7310
I1
s(g906
S'string'
p7311
tp7312
I1
s(g111
g4894
tp7313
I0
s(g90
g5728
tp7314
I0
s(g361
S'marionette'
p7315
tp7316
I0
s(g604
g7295
tp7317
I0
s(g28
g4023
tp7318
I0
s(g545
g1038
tp7319
I0
s(g247
g3335
tp7320
I0
s(g272
g6427
tp7321
I0
s(g2717
g4602
tp7322
I0
s(S'brisk'
p7323
g1256
tp7324
I0
s(g1830
S'garden'
p7325
tp7326
I0
s(g45
g2693
tp7327
I0
s(g361
g1038
tp7328
I0
s(g432
g1347
tp7329
I0
s(g1209
g1693
tp7330
I0
s(g120
g2424
tp7331
I1
s(g789
g1907
tp7332
I0
s(g361
g1411
tp7333
I0
s(g10
g7150
tp7334
I-1
s(g636
g1313
tp7335
I0
s(g1827
S'rhino'
p7336
tp7337
I1
s(g173
S'seismograph'
p7338
tp7339
I1
s(g341
g1401
tp7340
I0
s(g31
g3287
tp7341
I-1
s(g269
S'surfboard'
p7342
tp7343
I0
s(g6065
S'barge'
p7344
tp7345
I0
s(g40
g6667
tp7346
I0
s(g768
S'mud'
p7347
tp7348
I0
s(g1
g664
tp7349
I-1
s(g1190
g3895
tp7350
I0
s(g1520
g6002
tp7351
I0
s(g361
g2494
tp7352
I0
s(g516
g819
tp7353
I0
s(g133
S'veil'
p7354
tp7355
I1
s(g604
g1282
tp7356
I0
s(g401
g1717
tp7357
I-1
s(g1301
g6209
tp7358
I1
s(g294
g572
tp7359
I-1
s(g133
S'smile'
p7360
tp7361
I0
s(g711
g1418
tp7362
I0
s(g63
g697
tp7363
I0
s(g247
g2818
tp7364
I0
s(g456
g6498
tp7365
I0
s(g269
S'telegraph_pole'
p7366
tp7367
I0
s(g758
S'highland'
p7368
tp7369
I0
s(g1129
g1540
tp7370
I1
s(g505
S'rainbow'
p7371
tp7372
I0
s(g1947
g3462
tp7373
I0
s(g28
S'hamster'
p7374
tp7375
I0
s(g474
S'clay_pipe'
p7376
tp7377
I0
s(g34
g2243
tp7378
I0
s(g353
g7106
tp7379
I0
s(g356
S'crystal_ball'
p7380
tp7381
I0
s(g136
g1562
tp7382
I0
s(g364
g2995
tp7383
I1
s(g493
S'snowdrop'
p7384
tp7385
I0
s(g510
g5095
tp7386
I-1
s(g99
S'feeling'
p7387
tp7388
I1
s(g114
g4656
tp7389
I0
s(g320
g6694
tp7390
I-1
s(g3085
S'lump_sum'
p7391
tp7392
I0
s(g684
g5896
tp7393
I0
s(g883
S'dung_beetle'
p7394
tp7395
I0
s(g1152
g4982
tp7396
I1
s(g300
g2365
tp7397
I0
s(g1888
g2761
tp7398
I0
s(g341
g215
tp7399
I0
s(g291
g41
tp7400
I0
s(g979
g7153
tp7401
I0
s(g5822
g1313
tp7402
I0
s(g223
g5464
tp7403
I0
s(g385
S'mountain_lion'
p7404
tp7405
I0
s(g300
g2523
tp7406
I0
s(g120
g2908
tp7407
I1
s(g753
g2663
tp7408
I0
s(g574
S'sledge'
p7409
tp7410
I0
s(g979
g1397
tp7411
I0
s(g1167
S'bedouin'
p7412
tp7413
I0
s(g269
g616
tp7414
I0
s(g553
g3174
tp7415
I0
s(g136
g2554
tp7416
I0
s(g699
S'tick'
p7417
tp7418
I0
s(g2241
g4394
tp7419
I0
s(g1342
S'cotton_candy'
p7420
tp7421
I0
s(g3676
g4376
tp7422
I1
s(g40
S'calf'
p7423
tp7424
I0
s(g789
g702
tp7425
I0
s(g247
g333
tp7426
I0
s(g502
g2343
tp7427
I0
s(g205
S'haircut'
p7428
tp7429
I0
s(g2759
S'guppy'
p7430
tp7431
I0
s(g385
S'cat_burglar'
p7432
tp7433
I0
s(g3256
g6251
tp7434
I0
s(g417
g4780
tp7435
I0
s(g404
g6023
tp7436
I0
s(g699
g3078
tp7437
I0
s(g1511
g4023
tp7438
I0
s(g1992
g4777
tp7439
I0
s(g31
g1749
tp7440
I0
s(g432
g6296
tp7441
I0
s(g75
g407
tp7442
I0
s(g432
g2550
tp7443
I1
s(g28
g839
tp7444
I0
s(g214
S'lens'
p7445
tp7446
I0
s(g758
g4391
tp7447
I0
s(g247
g1148
tp7448
I0
s(g913
g298
tp7449
I0
s(g1559
g6702
tp7450
I1
s(g19
g4748
tp7451
I-1
s(g335
g7269
tp7452
I0
s(g843
g405
tp7453
I0
s(g361
g4363
tp7454
I0
s(g633
S'clockwork'
p7455
tp7456
I0
s(g1511
g1853
tp7457
I0
s(g320
g3759
tp7458
I-1
s(g800
S'turkey'
p7459
tp7460
I0
s(g45
g4459
tp7461
I0
s(g31
g6296
tp7462
I0
s(S'neat'
p7463
g6949
tp7464
I0
s(g275
g2286
tp7465
I0
s(g1059
g2396
tp7466
I0
s(g2625
S'teddy_bear'
p7467
tp7468
I0
s(g305
S'beaver'
p7469
tp7470
I0
s(g120
S'cinder_block'
p7471
tp7472
I0
s(g3445
S'cotton_ball'
p7473
tp7474
I0
s(g37
S'pocket_calculator'
p7475
tp7476
I0
s(g10
g1586
tp7477
I0
s(g1078
g1044
tp7478
I0
s(g379
S'meatball'
p7479
tp7480
I0
s(g60
S'swamp'
p7481
tp7482
I-1
s(S'sparse'
p7483
S'convent'
p7484
tp7485
I0
s(g789
g4805
tp7486
I0
s(g294
g1751
tp7487
I0
s(g5367
g2564
tp7488
I0
s(g753
g169
tp7489
I1
s(g1695
g5982
tp7490
I1
s(g1118
g6807
tp7491
I1
s(g1467
S'highland'
p7492
tp7493
I0
s(g540
S'tramp'
p7494
tp7495
I1
s(g553
g588
tp7496
I0
s(g349
g5044
tp7497
I0
s(g5981
S'glass_eye'
p7498
tp7499
I0
s(g1769
g3485
tp7500
I-1
s(g972
g2932
tp7501
I0
s(g502
S'cowboy'
p7502
tp7503
I0
s(g493
S'snail'
p7504
tp7505
I0
s(g22
S'hoax'
p7506
tp7507
I1
s(g379
g3027
tp7508
I-1
s(g789
g312
tp7509
I-1
s(g1983
g326
tp7510
I0
s(g883
g488
tp7511
I0
s(g81
g200
tp7512
I0
s(g574
S'seedling'
p7513
tp7514
I-1
s(g1182
g937
tp7515
I1
s(g160
g4550
tp7516
I0
s(g223
g267
tp7517
I0
s(g1304
g851
tp7518
I0
s(g768
g4309
tp7519
I0
s(g297
S'unicycle'
p7520
tp7521
I0
s(g5610
g4875
tp7522
I0
s(g45
g1144
tp7523
I0
s(g699
g6040
tp7524
I0
s(g969
g1433
tp7525
I0
s(g639
g3814
tp7526
I0
s(g3732
g2198
tp7527
I0
s(g3685
S'cobra'
p7528
tp7529
I-1
s(g264
g5082
tp7530
I0
s(g782
g3229
tp7531
I0
s(g607
g359
tp7532
I0
s(g2030
S'beggar'
p7533
tp7534
I0
s(g1554
S'supercomputer'
p7535
tp7536
I0
s(g1052
S'swiss_cheese'
p7537
tp7538
I0
s(g261
g2054
tp7539
I0
s(g233
S'louse'
p7540
tp7541
I0
s(g239
g2269
tp7542
I1
s(g969
g6986
tp7543
I0
s(g604
g5030
tp7544
I0
s(g300
g4350
tp7545
I0
s(g618
g1680
tp7546
I1
s(g253
g2703
tp7547
I1
s(g160
S'logic_diagram'
p7548
tp7549
I0
s(g123
g5679
tp7550
I1
s(g133
g1926
tp7551
I1
s(g636
g5577
tp7552
I1
s(g136
g1282
tp7553
I0
s(g1129
g1015
tp7554
I1
s(g2981
S'stealth_fighter'
p7555
tp7556
I0
s(g123
g4829
tp7557
I1
s(g4731
S'bunny'
p7558
tp7559
I0
s(g1135
g4333
tp7560
I0
s(g4931
g2738
tp7561
I1
s(g545
g7076
tp7562
I0
s(g78
g35
tp7563
I1
s(g954
g851
tp7564
I-1
s(g269
g714
tp7565
I0
s(g753
g7028
tp7566
I0
s(g658
g3656
tp7567
I0
s(g711
S'bunker'
p7568
tp7569
I0
s(g758
g5591
tp7570
I0
s(g2981
g5180
tp7571
I1
s(g31
g4560
tp7572
I0
s(g2645
S'hotdog_bun'
p7573
tp7574
I0
s(g60
g5460
tp7575
I0
s(g188
S'cathedral'
p7576
tp7577
I0
s(g954
g4111
tp7578
I1
s(g485
g494
tp7579
I0
s(g223
S'crypt'
p7580
tp7581
I0
s(g574
g1819
tp7582
I0
s(g1467
g5781
tp7583
I0
s(g3855
S'doorpost'
p7584
tp7585
I0
s(g320
g1055
tp7586
I0
s(S'virile'
p7587
S'vicar'
p7588
tp7589
I0
s(g883
g3367
tp7590
I0
s(g789
g866
tp7591
I-1
s(g2150
g960
tp7592
I0
s(g242
g4086
tp7593
I1
s(g633
S'fossil'
p7594
tp7595
I0
s(g361
g6764
tp7596
I0
s(g361
g85
tp7597
I0
s(g633
S'tuning_fork'
p7598
tp7599
I0
s(g160
S'fossil'
p7600
tp7601
I0
s(g136
g749
tp7602
I0
s(g426
S'doornail'
p7603
tp7604
I0
s(g1021
S'songbird'
p7605
tp7606
I0
s(g155
S'harvest_moon'
p7607
tp7608
I0
s(g596
g1502
tp7609
I1
s(g1307
g1196
tp7610
I0
s(g1342
S'movie'
p7611
tp7612
I0
s(g2234
g3814
tp7613
I0
s(g335
g1409
tp7614
I0
s(g449
g6797
tp7615
I0
s(g338
S'barnacle'
p7616
tp7617
I0
s(g417
g1215
tp7618
I-1
s(g1050
g1258
tp7619
I0
s(g31
g4567
tp7620
I0
s(g1511
g916
tp7621
I0
s(g449
g52
tp7622
I0
s(g320
g2561
tp7623
I0
s(g510
g4303
tp7624
I0
s(g72
g7030
tp7625
I1
s(g502
g2757
tp7626
I0
s(g420
g1087
tp7627
I0
s(g722
g790
tp7628
I0
s(g37
g6667
tp7629
I0
s(g320
g1031
tp7630
I-1
s(g239
g3373
tp7631
I0
s(g449
g1784
tp7632
I0
s(g1554
S'metropolis'
p7633
tp7634
I-1
s(g883
S'ant'
p7635
tp7636
I0
s(g72
S'marsh'
p7637
tp7638
I1
s(g432
g855
tp7639
I1
s(g40
S'ape'
p7640
tp7641
I0
s(g1062
g3206
tp7642
I0
s(g2221
g402
tp7643
I0
s(g31
g1321
tp7644
I0
s(g361
S'vicar'
p7645
tp7646
I0
s(g800
g4335
tp7647
I0
s(g233
g3860
tp7648
I0
s(g943
S'typhoon'
p7649
tp7650
I0
s(g3676
g4131
tp7651
I0
s(g1888
g1029
tp7652
I0
s(g361
S'hardtop'
p7653
tp7654
I0
s(g1304
g1044
tp7655
I0
s(g361
g259
tp7656
I0
s(g54
S'artisan'
p7657
tp7658
I-1
s(g272
g7649
tp7659
I1
s(g1957
g3746
tp7660
I0
s(g31
g6468
tp7661
I-1
s(g300
g1201
tp7662
I0
s(g1629
g2205
tp7663
I0
s(g300
g5112
tp7664
I0
s(g731
g158
tp7665
I-1
s(g1069
S'artist'
p7666
tp7667
I1
s(g3837
g2761
tp7668
I0
s(g3441
g4668
tp7669
I1
s(g553
g1087
tp7670
I0
s(g16
g2254
tp7671
I1
s(g577
S'coward'
p7672
tp7673
I1
s(g63
g977
tp7674
I1
s(g1
g2836
tp7675
I0
s(g843
g1196
tp7676
I0
s(g556
g3470
tp7677
I0
s(g474
g2491
tp7678
I0
s(g708
g6667
tp7679
I0
s(g561
g1661
tp7680
I0
s(g1769
g1196
tp7681
I0
s(S'sick'
p7682
g6599
tp7683
I0
s(g689
g3076
tp7684
I0
s(g3553
g308
tp7685
I0
s(g160
S'clamp'
p7686
tp7687
I0
s(g272
g298
tp7688
I0
s(g2391
S'automobile_race'
p7689
tp7690
I0
s(g233
S'mud'
p7691
tp7692
I0
s(g233
S'caterpillar'
p7693
tp7694
I0
s(g223
S'picture'
p7695
tp7696
I1
s(g789
g11
tp7697
I-1
s(g969
S'ghost_town'
p7698
tp7699
I0
s(g658
g1184
tp7700
I0
s(g3021
S'lumberjack'
p7701
tp7702
I1
s(g320
g5435
tp7703
I0
s(g1473
S'megaton_bomb'
p7704
tp7705
I0
s(g147
g2818
tp7706
I0
s(g1
g1972
tp7707
I0
s(g1605
S'pike'
p7708
tp7709
I1
s(g40
g2217
tp7710
I-1
s(g946
S'madonna'
p7711
tp7712
I0
s(g300
g723
tp7713
I0
s(g618
g6557
tp7714
I1
s(g1307
g200
tp7715
I1
s(g379
S'ball_bearing'
p7716
tp7717
I0
s(g768
g1294
tp7718
I0
s(g31
g3070
tp7719
I-1
s(g502
g433
tp7720
I0
s(g374
g370
tp7721
I0
s(g120
g6427
tp7722
I1
s(g395
g7701
tp7723
I0
s(g432
g7274
tp7724
I1
s(g432
g5100
tp7725
I-1
s(g2221
g2729
tp7726
I0
s(g114
g6212
tp7727
I0
s(g874
g5744
tp7728
I0
s(g1588
S'counterfeiter'
p7729
tp7730
I0
s(g699
g6906
tp7731
I0
s(g2221
g2099
tp7732
I1
s(g323
g5322
tp7733
I0
s(g658
g723
tp7734
I0
s(g722
g2132
tp7735
I-1
s(g646
g3121
tp7736
I0
s(g722
g2463
tp7737
I0
s(g81
g292
tp7738
I-1
s(g731
S'neutron_star'
p7739
tp7740
I0
s(g16
g4454
tp7741
I0
s(g40
g1144
tp7742
I0
s(g320
g4062
tp7743
I-1
s(g2669
g457
tp7744
I-1
s(g449
g106
tp7745
I1
s(g361
g3369
tp7746
I0
s(g689
g7243
tp7747
I0
s(g1
g709
tp7748
I0
s(S'weak'
p7749
g541
tp7750
I0
s(g3645
g1540
tp7751
I1
s(g5024
S'birth'
p7752
tp7753
I0
s(g574
S'crane'
p7754
tp7755
I0
s(g317
g5105
tp7756
I0
s(g2030
g1207
tp7757
I0
s(g883
g2502
tp7758
I0
s(g233
g6676
tp7759
I0
s(g753
g1819
tp7760
I0
s(g505
S'paper_clip'
p7761
tp7762
I0
s(g19
g6807
tp7763
I1
s(g449
g996
tp7764
I1
s(g1167
S'sieve'
p7765
tp7766
I0
s(g335
g7502
tp7767
I0
s(g3171
S'lattice'
p7768
tp7769
I0
s(g1190
g2148
tp7770
I0
s(g722
g702
tp7771
I0
s(g510
g6704
tp7772
I0
s(g361
g396
tp7773
I0
s(g284
g6265
tp7774
I1
s(g883
S'hearse'
p7775
tp7776
I0
s(g182
g694
tp7777
I0
s(g432
g1031
tp7778
I-1
s(g3318
g4370
tp7779
I0
s(g1342
g7153
tp7780
I0
s(g1342
g3508
tp7781
I0
s(g395
g2795
tp7782
I0
s(g1315
S'hockey_puck'
p7783
tp7784
I0
s(g87
S'nun'
p7785
tp7786
I0
s(g4426
S'baseball_game'
p7787
tp7788
I0
s(g449
g1462
tp7789
I0
s(g490
S'waft'
p7790
tp7791
I0
s(g789
g1184
tp7792
I0
s(g1164
g1418
tp7793
I0
s(g824
S'cave'
p7794
tp7795
I0
s(g142
g1443
tp7796
I-1
s(g596
g2304
tp7797
I1
s(g111
S'card_catalogue'
p7798
tp7799
I0
s(g7
S'mayfly'
p7800
tp7801
I0
s(g155
S'tick'
p7802
tp7803
I0
s(g3168
g4856
tp7804
I0
s(g449
S'matron'
p7805
tp7806
I0
s(g1888
g7259
tp7807
I0
s(g906
S'yogi'
p7808
tp7809
I0
s(g320
g7123
tp7810
I1
s(g166
S'racing_yacht'
p7811
tp7812
I0
s(g906
g67
tp7813
I0
s(g233
S'harp_seal'
p7814
tp7815
I0
s(g338
S'girdle'
p7816
tp7817
I1
s(g2458
g1751
tp7818
I0
s(g320
g802
tp7819
I0
s(g1941
g594
tp7820
I0
s(g1182
g1201
tp7821
I0
s(g233
S'war_zone'
p7822
tp7823
I0
s(g361
g5295
tp7824
I0
s(g789
g464
tp7825
I0
s(g983
S'dream'
p7826
tp7827
I0
s(g272
S'twister'
p7828
tp7829
I1
s(g1494
g6138
tp7830
I1
s(g320
g7274
tp7831
I0
s(g1386
S'girl'
p7832
tp7833
I0
s(g90
g5243
tp7834
I0
s(g1307
g1770
tp7835
I0
s(g722
g2296
tp7836
I0
s(g3855
g1592
tp7837
I0
s(g269
g2967
tp7838
I0
s(g1069
g1191
tp7839
I0
s(g291
g839
tp7840
I0
s(g2165
S'machine'
p7841
tp7842
I1
s(g10
g402
tp7843
I0
s(g3021
g1468
tp7844
I0
s(g1342
g1403
tp7845
I0
s(g6992
g415
tp7846
I0
s(g332
g6030
tp7847
I0
s(g426
g714
tp7848
I1
s(g385
S'dolphin'
p7849
tp7850
I0
s(g857
S'tortoise'
p7851
tp7852
I0
s(g40
g6764
tp7853
I0
s(g1275
g295
tp7854
I-1
s(g147
g1144
tp7855
I0
s(g510
g5298
tp7856
I0
s(g51
g1693
tp7857
I0
s(g341
g1851
tp7858
I0
s(g1301
S'truck_stop'
p7859
tp7860
I0
s(g291
g2013
tp7861
I0
s(g5561
S'miracle'
p7862
tp7863
I1
s(g1253
g1217
tp7864
I0
s(g618
S'ear_lobe'
p7865
tp7866
I0
s(g1275
g5435
tp7867
I1
s(g117
g2057
tp7868
I0
s(g361
g2506
tp7869
I0
s(g269
S'broomstick'
p7870
tp7871
I0
s(g658
g4805
tp7872
I0
s(g1035
g3814
tp7873
I0
s(g646
g285
tp7874
I-1
s(g2165
g602
tp7875
I1
s(g658
g866
tp7876
I0
s(g768
S'wart'
p7877
tp7878
I0
s(g22
g4574
tp7879
I0
s(g188
g3136
tp7880
I0
s(g1027
S'pentagon'
p7881
tp7882
I0
s(g374
S'spitfire'
p7883
tp7884
I0
s(g1243
g3237
tp7885
I0
s(g75
S'ditch_digger'
p7886
tp7887
I0
s(g136
g4849
tp7888
I0
s(g1467
S'slaver'
p7889
tp7890
I0
s(g278
S'mouse'
p7891
tp7892
I0
s(g1152
g350
tp7893
I1
s(g1190
g675
tp7894
I0
s(g72
S'herring'
p7895
tp7896
I1
s(g37
g1239
tp7897
I0
s(g906
g2602
tp7898
I0
s(g87
g1659
tp7899
I1
s(g136
S'swordsman'
p7900
tp7901
I0
s(g3645
g2547
tp7902
I1
s(g166
g35
tp7903
I0
s(g1190
g4837
tp7904
I0
s(g284
g694
tp7905
I1
s(g561
g3308
tp7906
I0
s(g2331
g2412
tp7907
I1
s(g1143
g916
tp7908
I0
s(g45
g2795
tp7909
I0
s(g361
g1247
tp7910
I0
s(g173
S'ladybird'
p7911
tp7912
I0
s(g341
g935
tp7913
I0
s(g3553
g3826
tp7914
I0
s(g40
g1258
tp7915
I0
s(g874
g5332
tp7916
I0
s(g284
g2293
tp7917
I0
s(g300
g1514
tp7918
I0
s(g768
S'blister'
p7919
tp7920
I0
s(g1027
g766
tp7921
I-1
s(g618
S'blanket'
p7922
tp7923
I1
s(g731
S'monument'
p7924
tp7925
I1
s(g753
S'gym_rat'
p7926
tp7927
I0
s(g72
g3430
tp7928
I0
s(g1888
S'bacteria'
p7929
tp7930
I0
s(g420
g546
tp7931
I0
s(g1221
g476
tp7932
I0
s(g951
g2975
tp7933
I0
s(g214
S'steel_trap'
p7934
tp7935
I0
s(g432
g2867
tp7936
I0
s(g633
g916
tp7937
I0
s(g317
g1623
tp7938
I1
s(g364
g4713
tp7939
I0
s(g361
S'plate'
p7940
tp7941
I0
s(g40
g402
tp7942
I1
s(g502
g3101
tp7943
I0
s(g300
g1127
tp7944
I-1
s(g284
g2170
tp7945
I0
s(g332
g1215
tp7946
I0
s(g432
g4324
tp7947
I-1
s(g1556
g4376
tp7948
I1
s(g269
g3326
tp7949
I0
s(g4257
g2050
tp7950
I0
s(g5771
S'laugh_track'
p7951
tp7952
I0
s(g432
g4560
tp7953
I0
s(g48
g2688
tp7954
I0
s(g604
g4588
tp7955
I0
s(g711
g3554
tp7956
I0
s(g34
g137
tp7957
I1
s(g1164
g957
tp7958
I-1
s(g40
g2516
tp7959
I0
s(g883
g2424
tp7960
I0
s(g320
g937
tp7961
I-1
s(g954
g3121
tp7962
I0
s(g114
g6002
tp7963
I-1
s(g438
g3973
tp7964
I0
s(g972
S'raft'
p7965
tp7966
I1
s(g758
S'grater'
p7967
tp7968
I0
s(g320
g1872
tp7969
I0
s(g969
g2311
tp7970
I0
s(g3171
S'library'
p7971
tp7972
I0
s(g843
g654
tp7973
I0
s(g335
g1749
tp7974
I0
s(g45
g3988
tp7975
I0
s(g1547
S'dump'
p7976
tp7977
I0
s(g133
g2581
tp7978
I0
s(g63
g2804
tp7979
I0
s(g2391
S'microwave'
p7980
tp7981
I0
s(g674
S'swimmer'
p7982
tp7983
I0
s(g117
g3615
tp7984
I1
s(g160
S'telegraph_post'
p7985
tp7986
I0
s(g264
g1564
tp7987
I0
s(g789
g1566
tp7988
I0
s(g31
g49
tp7989
I0
s(g120
g298
tp7990
I0
s(g139
g6391
tp7991
I0
s(g604
g5882
tp7992
I1
s(g173
g4223
tp7993
I1
s(g3021
g396
tp7994
I0
s(g420
S'wombat'
p7995
tp7996
I0
s(g2508
g2637
tp7997
I0
s(g1182
g1079
tp7998
I1
s(g2386
g1003
tp7999
I0
s(g236
S'mainframe_computer'
p8000
tp8001
I1
s(g320
g1749
tp8002
I1
s(g758
S'squall'
p8003
tp8004
I0
s(g269
g1371
tp8005
I1
s(g1304
g1188
tp8006
I0
s(g2241
g2771
tp8007
I0
s(g3855
S'tree_stump'
p8008
tp8009
I0
s(g1021
S'plant'
p8010
tp8011
I1
s(g25
g996
tp8012
I0
s(g40
g1157
tp8013
I-1
s(g946
S'prima_donna'
p8014
tp8015
I0
s(g374
g2992
tp8016
I1
s(g28
g2463
tp8017
I0
s(g1052
S'tin_can'
p8018
tp8019
I1
s(g398
g996
tp8020
I0
s(g646
g2975
tp8021
I-1
s(g37
S'donkey_cart'
p8022
tp8023
I0
s(g1947
g6787
tp8024
I0
s(g16
g2927
tp8025
I0
s(g1182
g1044
tp8026
I0
s(g2435
g3726
tp8027
I0
s(g646
g2806
tp8028
I0
s(g1947
S'paperclip'
p8029
tp8030
I0
s(g1483
g5982
tp8031
I0
s(g242
g2643
tp8032
I0
s(g133
g2576
tp8033
I1
s(g117
g1017
tp8034
I0
s(g45
g1038
tp8035
I0
s(g1511
g1500
tp8036
I0
s(g31
g1981
tp8037
I0
s(g490
S'fruit_fly'
p8038
tp8039
I0
s(g516
g4780
tp8040
I0
s(g3837
S'hairball'
p8041
tp8042
I0
s(g332
g4275
tp8043
I0
s(g490
g4982
tp8044
I1
s(g432
g4921
tp8045
I-1
s(g1027
g1057
tp8046
I-1
s(g278
g654
tp8047
I0
s(g674
g1951
tp8048
I0
s(g708
g1033
tp8049
I0
s(g604
S'meteor'
p8050
tp8051
I1
s(g31
g694
tp8052
I-1
s(g529
S'broiler'
p8053
tp8054
I0
s(g883
S'oil_tanker'
p8055
tp8056
I0
s(g269
g623
tp8057
I0
s(g114
g3950
tp8058
I0
s(g529
S'tripledecker'
p8059
tp8060
I0
s(g1709
S'lady'
p8061
tp8062
I0
s(g4
g6588
tp8063
I-1
s(g2150
S'sunday_school'
p8064
tp8065
I0
s(g2372
S'whistle'
p8066
tp8067
I0
s(g108
g2304
tp8068
I1
s(g320
S'donut'
p8069
tp8070
I0
s(g2985
S'oyster'
p8071
tp8072
I0
s(g3633
S'marathon'
p8073
tp8074
I0
s(g6172
g7336
tp8075
I0
s(g323
S'engine_block'
p8076
tp8077
I0
s(g658
g1007
tp8078
I0
s(g883
S'turtle'
p8079
tp8080
I0
s(g1
g644
tp8081
I0
s(g123
g318
tp8082
I1
s(g341
g1191
tp8083
I0
s(g731
S'electron'
p8084
tp8085
I1
s(g338
g4430
tp8086
I0
s(g699
g3869
tp8087
I0
s(g658
g5080
tp8088
I0
s(g60
S'sink'
p8089
tp8090
I-1
s(g636
g488
tp8091
I0
s(g596
S'forklift'
p8092
tp8093
I0
s(g449
g4956
tp8094
I1
s(g3732
g6413
tp8095
I0
s(g1806
g568
tp8096
I0
s(g133
g1659
tp8097
I1
s(g574
S'rosebush'
p8098
tp8099
I0
s(g3637
S'steroid'
p8100
tp8101
I-1
s(g1605
S'ice_pick'
p8102
tp8103
I1
s(g699
g5460
tp8104
I0
s(S'evaporative'
p8105
g2198
tp8106
I0
s(g699
g208
tp8107
I0
s(g883
g5982
tp8108
I0
s(g272
g4602
tp8109
I1
s(g1554
S'cpu'
p8110
tp8111
I0
s(g1764
g764
tp8112
I0
s(g108
g4487
tp8113
I0
s(g341
g672
tp8114
I0
s(g3855
g6271
tp8115
I0
s(g1983
g933
tp8116
I0
s(g338
S'tourniquet'
p8117
tp8118
I0
s(g1
g5541
tp8119
I-1
s(g253
g3379
tp8120
I0
s(g1629
g167
tp8121
I0
s(g13
g920
tp8122
I0
s(g1170
S'mosquito_bite'
p8123
tp8124
I0
s(g1957
S'donkey_cart'
p8125
tp8126
I0
s(g1182
g1749
tp8127
I1
s(g1352
S'hamburger'
p8128
tp8129
I0
s(g519
g1654
tp8130
I1
s(g758
S'rasp'
p8131
tp8132
I0
s(g789
g2036
tp8133
I0
s(g2458
g844
tp8134
I0
s(g1050
g916
tp8135
I0
s(g490
S'mosquito'
p8136
tp8137
I0
s(g28
g2663
tp8138
I1
s(g223
g3973
tp8139
I0
s(g1304
g1877
tp8140
I0
s(g969
g6413
tp8141
I0
s(g753
g1450
tp8142
I0
s(g264
g118
tp8143
I0
s(g1888
g3260
tp8144
I0
s(g335
g503
tp8145
I0
s(g320
g1843
tp8146
I0
s(g194
g174
tp8147
I0
s(g883
S'wombat'
p8148
tp8149
I0
s(g3553
g1987
tp8150
I0
s(g173
g5243
tp8151
I1
s(g763
g1256
tp8152
I-1
s(g108
g1122
tp8153
I0
s(g545
g3060
tp8154
I0
s(g1027
S'parable'
p8155
tp8156
I0
s(g320
g4567
tp8157
I0
s(g31
g1564
tp8158
I0
s(g2221
g580
tp8159
I0
s(g553
g6391
tp8160
I1
s(g266
g1022
tp8161
I0
s(g478
g2745
tp8162
I0
s(g1129
g2771
tp8163
I1
s(g699
g177
tp8164
I0
s(g561
g2867
tp8165
I0
s(g114
g5541
tp8166
I-1
s(g1888
g1162
tp8167
I0
s(g25
g1122
tp8168
I0
s(g432
g5593
tp8169
I0
s(g1992
g7761
tp8170
I0
s(g618
g5120
tp8171
I1
s(g1520
g200
tp8172
I0
s(g236
S'spaceship'
p8173
tp8174
I1
s(g2281
S'government_bond'
p8175
tp8176
I0
s(g604
g221
tp8177
I0
s(g2147
g342
tp8178
I1
s(g420
g1636
tp8179
I0
s(g323
g7716
tp8180
I0
s(g540
g1254
tp8181
I0
s(g133
g1594
tp8182
I1
s(g561
g775
tp8183
I1
s(g607
g3204
tp8184
I1
s(g1129
g1577
tp8185
I0
s(g3881
S'crossbow'
p8186
tp8187
I0
s(g75
S'tinker'
p8188
tp8189
I0
s(g173
S'french_pastry'
p8190
tp8191
I1
s(g540
g3096
tp8192
I0
s(g31
g3744
tp8193
I0
s(g574
g4116
tp8194
I-1
s(g173
S'seashell'
p8195
tp8196
I0
s(g2458
g251
tp8197
I0
s(g646
g2293
tp8198
I0
s(g1764
g920
tp8199
I0
s(g449
g4391
tp8200
I0
s(g7682
g6676
tp8201
I0
s(g2372
g6483
tp8202
I0
s(g374
g5730
tp8203
I1
s(g808
g5322
tp8204
I1
s(g722
g659
tp8205
I0
s(g1129
g7024
tp8206
I0
s(S'messy'
p8207
S'hospital_room'
p8208
tp8209
I0
s(g1027
S'steeple'
p8210
tp8211
I-1
s(g99
g457
tp8212
I0
s(g269
g2771
tp8213
I1
s(g45
g243
tp8214
I0
s(g139
g4275
tp8215
I0
s(g142
S'gun'
p8216
tp8217
I0
s(g1738
S'core_dump'
p8218
tp8219
I0
s(g731
g5352
tp8220
I0
s(g176
g692
tp8221
I0
s(g1035
S'hyena'
p8222
tp8223
I0
s(g2281
S'treasury_bond'
p8224
tp8225
I0
s(g438
g3430
tp8226
I0
s(g969
g6841
tp8227
I0
s(g741
S'scar'
p8228
tp8229
I-1
s(g356
g8066
tp8230
I0
s(g1304
g2975
tp8231
I0
s(g3311
g664
tp8232
I1
s(g1164
g1853
tp8233
I0
s(g1352
S'apple'
p8234
tp8235
I0
s(g817
g716
tp8236
I0
s(g1511
g396
tp8237
I0
s(g31
S'colt'
p8238
tp8239
I0
s(g438
g4485
tp8240
I0
s(g136
g718
tp8241
I0
s(g3021
S'cabin'
p8242
tp8243
I0
s(g16
S'telephone_pole'
p8244
tp8245
I0
s(g722
g4805
tp8246
I0
s(g3690
g996
tp8247
I1
s(g341
S'mamba'
p8248
tp8249
I0
s(g1307
g3485
tp8250
I-1
s(g261
S'duck'
p8251
tp8252
I0
s(g1098
S'administrator'
p8253
tp8254
I0
s(g490
g2496
tp8255
I0
s(g711
g825
tp8256
I-1
s(g524
S'feeling'
p8257
tp8258
I1
s(g3021
g928
tp8259
I0
s(g1035
S'cossack'
p8260
tp8261
I0
s(g946
g6274
tp8262
I0
s(g37
S'race_car'
p8263
tp8264
I0
s(g332
g1721
tp8265
I1
s(g220
g342
tp8266
I0
s(g173
S'daddy_longlegs'
p8267
tp8268
I0
s(S'tactile'
p8269
S'gypsy_moth'
p8270
tp8271
I0
s(g5304
S'dromedary'
p8272
tp8273
I0
s(g16
g1926
tp8274
I0
s(g758
S'hedge'
p8275
tp8276
I0
s(g529
S'sirloin'
p8277
tp8278
I0
s(g217
S'bra'
p8279
tp8280
I-1
s(g90
S'buzzard'
p8281
tp8282
I0
s(g1483
S'lima_bean'
p8283
tp8284
I0
s(g3256
g1636
tp8285
I-1
s(g300
g1839
tp8286
I1
s(S'rugged'
p8287
S'fashion_model'
p8288
tp8289
I0
s(g214
g864
tp8290
I0
s(g3171
S'fire_drill'
p8291
tp8292
I0
s(g954
g5504
tp8293
I-1
s(g173
g2637
tp8294
I1
s(g108
g126
tp8295
I0
s(g173
S'wind_chime'
p8296
tp8297
I0
s(g120
g3050
tp8298
I1
s(g577
g3933
tp8299
I0
s(g176
S'grape'
p8300
tp8301
I0
s(g843
g3485
tp8302
I-1
s(g2645
g3769
tp8303
I0
s(g155
g4837
tp8304
I0
s(g979
g1079
tp8305
I0
s(g353
g2771
tp8306
I1
s(g516
g1215
tp8307
I0
s(g633
S'telegraph_post'
p8308
tp8309
I0
s(g220
S'pocket_calculator'
p8310
tp8311
I0
s(g1497
S'duchess'
p8312
tp8313
I0
s(g37
S'raptor'
p8314
tp8315
I0
s(g1467
g3219
tp8316
I0
s(g160
S'clockwork'
p8317
tp8318
I0
s(g604
g672
tp8319
I0
s(g449
g3460
tp8320
I0
s(g954
g4265
tp8321
I0
s(g2241
g933
tp8322
I1
s(g432
g4245
tp8323
I-1
s(g16
g7366
tp8324
I0
s(g3011
S'milk_cow'
p8325
tp8326
I0
s(g502
g3573
tp8327
I0
s(g114
g664
tp8328
I-1
s(g242
g1038
tp8329
I0
s(g789
g522
tp8330
I0
s(g674
S'sportsman'
p8331
tp8332
I0
s(g1143
g664
tp8333
I1
s(g2894
g6299
tp8334
I0
s(g658
g2153
tp8335
I0
s(g1947
g4004
tp8336
I0
s(g84
g4574
tp8337
I0
s(g1497
g672
tp8338
I0
s(g432
g3652
tp8339
I0
s(g3685
g2219
tp8340
I0
s(g63
g1736
tp8341
I1
s(g242
g1661
tp8342
I-1
s(g1605
g2412
tp8343
I1
s(g19
g418
tp8344
I0
s(g272
S'viking'
p8345
tp8346
I0
s(g1827
g4285
tp8347
I0
s(g60
S'seashore'
p8348
tp8349
I0
s(g364
S'rice_paper'
p8350
tp8351
I0
s(g789
g2153
tp8352
I0
s(g281
g664
tp8353
I-1
s(g689
g3764
tp8354
I1
s(g1596
S'anaconda'
p8355
tp8356
I0
s(g275
S'billy_goat'
p8357
tp8358
I0
s(g3676
S'tree_trunk'
p8359
tp8360
I0
s(g320
g1564
tp8361
I0
s(g214
S'scimitar'
p8362
tp8363
I0
s(g607
S'shire_horse'
p8364
tp8365
I0
s(g1947
g957
tp8366
I0
s(g63
S'jail_cell'
p8367
tp8368
I1
s(g320
g1776
tp8369
I0
s(g40
g649
tp8370
I0
s(g31
g1207
tp8371
I0
s(g561
g2795
tp8372
I1
s(g1264
S'mole'
p8373
tp8374
I0
s(g699
g472
tp8375
I1
s(g1554
S'library_catalog'
p8376
tp8377
I0
s(g242
g2795
tp8378
I-1
s(g1574
S'cesspool'
p8379
tp8380
I0
s(g40
S'viking'
p8381
tp8382
I0
s(g5058
g970
tp8383
I1
s(g320
g5500
tp8384
I0
s(g601
g1659
tp8385
I1
s(g1143
g1981
tp8386
I0
s(g1209
S'android'
p8387
tp8388
I0
s(g633
S'logic_diagram'
p8389
tp8390
I0
s(g37
g6927
tp8391
I0
s(g139
S'maggot'
p8392
tp8393
I0
s(g2931
S'sandal'
p8394
tp8395
I0
s(g1
g4675
tp8396
I0
s(g214
g3697
tp8397
I-1
s(g60
g6391
tp8398
I-1
s(g34
g672
tp8399
I0
s(g220
S'eye_blink'
p8400
tp8401
I0
s(g689
g5123
tp8402
I1
s(g3131
S'dessert'
p8403
tp8404
I-1
s(g1504
g1094
tp8405
I0
s(g7682
g5982
tp8406
I0
s(g1129
S'heavyweight'
p8407
tp8408
I1
s(g40
g1079
tp8409
I-1
s(g123
S'flower_stalk'
p8410
tp8411
I0
s(g99
g1790
tp8412
I0
s(g1002
S'vehicle'
p8413
tp8414
I1
s(g474
g2271
tp8415
I-1
s(g417
g1848
tp8416
I0
s(g220
S'hair_trigger'
p8417
tp8418
I0
s(g1834
g3270
tp8419
I-1
s(g1554
g1399
tp8420
I-1
s(g561
g3988
tp8421
I0
s(g19
g49
tp8422
I0
s(g564
S'hymn'
p8423
tp8424
I0
s(g81
g578
tp8425
I0
s(g540
g7014
tp8426
I0
s(g220
g718
tp8427
I0
s(g338
S'miser'
p8428
tp8429
I0
s(g789
g981
tp8430
I0
s(g361
g916
tp8431
I0
s(g111
S'polka_dot'
p8432
tp8433
I0
s(g220
S'cougar'
p8434
tp8435
I0
s(g31
g2586
tp8436
I0
s(g604
g1012
tp8437
I1
s(g3622
g3695
tp8438
I-1
s(g432
g981
tp8439
I-1
s(g722
g472
tp8440
I0
s(g1264
g5072
tp8441
I0
s(g233
g1719
tp8442
I0
s(g1167
g1262
tp8443
I0
s(g320
g1260
tp8444
I-1
s(g561
g5716
tp8445
I0
s(g5528
g6106
tp8446
I-1
s(g108
g52
tp8447
I0
s(g1941
S'herring'
p8448
tp8449
I0
s(g5149
g962
tp8450
I0
s(g553
g6030
tp8451
I0
s(g3131
g3886
tp8452
I-1
s(g320
g312
tp8453
I-1
s(g37
g7528
tp8454
I0
s(g353
g1177
tp8455
I-1
s(g3645
g7024
tp8456
I0
s(g681
g6002
tp8457
I0
s(g99
g7259
tp8458
I1
s(g239
g2557
tp8459
I0
s(g34
g2286
tp8460
I0
s(g272
S'dump_truck'
p8461
tp8462
I0
s(g2458
g654
tp8463
I0
s(g699
g3098
tp8464
I1
s(g658
g4324
tp8465
I0
s(g1027
S'ice_pick'
p8466
tp8467
I-1
s(g2165
g3299
tp8468
I0
s(g1021
g6425
tp8469
I1
s(g332
g1642
tp8470
I-1
s(g223
g726
tp8471
I0
s(g574
g1345
tp8472
I0
s(g217
S'lily_pad'
p8473
tp8474
I0
s(g1764
S'cocktail_party'
p8475
tp8476
I0
s(g1014
g1333
tp8477
I0
s(g4492
S'earthquake'
p8478
tp8479
I0
s(g239
g8448
tp8480
I1
s(g3441
g626
tp8481
I0
s(g429
g3567
tp8482
I0
s(g722
g5080
tp8483
I-1
s(g946
S'snake_charmer'
p8484
tp8485
I0
s(g37
g578
tp8486
I0
s(g3594
S'stapler'
p8487
tp8488
I0
s(g199
S'cheerleader'
p8489
tp8490
I0
s(g1547
S'clown'
p8491
tp8492
I0
s(g1304
g1201
tp8493
I0
s(g1559
g2148
tp8494
I0
s(g1473
S'petrol_bomb'
p8495
tp8496
I0
s(g2597
g5986
tp8497
I0
s(S'rigid'
p8498
S'amoeba'
p8499
tp8500
I0
s(g1304
g955
tp8501
I0
s(g214
S'engraver'
p8502
tp8503
I0
s(g37
g169
tp8504
I0
s(g1957
g1171
tp8505
I0
s(g278
S'schoolgirl'
p8506
tp8507
I0
s(g395
g3022
tp8508
I0
s(g147
g433
tp8509
I0
s(g272
g5246
tp8510
I0
s(g646
g3630
tp8511
I0
s(g1143
g2530
tp8512
I0
s(g3645
g2932
tp8513
I0
s(g108
g6702
tp8514
I1
s(g6141
g6797
tp8515
I0
s(g220
g1191
tp8516
I1
s(g361
S'twig'
p8517
tp8518
I0
s(g1164
g1774
tp8519
I0
s(g294
g1848
tp8520
I0
s(g136
S'stork'
p8521
tp8522
I1
s(g1143
g1321
tp8523
I0
s(g385
S'bird'
p8524
tp8525
I0
s(g1764
g1997
tp8526
I0
s(g1275
g1848
tp8527
I0
s(g1561
g2235
tp8528
I0
s(g31
g1798
tp8529
I0
s(g4931
S'pickup_truck'
p8530
tp8531
I1
s(g1511
g1636
tp8532
I0
s(g5643
S'death_valley'
p8533
tp8534
I0
s(g553
g3396
tp8535
I-1
s(g2695
g224
tp8536
I0
s(g2038
g4040
tp8537
I0
s(g699
g2333
tp8538
I1
s(g182
g1611
tp8539
I0
s(g1957
g3096
tp8540
I0
s(g133
S'duckling'
p8541
tp8542
I0
s(g1646
S'whopper'
p8543
tp8544
I0
s(g432
g6731
tp8545
I1
s(g87
g3302
tp8546
I0
s(g824
S'wasteland'
p8547
tp8548
I0
s(g19
g1215
tp8549
I0
s(g356
g8379
tp8550
I-1
s(g426
g1706
tp8551
I0
s(g3318
g924
tp8552
I0
s(g269
g2412
tp8553
I1
s(g636
S'pudding'
p8554
tp8555
I0
s(g1574
S'tapeworm'
p8556
tp8557
I0
s(g636
S'pound_cake'
p8558
tp8559
I0
s(g3283
S'strip_mall'
p8560
tp8561
I0
s(g4107
g1618
tp8562
I0
s(S'concrete'
p8563
g1804
tp8564
I0
s(g114
g7150
tp8565
I-1
s(S'undiluted'
p8566
S'solution'
p8567
tp8568
I0
s(g385
S'ninja'
p8569
tp8570
I0
s(g233
S'halibut'
p8571
tp8572
I0
s(g666
g580
tp8573
I0
s(g800
g7315
tp8574
I1
s(g2900
S'shrub'
p8575
tp8576
I-1
s(g951
S'puddle'
p8577
tp8578
I0
s(g320
g2052
tp8579
I0
s(g63
g3717
tp8580
I0
s(g1
g3039
tp8581
I0
s(g1695
g70
tp8582
I0
s(g114
g621
tp8583
I0
s(g722
g2410
tp8584
I0
s(g8498
g1365
tp8585
I0
s(g432
g937
tp8586
I-1
s(g3553
g851
tp8587
I0
s(g821
g2379
tp8588
I0
s(g1782
g962
tp8589
I0
s(g214
S'laser_beam'
p8590
tp8591
I0
s(g789
g4483
tp8592
I0
s(g1467
g1447
tp8593
I0
s(g236
g7301
tp8594
I1
s(g3168
g675
tp8595
I0
s(g618
g1659
tp8596
I0
s(g1467
S'hedge'
p8597
tp8598
I0
s(g2038
S'volcano'
p8599
tp8600
I0
s(g242
g2320
tp8601
I1
s(g449
S'rancher'
p8602
tp8603
I0
s(g689
g488
tp8604
I0
s(g545
g846
tp8605
I0
s(g779
S'tinker'
p8606
tp8607
I0
s(g906
g1401
tp8608
I0
s(g449
g662
tp8609
I0
s(g5643
g3275
tp8610
I0
s(g317
S'wineglass'
p8611
tp8612
I0
s(g658
g702
tp8613
I0
s(g166
g393
tp8614
I0
s(g278
S'mosquito'
p8615
tp8616
I0
s(g214
g2578
tp8617
I0
s(g217
g6431
tp8618
I0
s(g722
g1527
tp8619
I0
s(g490
g920
tp8620
I0
s(g553
g3942
tp8621
I0
s(g136
S'mountain_lion'
p8622
tp8623
I0
s(g31
g1835
tp8624
I0
s(g108
g3294
tp8625
I0
s(g1342
g282
tp8626
I0
s(g284
g1215
tp8627
I0
s(g10
g621
tp8628
I0
s(g722
g4422
tp8629
I0
s(g432
g1666
tp8630
I1
s(g353
g210
tp8631
I1
s(g438
g2800
tp8632
I0
s(g658
g1611
tp8633
I0
s(g1170
S'goldfish'
p8634
tp8635
I0
s(g90
S'space_helmet'
p8636
tp8637
I0
s(g972
g970
tp8638
I0
s(g147
g2693
tp8639
I0
s(g269
g3117
tp8640
I0
s(g883
g4789
tp8641
I0
s(g1941
g1447
tp8642
I0
s(g87
S'whistle'
p8643
tp8644
I0
s(g28
g802
tp8645
I1
s(g2759
g279
tp8646
I0
s(g361
g1144
tp8647
I0
s(g291
S'metal_bar'
p8648
tp8649
I0
s(g722
g11
tp8650
I-1
s(g361
g642
tp8651
I0
s(g114
g916
tp8652
I0
s(g628
g3154
tp8653
I0
s(g1190
g4485
tp8654
I0
s(g3474
g1889
tp8655
I0
s(g114
g4675
tp8656
I0
s(g3676
S'statue'
p8657
tp8658
I0
s(g800
S'sheep'
p8659
tp8660
I0
s(g768
g1207
tp8661
I0
s(g294
g1215
tp8662
I-1
s(g1069
S'master'
p8663
tp8664
I1
s(g332
g2327
tp8665
I0
s(g5450
S'culture_medium'
p8666
tp8667
I0
s(g37
g1893
tp8668
I0
s(g214
S'wasp'
p8669
tp8670
I0
s(g510
g5066
tp8671
I0
s(g461
S'apple'
p8672
tp8673
I1
s(g22
g6592
tp8674
I0
s(g969
S'spam'
p8675
tp8676
I0
s(g545
g177
tp8677
I0
s(g166
S'stealth_fighter'
p8678
tp8679
I0
s(g272
g2950
tp8680
I0
s(g625
S'castle'
p8681
tp8682
I0
s(g1561
g1282
tp8683
I0
s(g666
S'molotov_cocktail'
p8684
tp8685
I0
s(g658
g2463
tp8686
I0
s(g848
g1569
tp8687
I1
s(g804
g295
tp8688
I1
s(g1511
g664
tp8689
I0
s(g2774
g2895
tp8690
I1
s(g1129
g3973
tp8691
I1
s(g1603
S'penguin'
p8692
tp8693
I0
s(g768
S'war_zone'
p8694
tp8695
I0
s(g332
g2836
tp8696
I0
s(g5916
g5155
tp8697
I0
s(g332
g8392
tp8698
I0
s(g338
g4312
tp8699
I0
s(g320
g6731
tp8700
I-1
s(g1
g649
tp8701
I-1
s(g2569
S'conqueror'
p8702
tp8703
I0
s(g93
g7028
tp8704
I0
s(g182
g2447
tp8705
I-1
s(g361
g656
tp8706
I0
s(g1
g4388
tp8707
I-1
s(g1511
g1911
tp8708
I1
s(g139
g2537
tp8709
I0
s(g461
g1964
tp8710
I1
s(g1052
g4376
tp8711
I1
s(g529
S'carcass'
p8712
tp8713
I0
s(g182
g3019
tp8714
I0
s(g3645
g3543
tp8715
I1
s(g37
g6731
tp8716
I0
s(g40
g3693
tp8717
I-1
s(g1646
S'tripledecker'
p8718
tp8719
I0
s(g722
g2153
tp8720
I0
s(g1092
g664
tp8721
I0
s(g31
g6363
tp8722
I-1
s(g409
g457
tp8723
I0
s(g1342
S'entree'
p8724
tp8725
I0
s(g1809
g7371
tp8726
I0
s(g361
g2527
tp8727
I0
s(g699
g2990
tp8728
I0
s(g633
g1776
tp8729
I0
s(g2372
g868
tp8730
I0
s(g338
S'bathing_cap'
p8731
tp8732
I0
s(g37
g2048
tp8733
I0
s(g561
g1347
tp8734
I0
s(g3598
S'manicure'
p8735
tp8736
I0
s(g10
g4464
tp8737
I0
s(g689
g5281
tp8738
I1
s(g696
g7971
tp8739
I0
s(g1603
S'hotdog'
p8740
tp8741
I0
s(g341
S'stealth_bomber'
p8742
tp8743
I0
s(g1561
g1597
tp8744
I0
s(g10
g835
tp8745
I-1
s(g361
g716
tp8746
I0
s(g2458
g1196
tp8747
I0
s(g40
g4872
tp8748
I0
s(g335
g8041
tp8749
I0
s(g96
g1411
tp8750
I0
s(g120
g5710
tp8751
I1
s(g40
S'dragon'
p8752
tp8753
I0
s(g1078
g1749
tp8754
I0
s(g722
g1652
tp8755
I0
s(g1551
S'shipwreck_survivor'
p8756
tp8757
I0
s(g2391
g8050
tp8758
I0
s(g414
S'hunchback'
p8759
tp8760
I0
s(g432
g8069
tp8761
I0
s(g379
S'watermelon'
p8762
tp8763
I0
s(g817
g6595
tp8764
I0
s(g959
g8064
tp8765
I0
s(g708
g2663
tp8766
I0
s(g385
S'minuet'
p8767
tp8768
I-1
s(g2774
g1124
tp8769
I1
s(g320
g766
tp8770
I0
s(g545
g197
tp8771
I0
s(g490
g315
tp8772
I1
s(g22
S'drain'
p8773
tp8774
I-1
s(g596
S'dance_floor'
p8775
tp8776
I0
s(g5013
S'failure'
p8777
tp8778
I0
s(g615
g623
tp8779
I0
s(g361
g3893
tp8780
I0
s(g5405
g6653
tp8781
I0
s(g604
S'race_car'
p8782
tp8783
I0
s(g633
g1007
tp8784
I0
s(g1304
g2404
tp8785
I0
s(g2508
S'neutron_bomb'
p8786
tp8787
I0
s(g356
g3104
tp8788
I0
s(g1164
g1911
tp8789
I-1
s(g699
g3194
tp8790
I1
s(g2569
g2491
tp8791
I1
s(g284
g3807
tp8792
I0
s(g524
S'memory'
p8793
tp8794
I0
s(g768
g2011
tp8795
I0
s(g1588
S'boa_constrictor'
p8796
tp8797
I0
s(g214
g4182
tp8798
I-1
s(g2583
S'bucket'
p8799
tp8800
I0
s(g789
g4324
tp8801
I0
s(g1135
g372
tp8802
I0
s(g239
g1942
tp8803
I0
s(g1892
S'housefly'
p8804
tp8805
I0
s(g979
g664
tp8806
I-1
s(g173
g5123
tp8807
I0
s(g120
g2771
tp8808
I1
s(g763
g491
tp8809
I0
s(g449
g1122
tp8810
I1
s(g214
g2200
tp8811
I0
s(g332
g4045
tp8812
I-1
s(g1050
g333
tp8813
I0
s(g223
g714
tp8814
I1
s(g1277
S'government_bond'
p8815
tp8816
I0
s(g16
g267
tp8817
I0
s(g2150
g5602
tp8818
I0
s(g1167
g675
tp8819
I0
s(g474
S'gourd'
p8820
tp8821
I0
s(g779
g754
tp8822
I1
s(S'buoyant'
p8823
g4668
tp8824
I0
s(g3445
S'electron'
p8825
tp8826
I-1
s(g636
S'brownie'
p8827
tp8828
I0
s(g223
g623
tp8829
I0
s(g789
g183
tp8830
I0
s(g194
g726
tp8831
I0
s(g133
S'sponge_cake'
p8832
tp8833
I0
s(g34
g3066
tp8834
I0
s(g1769
g1399
tp8835
I-1
s(g639
g3928
tp8836
I0
s(g768
S'halibut'
p8837
tp8838
I0
s(g223
g2304
tp8839
I0
s(g3594
g3556
tp8840
I0
s(g31
g692
tp8841
I0
s(S'seamless'
p8842
S'quilt'
p8843
tp8844
I0
s(g510
S'treasure_chest'
p8845
tp8846
I0
s(g105
S'spring_chicken'
p8847
tp8848
I0
s(g28
g2643
tp8849
I0
s(g782
g2693
tp8850
I0
s(g1129
g608
tp8851
I0
s(g320
g285
tp8852
I0
s(g3690
S'extract'
p8853
tp8854
I0
s(g1164
g2643
tp8855
I0
s(g1243
S'sax'
p8856
tp8857
I0
s(g31
g1155
tp8858
I0
s(g429
g6843
tp8859
I1
s(g361
g2516
tp8860
I0
s(g601
g5793
tp8861
I1
s(g983
S'movie'
p8862
tp8863
I1
s(g176
g1374
tp8864
I-1
s(g261
g2527
tp8865
I0
s(g261
S'earthworm'
p8866
tp8867
I0
s(g361
S'hardwood'
p8868
tp8869
I0
s(g361
g2013
tp8870
I0
s(g242
g2073
tp8871
I-1
s(g247
g3418
tp8872
I0
s(g1467
g2749
tp8873
I0
s(g264
g5580
tp8874
I0
s(g233
g759
tp8875
I0
s(g817
g7492
tp8876
I0
s(g361
g11
tp8877
I0
s(g176
S'pippin'
p8878
tp8879
I-1
s(g361
g7423
tp8880
I0
s(g5671
S'hippo'
p8881
tp8882
I0
s(g40
S'ogre'
p8883
tp8884
I-1
s(g1318
S'lentil'
p8885
tp8886
I0
s(g883
g7851
tp8887
I0
s(g3256
S'brain_surgery'
p8888
tp8889
I0
s(g2313
g7344
tp8890
I0
s(g214
g1191
tp8891
I-1
s(g7323
S'snow_flurry'
p8892
tp8893
I0
s(g1834
S'sea_anemone'
p8894
tp8895
I0
s(g182
g6299
tp8896
I0
s(g114
g259
tp8897
I0
s(g120
g2275
tp8898
I1
s(g31
g7123
tp8899
I1
s(g51
g3264
tp8900
I0
s(g120
S'blimp'
p8901
tp8902
I-1
s(g485
g2578
tp8903
I0
s(g338
S'condom'
p8904
tp8905
I1
s(g28
g2260
tp8906
I0
s(g485
g4356
tp8907
I0
s(g194
S'idol'
p8908
tp8909
I0
s(g214
S'bowie_knife'
p8910
tp8911
I1
s(g361
g2296
tp8912
I0
s(g37
S'meteor'
p8913
tp8914
I0
s(g272
g3973
tp8915
I1
s(g731
g169
tp8916
I1
s(g474
S"jacko'lantern"
p8917
tp8918
I0
s(g2372
g7380
tp8919
I0
s(g353
S'california_redwood'
p8920
tp8921
I0
s(g239
g805
tp8922
I0
s(g2752
S'unicycle'
p8923
tp8924
I0
s(g361
g8752
tp8925
I0
s(g545
g2260
tp8926
I0
s(g636
g1881
tp8927
I1
s(g1307
g2667
tp8928
I0
s(g1764
g4867
tp8929
I0
s(g658
g410
tp8930
I0
s(g40
g1727
tp8931
I-1
s(S'perfect'
p8932
S'ass'
p8933
tp8934
I1
s(g223
S'portrait'
p8935
tp8936
I1
s(g10
g649
tp8937
I-1
s(g1209
g631
tp8938
I0
s(g281
g1343
tp8939
I1
s(g1275
g1741
tp8940
I-1
s(g2372
g6234
tp8941
I0
s(g332
g3831
tp8942
I0
s(g338
S'noose'
p8943
tp8944
I1
s(g1957
g3500
tp8945
I1
s(g604
g1040
tp8946
I0
s(g353
S'ice_cube'
p8947
tp8948
I0
s(g16
g215
tp8949
I1
s(g420
g6764
tp8950
I1
s(g1078
g4111
tp8951
I0
s(g432
g3287
tp8952
I-1
s(g361
g1889
tp8953
I0
s(g214
g7309
tp8954
I1
s(g3855
g330
tp8955
I0
s(g1511
S'trunk'
p8956
tp8957
I0
s(g3171
g2306
tp8958
I0
s(g1182
g1215
tp8959
I0
s(g4426
S'norman_rockwell'
p8960
tp8961
I0
s(g493
g1594
tp8962
I0
s(g320
g4537
tp8963
I0
s(g320
g4248
tp8964
I0
s(g5367
g8008
tp8965
I0
s(g1603
S'guppy'
p8966
tp8967
I0
s(g37
S'blink'
p8968
tp8969
I0
s(g469
S'pencil_sharpener'
p8970
tp8971
I0
s(g3645
g2927
tp8972
I1
s(g361
g368
tp8973
I0
s(g789
g723
tp8974
I0
s(g114
g2643
tp8975
I0
s(g604
S'polecat'
p8976
tp8977
I0
s(g2752
g1124
tp8978
I0
s(g123
g3697
tp8979
I1
s(g269
g933
tp8980
I1
s(g461
S'granny_smith'
p8981
tp8982
I0
s(g493
g631
tp8983
I0
s(g1264
g7097
tp8984
I0
s(g768
S'confrontation'
p8985
tp8986
I0
s(g1182
g1179
tp8987
I-1
s(g478
S'rubbish'
p8988
tp8989
I0
s(g300
g2832
tp8990
I0
s(g114
g2699
tp8991
I-1
s(g524
S'brand'
p8992
tp8993
I-1
s(g1027
g6468
tp8994
I-1
s(g1143
g2818
tp8995
I0
s(g233
g7976
tp8996
I0
s(g1014
g3264
tp8997
I0
s(g320
g5554
tp8998
I0
s(g417
g1079
tp8999
I-1
s(g502
g2449
tp9000
I0
s(g45
g1101
tp9001
I0
s(g674
g4770
tp9002
I0
s(g1318
S'candle'
p9003
tp9004
I1
s(g264
g5352
tp9005
I0
s(g217
S'family'
p9006
tp9007
I-1
s(g205
S'cheerleader'
p9008
tp9009
I0
s(g1170
S'soda_cracker'
p9010
tp9011
I0
s(g2030
g2550
tp9012
I0
s(g561
g4086
tp9013
I1
s(g10
g396
tp9014
I0
s(g284
g20
tp9015
I0
s(g84
g5986
tp9016
I1
s(g361
g775
tp9017
I0
s(g658
g183
tp9018
I0
s(g615
g4394
tp9019
I0
s(g69
g6320
tp9020
I0
s(g1342
g3807
tp9021
I0
s(g34
g5566
tp9022
I0
s(g48
g7800
tp9023
I0
s(g1999
g4356
tp9024
I1
s(g105
g8672
tp9025
I1
s(g22
g7794
tp9026
I0
s(g1275
g1215
tp9027
I-1
s(g123
S'garter_snake'
p9028
tp9029
I0
s(g1554
S'onion'
p9030
tp9031
I0
s(g1027
g4422
tp9032
I-1
s(g37
g3041
tp9033
I0
s(g364
g6043
tp9034
I0
s(g108
g4438
tp9035
I0
s(g233
g4515
tp9036
I1
s(g99
g4666
tp9037
I0
s(g374
g718
tp9038
I0
s(g2030
g3695
tp9039
I0
s(g883
g7693
tp9040
I0
s(g438
S'phone_book'
p9041
tp9042
I0
s(g4436
S'richelieu'
p9043
tp9044
I0
s(g2372
g500
tp9045
I0
s(g432
g3150
tp9046
I0
s(g753
g1872
tp9047
I0
s(g3732
g3611
tp9048
I0
s(g242
g775
tp9049
I1
s(g502
g4827
tp9050
I0
s(g699
g1347
tp9051
I0
s(g374
g5384
tp9052
I1
s(g1603
g412
tp9053
I0
s(g979
g1403
tp9054
I0
s(g5559
g6299
tp9055
I0
s(g7483
g8367
tp9056
I0
s(g297
g4996
tp9057
I0
s(g320
g1437
tp9058
I0
s(g284
g418
tp9059
I1
s(g1253
S'dodo'
p9060
tp9061
I0
s(g40
g839
tp9062
I0
s(g1209
g7841
tp9063
I0
s(g574
g2498
tp9064
I0
s(g173
g1594
tp9065
I1
s(g361
g1280
tp9066
I0
s(g90
g1012
tp9067
I0
s(g214
g254
tp9068
I0
s(g1298
S'moped'
p9069
tp9070
I0
s(g3021
g4339
tp9071
I0
s(g3685
g2592
tp9072
I0
s(g114
g8815
tp9073
I0
s(g361
g8883
tp9074
I0
s(g429
g365
tp9075
I0
s(g3021
g844
tp9076
I0
s(g969
g8820
tp9077
I0
s(g297
g350
tp9078
I0
s(g317
S'pinata'
p9079
tp9080
I0
s(g4853
g4969
tp9081
I0
s(g545
g1435
tp9082
I0
s(g320
g4324
tp9083
I-1
s(g646
g1937
tp9084
I0
s(g684
g3628
tp9085
I0
s(g1078
g2618
tp9086
I0
s(g385
S'noel_coward'
p9087
tp9088
I0
s(g63
S'bunker'
p9089
tp9090
I0
s(g1461
S'shipwreck_survivor'
p9091
tp9092
I0
s(g10
g1911
tp9093
I-1
s(g432
g158
tp9094
I1
s(g1764
g3814
tp9095
I0
s(g320
g815
tp9096
I0
s(g731
g2795
tp9097
I-1
s(g2165
g7301
tp9098
I1
s(g843
g837
tp9099
I0
s(g81
g2379
tp9100
I0
s(g220
g1005
tp9101
I0
s(g51
g726
tp9102
I0
s(g1511
g839
tp9103
I1
s(g356
g3658
tp9104
I0
s(g2221
g4894
tp9105
I0
s(g28
g7502
tp9106
I0
s(g120
g3683
tp9107
I1
s(g574
S'neurosurgeon'
p9108
tp9109
I0
s(g493
g318
tp9110
I0
s(g789
g6299
tp9111
I0
s(g117
g3921
tp9112
I1
s(S'pregnant'
p9113
S'bucket'
p9114
tp9115
I1
s(g182
g1007
tp9116
I-1
s(g438
g270
tp9117
I0
s(g320
g572
tp9118
I-1
s(g704
S'hippo'
p9119
tp9120
I0
s(g1629
g749
tp9121
I0
s(g1554
g2324
tp9122
I-1
s(g3881
S'anchor_chain'
p9123
tp9124
I0
s(g51
g1804
tp9125
I0
s(g979
g7611
tp9126
I-1
s(g432
g4089
tp9127
I0
s(g16
S'expressway'
p9128
tp9129
I1
s(g320
g32
tp9130
I-1
s(g768
g1788
tp9131
I0
s(g31
g2781
tp9132
I1
s(g272
g2235
tp9133
I1
s(g728
S'hairball'
p9134
tp9135
I0
s(g54
g3150
tp9136
I-1
s(g604
S'bullet_train'
p9137
tp9138
I0
s(g31
g802
tp9139
I1
s(g31
g2132
tp9140
I-1
s(g906
S'printer_cable'
p9141
tp9142
I0
s(g1078
g1179
tp9143
I0
s(g278
g4116
tp9144
I0
s(g264
g1819
tp9145
I0
s(g432
g2975
tp9146
I0
s(g959
g4113
tp9147
I0
s(g4731
g3340
tp9148
I0
s(g699
g2011
tp9149
I1
s(g353
g6653
tp9150
I0
s(g636
g3683
tp9151
I1
s(g689
S'lily'
p9152
tp9153
I0
s(g1520
g2622
tp9154
I0
s(g28
S'bounty_hunter'
p9155
tp9156
I0
s(g633
g7028
tp9157
I0
s(g633
g1889
tp9158
I0
s(g1605
S'pikestaff'
p9159
tp9160
I0
s(g37
g2379
tp9161
I0
s(g4436
g5535
tp9162
I0
s(g90
S'bowler_hat'
p9163
tp9164
I0
s(g1253
S'tumbleweed'
p9165
tp9166
I0
s(g653
g200
tp9167
I0
s(g633
g410
tp9168
I0
s(g432
g1411
tp9169
I1
s(g502
g8041
tp9170
I0
s(g382
S'toothbrush'
p9171
tp9172
I-1
s(g31
g8069
tp9173
I0
s(g1342
S'haiku'
p9174
tp9175
I0
s(g182
g4805
tp9176
I0
s(g139
g613
tp9177
I-1
s(g142
g158
tp9178
I0
s(g28
g2217
tp9179
I0
s(g731
g7409
tp9180
I-1
s(g601
g3683
tp9181
I0
s(g160
S'chessboard'
p9182
tp9183
I0
s(g185
S'drug'
p9184
tp9185
I-1
s(g37
g418
tp9186
I0
s(g361
g981
tp9187
I0
s(g75
S'greaser'
p9188
tp9189
I0
s(g1588
g4289
tp9190
I0
s(g883
g4485
tp9191
I0
s(g31
g3219
tp9192
I-1
s(g250
g844
tp9193
I0
s(g1473
g2329
tp9194
I0
s(g323
S'plumber'
p9195
tp9196
I0
s(g250
g1770
tp9197
I0
s(g1021
g672
tp9198
I0
s(g40
g368
tp9199
I0
s(g361
g4086
tp9200
I0
s(g4731
g2392
tp9201
I0
s(g3011
g5938
tp9202
I1
s(g364
g9152
tp9203
I1
s(g524
g973
tp9204
I0
s(g37
S'comet'
p9205
tp9206
I0
s(g31
S'market'
p9207
tp9208
I1
s(g1547
S'landfill'
p9209
tp9210
I0
s(g48
S'foetus'
p9211
tp9212
I0
s(g57
g916
tp9213
I-1
s(g704
g7336
tp9214
I0
s(g666
S'sparkler'
p9215
tp9216
I0
s(g1062
g8657
tp9217
I0
s(g519
S'building'
p9218
tp9219
I1
s(g136
g2637
tp9220
I0
s(g426
g3225
tp9221
I1
s(g1113
S'toothbrush'
p9222
tp9223
I1
s(g1135
S'jean_harlow'
p9224
tp9225
I0
s(g31
g5535
tp9226
I0
s(g361
g2341
tp9227
I0
s(g356
g3923
tp9228
I0
s(g2386
g8222
tp9229
I0
s(g28
S'navy_seal'
p9230
tp9231
I0
s(g426
g2784
tp9232
I0
s(g1764
g4854
tp9233
I0
s(g233
g52
tp9234
I0
s(g2458
g837
tp9235
I0
s(g753
g709
tp9236
I0
s(g1352
g649
tp9237
I0
s(g674
S'footballer'
p9238
tp9239
I1
s(g114
g2856
tp9240
I-1
s(g490
g7635
tp9241
I0
s(g5610
g3746
tp9242
I0
s(g689
S'daisy'
p9243
tp9244
I1
s(g2038
S'organism'
p9245
tp9246
I1
s(g604
g2239
tp9247
I0
s(g5160
S'root_canal'
p9248
tp9249
I0
s(g1221
S'lychee'
p9250
tp9251
I-1
s(g1352
S'wheat_germ'
p9252
tp9253
I0
s(g633
S'chessboard'
p9254
tp9255
I0
s(S'acrobatic'
p9256
g4376
tp9257
I0
s(g269
g1333
tp9258
I1
s(g5149
g257
tp9259
I0
s(g1470
g844
tp9260
I0
s(g320
g4921
tp9261
I-1
s(g6863
g1087
tp9262
I0
s(g166
g2412
tp9263
I0
s(g1
g158
tp9264
I-1
s(g722
g2701
tp9265
I0
s(g1561
g718
tp9266
I0
s(g6141
g714
tp9267
I0
s(g1473
g8599
tp9268
I0
s(g19
g3942
tp9269
I0
s(g2165
g1659
tp9270
I1
s(g1511
S'screw'
p9271
tp9272
I0
s(g10
g2856
tp9273
I0
s(g3318
S'motherinlaw'
p9274
tp9275
I0
s(S'unitary'
p9276
S'choir'
p9277
tp9278
I0
s(g561
g2643
tp9279
I0
s(g561
g2013
tp9280
I0
s(g1
g6212
tp9281
I0
s(g1497
g8935
tp9282
I0
s(g120
g520
tp9283
I1
s(g214
S'hatchet'
p9284
tp9285
I1
s(g808
S'fish_stick'
p9286
tp9287
I0
s(g2597
g1861
tp9288
I0
s(g704
g6237
tp9289
I0
s(g561
g2832
tp9290
I0
s(g338
S'vise'
p9291
tp9292
I0
s(g5528
S'drinking_glass'
p9293
tp9294
I-1
s(g601
g4572
tp9295
I0
s(g2752
g405
tp9296
I0
s(g432
g2693
tp9297
I1
s(g731
S'destroyer'
p9298
tp9299
I0
s(g31
g1196
tp9300
I0
s(g722
g3656
tp9301
I0
s(g320
g6271
tp9302
I0
s(g545
g3098
tp9303
I0
s(g264
g517
tp9304
I0
s(g1511
g851
tp9305
I0
s(g1098
g1000
tp9306
I0
s(g1561
g1060
tp9307
I0
s(g379
g2469
tp9308
I0
s(g114
g1972
tp9309
I0
s(g10
g115
tp9310
I0
s(g824
g3046
tp9311
I1
s(g136
g6154
tp9312
I0
s(g4257
S'pyramid'
p9313
tp9314
I0
s(g545
g1347
tp9315
I0
s(g25
g2804
tp9316
I0
s(g361
g2946
tp9317
I0
s(g420
S'hearse'
p9318
tp9319
I0
s(g604
g3814
tp9320
I1
s(g188
g7924
tp9321
I0
s(g31
g6694
tp9322
I-1
s(g954
g2975
tp9323
I-1
s(g502
g4576
tp9324
I0
s(g7
g2293
tp9325
I0
s(g456
g4666
tp9326
I0
s(g1164
g396
tp9327
I0
s(g1695
g1680
tp9328
I1
s(g392
g8669
tp9329
I1
s(g1
g1500
tp9330
I0
s(g4456
S'tumour'
p9331
tp9332
I-1
s(g3553
S'mist'
p9333
tp9334
I0
s(g214
g1730
tp9335
I1
s(g731
g3893
tp9336
I-1
s(g31
g2990
tp9337
I0
s(g1062
S'cinder_block'
p9338
tp9339
I0
s(g883
S'dirge'
p9340
tp9341
I0
s(g1301
S'dust'
p9342
tp9343
I0
s(g314
g631
tp9344
I0
s(g1342
g1079
tp9345
I0
s(g34
S'polo_pony'
p9346
tp9347
I0
s(g182
g2302
tp9348
I0
s(g1834
S'doormat'
p9349
tp9350
I0
s(g3837
S'grapevine'
p9351
tp9352
I0
s(g361
g813
tp9353
I0
s(g1352
S'dessert'
p9354
tp9355
I1
s(g5707
g3270
tp9356
I0
s(g272
g488
tp9357
I0
s(g253
S'fruit'
p9358
tp9359
I1
s(g114
g709
tp9360
I0
s(g1476
g8678
tp9361
I0
s(g540
g1746
tp9362
I0
s(g601
S'web'
p9363
tp9364
I1
s(g16
g4550
tp9365
I1
s(g704
S'battering_ram'
p9366
tp9367
I0
s(g1588
S'quack'
p9368
tp9369
I0
s(g4456
S'necromancer'
p9370
tp9371
I0
s(g253
g5728
tp9372
I1
s(g278
g1536
tp9373
I0
s(g1
g11
tp9374
I-1
s(g45
g815
tp9375
I0
s(g1050
g1321
tp9376
I0
s(g37
g1101
tp9377
I0
s(g173
g2870
tp9378
I0
s(g4613
g7054
tp9379
I0
s(g1821
g1536
tp9380
I0
s(g2331
g1012
tp9381
I0
s(g3645
g4438
tp9382
I0
s(g361
g402
tp9383
I0
s(g28
g649
tp9384
I0
s(g1470
g346
tp9385
I0
s(g2625
S'colander'
p9386
tp9387
I0
s(g7
S'sunset'
p9388
tp9389
I0
s(g1342
S'lump_sum'
p9390
tp9391
I0
s(g1301
g2183
tp9392
I0
s(g449
S'ranger'
p9393
tp9394
I0
s(g529
S'meat_pie'
p9395
tp9396
I0
s(g1797
g4193
tp9397
I1
s(g1588
g4337
tp9398
I0
s(g28
S'rancher'
p9399
tp9400
I0
s(g214
S'meat_cleaver'
p9401
tp9402
I1
s(g166
g718
tp9403
I0
s(g45
g1055
tp9404
I0
s(g699
g1909
tp9405
I1
s(g284
S'membrane'
p9406
tp9407
I1
s(g1027
g1133
tp9408
I0
s(g284
g3508
tp9409
I0
s(g708
g6787
tp9410
I0
s(g361
g9030
tp9411
I0
s(g269
g5214
tp9412
I1
s(g28
S'hacksaw'
p9413
tp9414
I0
s(g16
g2359
tp9415
I1
s(g1143
g2145
tp9416
I0
s(g689
g372
tp9417
I1
s(g40
g1636
tp9418
I0
s(g438
g1719
tp9419
I0
s(g744
S'lily_pad'
p9420
tp9421
I0
s(S'supernatural'
p9422
S'cabbage'
p9423
tp9424
I-1
s(g979
g1343
tp9425
I0
s(g689
g1659
tp9426
I0
s(g3837
S'kudzu'
p9427
tp9428
I0
s(g574
g3150
tp9429
I0
s(g1352
S'spring_chicken'
p9430
tp9431
I0
s(g361
g4872
tp9432
I0
s(g5528
g3096
tp9433
I0
s(g874
g1403
tp9434
I1
s(S'organic'
p9435
g7054
tp9436
I1
s(g768
S'elephant_seal'
p9437
tp9438
I0
s(g2695
g7498
tp9439
I0
s(g75
S'toilet_seat'
p9440
tp9441
I0
s(g674
g4854
tp9442
I0
s(g16
g328
tp9443
I1
s(g205
g1365
tp9444
I0
s(g1253
g4131
tp9445
I0
s(g1957
S'pocket_calculator'
p9446
tp9447
I0
s(g449
g9274
tp9448
I0
s(g1467
g5801
tp9449
I0
s(g3171
S'checker_board'
p9450
tp9451
I0
s(g31
S'fish_stick'
p9452
tp9453
I0
s(g105
S'stallion'
p9454
tp9455
I0
s(g37
g1443
tp9456
I0
s(g426
g2502
tp9457
I0
s(g779
S'pigsty'
p9458
tp9459
I0
s(g40
g2341
tp9460
I0
s(g239
g4695
tp9461
I0
s(g150
g5873
tp9462
I0
s(g395
S'fashion_model'
p9463
tp9464
I0
s(g417
g1807
tp9465
I0
s(g1224
S'icepick'
p9466
tp9467
I0
s(g10
g259
tp9468
I0
s(g16
g2256
tp9469
I1
s(g223
g2995
tp9470
I1
s(g1027
S'knitting_needle'
p9471
tp9472
I0
s(g502
g4750
tp9473
I0
s(g173
g5105
tp9474
I0
s(g114
g4042
tp9475
I-1
s(g1888
g649
tp9476
I0
s(g361
S'tragedy'
p9477
tp9478
I0
s(g1342
g4666
tp9479
I0
s(g338
S'cell_membrane'
p9480
tp9481
I0
s(g123
g5343
tp9482
I1
s(g320
g4780
tp9483
I0
s(g317
g5679
tp9484
I1
s(g728
S'birdnest'
p9485
tp9486
I0
s(g247
g1889
tp9487
I0
s(g247
g3270
tp9488
I0
s(g3021
g9463
tp9489
I0
s(g2209
S'bb_gun'
p9490
tp9491
I0
s(g242
g3779
tp9492
I0
s(g361
S'toy_soldier'
p9493
tp9494
I0
s(g361
g7640
tp9495
I0
s(g883
g8901
tp9496
I0
s(g317
g6413
tp9497
I0
s(g432
g2032
tp9498
I-1
s(g2546
S'butter_knife'
p9499
tp9500
I0
s(g1298
S'placebo'
p9501
tp9502
I0
s(g843
g2667
tp9503
I0
s(g3171
S'museum'
p9504
tp9505
I0
s(g883
g2614
tp9506
I0
s(g1164
g656
tp9507
I0
s(g1143
g1835
tp9508
I0
s(g374
g1851
tp9509
I0
s(g574
S'french_pastry'
p9510
tp9511
I-1
s(g320
g1857
tp9512
I-1
s(g768
g8883
tp9513
I0
s(g1035
g2200
tp9514
I1
s(g376
g6473
tp9515
I0
s(g1277
g1347
tp9516
I0
s(g317
S'glass'
p9517
tp9518
I1
s(g5847
S'aircraft_carrier'
p9519
tp9520
I0
s(g4899
g1636
tp9521
I0
s(g3085
g2424
tp9522
I0
s(g1605
g9313
tp9523
I0
s(g398
S'constellation'
p9524
tp9525
I0
s(g385
S'tightrope_walker'
p9526
tp9527
I0
s(g2583
g9174
tp9528
I0
s(g300
g5103
tp9529
I1
s(S'steady'
p9530
S'canoe'
p9531
tp9532
I0
s(g28
g1552
tp9533
I0
s(g2468
g735
tp9534
I0
s(g708
g8029
tp9535
I0
s(g577
g4800
tp9536
I0
s(g1888
g4574
tp9537
I0
s(g28
g8489
tp9538
I0
s(g117
g3142
tp9539
I-1
s(g87
S'clinic'
p9540
tp9541
I0
s(g202
S'trash_can'
p9542
tp9543
I0
s(g2981
g7028
tp9544
I0
s(g320
g844
tp9545
I0
s(g247
g916
tp9546
I0
s(g449
g4241
tp9547
I0
s(g954
g1937
tp9548
I0
s(g1511
g4464
tp9549
I0
s(g353
g1654
tp9550
I1
s(g1182
g702
tp9551
I0
s(g93
g2982
tp9552
I0
s(g5707
g2373
tp9553
I0
s(g1
g6902
tp9554
I-1
s(g272
g7934
tp9555
I0
s(g272
S'ape'
p9556
tp9557
I0
s(g28
S'cape_buffalo'
p9558
tp9559
I0
s(g943
g273
tp9560
I0
s(g1568
g52
tp9561
I0
s(g1947
g2663
tp9562
I0
s(g490
g2872
tp9563
I0
s(g561
g1038
tp9564
I0
s(g173
S'crane'
p9565
tp9566
I0
s(g449
S'bounty_hunter'
p9567
tp9568
I0
s(g704
S'camel'
p9569
tp9570
I0
s(g242
g1972
tp9571
I0
s(g166
g672
tp9572
I0
s(g728
S'grapevine'
p9573
tp9574
I0
s(g1129
g6647
tp9575
I1
s(g133
S'croissant'
p9576
tp9577
I1
s(g1129
g714
tp9578
I1
s(g1999
g1680
tp9579
I0
s(g214
g3302
tp9580
I1
s(g1809
S'soap_bubble'
p9581
tp9582
I0
s(g320
g981
tp9583
I-1
s(g250
g654
tp9584
I0
s(g5304
g1586
tp9585
I0
s(g19
g3017
tp9586
I-1
s(g281
g7611
tp9587
I-1
s(g731
S'encyclopedia'
p9588
tp9589
I-1
s(g223
g326
tp9590
I0
s(g3633
S'nightmare'
p9591
tp9592
I0
s(g1129
g161
tp9593
I1
s(g139
g4441
tp9594
I0
s(g40
g2139
tp9595
I0
s(g188
g1911
tp9596
I1
s(g684
S'strawberry'
p9597
tp9598
I0
s(g1494
g2275
tp9599
I1
s(g633
g839
tp9600
I-1
s(g553
g8392
tp9601
I0
s(g3171
S'crystal_lattice'
p9602
tp9603
I0
s(g2386
g1569
tp9604
I0
s(g943
S'hacker'
p9605
tp9606
I0
s(g1646
S'carcass'
p9607
tp9608
I0
s(g1271
g126
tp9609
I0
s(g353
g2275
tp9610
I1
s(g502
g1670
tp9611
I0
s(g401
g3111
tp9612
I0
s(g22
g8815
tp9613
I0
s(g5046
g714
tp9614
I0
s(g646
g4265
tp9615
I0
s(g1304
g2618
tp9616
I0
s(g233
g1286
tp9617
I0
s(g60
g8577
tp9618
I0
s(g28
S'pirate'
p9619
tp9620
I0
s(g689
S'lettuce'
p9621
tp9622
I1
s(g441
g3726
tp9623
I0
s(g93
g7555
tp9624
I0
s(g338
g6351
tp9625
I0
s(g40
g9030
tp9626
I0
s(g432
g1798
tp9627
I1
s(g356
g6197
tp9628
I0
s(g2583
g846
tp9629
I-1
s(g519
g2630
tp9630
I1
s(g4513
g350
tp9631
I0
s(g188
g1889
tp9632
I0
s(g2468
g2143
tp9633
I0
s(g490
g3470
tp9634
I1
s(g75
g7976
tp9635
I0
s(g474
S'hoax'
p9636
tp9637
I0
s(g75
S'street_fighter'
p9638
tp9639
I0
s(g699
g1839
tp9640
I0
s(g2645
g5957
tp9641
I0
s(g1827
S'horse'
p9642
tp9643
I1
s(g1554
S'microchip'
p9644
tp9645
I-1
s(g658
g2701
tp9646
I0
s(g1782
g2895
tp9647
I0
s(g1129
g3050
tp9648
I1
s(g320
g4089
tp9649
I0
s(g160
g623
tp9650
I0
s(g1
g6002
tp9651
I1
s(g223
S'sniper'
p9652
tp9653
I0
s(g182
g4483
tp9654
I0
s(g779
S'gargoyle'
p9655
tp9656
I0
s(g48
g3268
tp9657
I0
s(g983
S'prosthesis'
p9658
tp9659
I1
s(g474
g3385
tp9660
I0
s(g744
g2509
tp9661
I0
s(g123
S'pen'
p9662
tp9663
I1
s(g731
g3072
tp9664
I1
s(g1182
g5504
tp9665
I-1
s(g1078
g584
tp9666
I0
s(g574
g1762
tp9667
I0
s(g123
g6889
tp9668
I0
s(g704
S'bulldozer'
p9669
tp9670
I0
s(g1304
g4111
tp9671
I1
s(S'unsexy'
p9672
S'wicker'
p9673
tp9674
I0
s(g502
g7086
tp9675
I0
s(g28
g1239
tp9676
I0
s(g1494
S'sport'
p9677
tp9678
I1
s(g574
g41
tp9679
I0
s(g220
S'comet'
p9680
tp9681
I0
s(g3171
S'honeycomb'
p9682
tp9683
I0
s(g16
g924
tp9684
I0
s(g1
g3826
tp9685
I0
s(g4731
g221
tp9686
I0
s(g385
S'hummingbird'
p9687
tp9688
I0
s(g1821
S'pea_shooter'
p9689
tp9690
I0
s(g320
g2426
tp9691
I0
s(g385
S'poet'
p9692
tp9693
I0
s(g3685
S'cigarette'
p9694
tp9695
I0
s(g545
g700
tp9696
I0
s(g4083
g1124
tp9697
I0
s(g438
g289
tp9698
I0
s(g574
S'john_deere'
p9699
tp9700
I0
s(g789
g1611
tp9701
I0
s(g2597
S'stapler'
p9702
tp9703
I0
s(g1809
S'anchovy'
p9704
tp9705
I0
s(g3685
S'poison'
p9706
tp9707
I-1
s(g84
g649
tp9708
I0
s(g1888
g1776
tp9709
I0
s(g502
g1258
tp9710
I0
s(g45
g916
tp9711
I0
s(g25
g726
tp9712
I0
s(g361
S'goat'
p9713
tp9714
I0
s(g1143
g3136
tp9715
I0
s(g574
g140
tp9716
I0
s(g31
g5100
tp9717
I-1
s(g16
g6351
tp9718
I0
s(g2640
S'doormat'
p9719
tp9720
I0
s(g233
S'pug'
p9721
tp9722
I0
s(g332
g2168
tp9723
I-1
s(g681
g2781
tp9724
I0
s(g166
S'vibrator'
p9725
tp9726
I0
s(g417
g295
tp9727
I-1
s(g54
S'grandmaster'
p9728
tp9729
I0
s(g946
S'matador'
p9730
tp9731
I0
s(g16
g3411
tp9732
I0
s(g353
g454
tp9733
I0
s(g519
S'waxwork'
p9734
tp9735
I0
s(g10
g4388
tp9736
I-1
s(g1221
S'porterhouse_steak'
p9737
tp9738
I0
s(g1078
g2404
tp9739
I0
s(g13
S'schoolboy'
p9740
tp9741
I0
s(S'homogenous'
p9742
g5973
tp9743
I0
s(g1511
S'warship'
p9744
tp9745
I0
s(g272
g2804
tp9746
I0
s(g1002
g4732
tp9747
I0
s(g564
S'boy_scout'
p9748
tp9749
I0
s(g474
S'jackolantern'
p9750
tp9751
I0
s(g9435
g933
tp9752
I1
s(g731
g41
tp9753
I0
s(g604
g1895
tp9754
I0
s(g166
g9137
tp9755
I0
s(g1182
g647
tp9756
I-1
s(g5367
S'referee'
p9757
tp9758
I0
s(g906
S'hairpin'
p9759
tp9760
I0
s(g423
S'mussel'
p9761
tp9762
I0
s(g173
S'dandelion'
p9763
tp9764
I0
s(g7682
S'parrot'
p9765
tp9766
I0
s(g361
g29
tp9767
I0
s(g731
g3950
tp9768
I-1
s(g364
S'sunrise'
p9769
tp9770
I0
s(g40
g1776
tp9771
I0
s(g1002
g675
tp9772
I1
s(g16
S'chopstick'
p9773
tp9774
I0
s(S'ill'
p9775
g3891
tp9776
I0
s(g28
g7102
tp9777
I1
s(g1253
g4285
tp9778
I0
s(g2508
S'spinster'
p9779
tp9780
I0
s(g84
g7929
tp9781
I0
s(g323
S'stump'
p9782
tp9783
I0
s(g604
g9680
tp9784
I0
s(g60
S'seal'
p9785
tp9786
I0
s(g28
g957
tp9787
I1
s(g633
S'cell_wall'
p9788
tp9789
I0
s(g361
g472
tp9790
I0
s(g120
g4487
tp9791
I0
s(g2981
g4691
tp9792
I0
s(g147
g6104
tp9793
I0
s(g731
g3022
tp9794
I0
s(g120
g1175
tp9795
I1
s(g269
g245
tp9796
I0
s(g150
g2392
tp9797
I0
s(g182
g790
tp9798
I0
s(g1190
g3430
tp9799
I0
s(g666
S'suicide_bomber'
p9800
tp9801
I0
s(g490
g1659
tp9802
I0
s(g19
g694
tp9803
I1
s(g1349
S'hawk'
p9804
tp9805
I0
s(g353
g4231
tp9806
I1
s(g604
g7980
tp9807
I0
s(g247
g1258
tp9808
I0
s(g449
g714
tp9809
I1
s(g272
S'daisy_cutter'
p9810
tp9811
I0
s(g913
S'worker_bee'
p9812
tp9813
I0
s(g114
g6093
tp9814
I0
s(g1170
S'couch_potato'
p9815
tp9816
I0
s(g779
S'street_fighter'
p9817
tp9818
I0
s(g173
g9152
tp9819
I0
s(g768
S'abortion'
p9820
tp9821
I0
s(g1190
g26
tp9822
I0
s(g7213
g3695
tp9823
I-1
s(g117
g1819
tp9824
I0
s(g1129
g5218
tp9825
I1
s(g432
g3680
tp9826
I-1
s(g45
g562
tp9827
I0
s(g37
g2954
tp9828
I-1
s(g574
S'tissue'
p9829
tp9830
I0
s(g54
S'diplomat'
p9831
tp9832
I0
s(g874
S'sigh'
p9833
tp9834
I0
s(g320
g5593
tp9835
I0
s(g5304
g802
tp9836
I0
s(g1
g402
tp9837
I0
s(g607
g4732
tp9838
I0
s(g242
g158
tp9839
I-1
s(g28
g402
tp9840
I0
s(g1834
S'dormouse'
p9841
tp9842
I0
s(S'immortal'
p9843
g1889
tp9844
I0
s(g379
S'mallet'
p9845
tp9846
I0
s(g31
S'nightingale'
p9847
tp9848
I0
s(g272
S'wild_boar'
p9849
tp9850
I0
s(g636
S'nucleus'
p9851
tp9852
I1
s(g674
g4969
tp9853
I0
s(g361
g532
tp9854
I0
s(g28
g1157
tp9855
I0
s(g1
g1443
tp9856
I-1
s(g361
g2822
tp9857
I0
s(g441
g2436
tp9858
I0
s(g817
g7889
tp9859
I0
s(g117
g5845
tp9860
I0
s(g320
g6363
tp9861
I-1
s(g1315
S'monolith'
p9862
tp9863
I0
s(g1014
g1265
tp9864
I0
s(g182
g3070
tp9865
I0
s(g147
g7038
tp9866
I0
s(g236
g5793
tp9867
I1
s(g1827
S'goat'
p9868
tp9869
I0
s(g40
g6253
tp9870
I-1
s(g31
g4245
tp9871
I-1
s(g2106
g7222
tp9872
I0
s(g320
g2975
tp9873
I0
s(g1129
g5577
tp9874
I1
s(g136
g4333
tp9875
I0
s(g136
g5255
tp9876
I0
s(g272
g608
tp9877
I0
s(g111
S'museum'
p9878
tp9879
I0
s(g432
g6271
tp9880
I0
s(g674
g2349
tp9881
I0
s(g6725
S'newborn'
p9882
tp9883
I0
s(g1182
g1877
tp9884
I1
s(g4047
S'quilt'
p9885
tp9886
I0
s(g1467
g5318
tp9887
I0
s(S'sporty'
p9888
S'golf_cart'
p9889
tp9890
I0
s(g281
g1079
tp9891
I-1
s(g10
g3792
tp9892
I0
s(g601
S'wiring_diagram'
p9893
tp9894
I0
s(g242
g5276
tp9895
I0
s(g561
g4546
tp9896
I0
s(g90
g5524
tp9897
I0
s(g604
g1851
tp9898
I0
s(g1806
g4863
tp9899
I0
s(g4492
g7224
tp9900
I0
s(g646
g1877
tp9901
I0
s(g300
g7010
tp9902
I0
s(g10
g3826
tp9903
I0
s(g272
S'superman'
p9904
tp9905
I1
s(g320
g197
tp9906
I0
s(g136
g9730
tp9907
I0
s(g1027
g2851
tp9908
I0
s(g1275
g4780
tp9909
I0
s(g817
g8597
tp9910
I0
s(g31
g1670
tp9911
I0
s(g5559
g664
tp9912
I1
s(g420
S'photon'
p9913
tp9914
I0
s(g432
g2851
tp9915
I1
s(g353
g2465
tp9916
I1
s(g1554
S'encyclopaedia'
p9917
tp9918
I0
s(g242
g1443
tp9919
I-1
s(g353
g1540
tp9920
I1
s(g272
g996
tp9921
I1
s(g964
g7417
tp9922
I0
s(g160
g2256
tp9923
I1
s(g361
g433
tp9924
I0
s(g123
g167
tp9925
I1
s(g1190
g2200
tp9926
I0
s(g535
g8894
tp9927
I0
s(g28
g2842
tp9928
I0
s(g596
g6427
tp9929
I0
s(g31
g3776
tp9930
I0
s(g361
g5129
tp9931
I0
s(g699
g1038
tp9932
I1
s(g510
g6790
tp9933
I0
s(g54
g158
tp9934
I1
s(g356
g7134
tp9935
I0
s(g16
g8590
tp9936
I0
s(g1182
g709
tp9937
I1
s(g253
g145
tp9938
I0
s(g236
S'supercomputer'
p9939
tp9940
I0
s(g114
g2609
tp9941
I0
s(g120
g5030
tp9942
I1
s(g456
g4590
tp9943
I1
s(g2737
S'steel'
p9944
tp9945
I0
s(g300
g8845
tp9946
I0
s(g361
g8216
tp9947
I0
s(g300
S'marriage'
p9948
tp9949
I0
s(g19
g1751
tp9950
I0
s(g239
g2675
tp9951
I0
s(g983
g1505
tp9952
I0
s(g3598
g1387
tp9953
I1
s(g28
g4464
tp9954
I0
s(g763
g3066
tp9955
I0
s(g111
S'honeycomb'
p9956
tp9957
I0
s(g768
g1592
tp9958
I0
s(g432
g6468
tp9959
I-1
s(g502
g29
tp9960
I0
s(g188
g742
tp9961
I1
s(g653
g251
tp9962
I0
s(g317
g6114
tp9963
I1
s(g524
g171
tp9964
I1
s(g1027
g3458
tp9965
I0
s(g22
g1652
tp9966
I-1
s(g242
g1347
tp9967
I1
s(g379
g6588
tp9968
I0
s(g31
g855
tp9969
I1
s(g646
g5504
tp9970
I-1
s(g1092
S'snowman'
p9971
tp9972
I0
s(g5304
S'camel'
p9973
tp9974
I0
s(g636
g4040
tp9975
I1
s(g323
S'dictionary'
p9976
tp9977
I0
s(g22
S'clay_pipe'
p9978
tp9979
I0
s(g269
S'superstructure'
p9980
tp9981
I0
s(g1190
g4391
tp9982
I0
s(g3714
S'appendage'
p9983
tp9984
I1
s(g361
g5864
tp9985
I0
s(g5321
S'pumpkin_seed'
p9986
tp9987
I0
s(S'heterosexual'
p9988
S'playboy'
p9989
tp9990
I0
s(g317
S'embryo'
p9991
tp9992
I0
s(g269
g2502
tp9993
I1
s(g269
S'broom'
p9994
tp9995
I1
s(g699
g7043
tp9996
I0
s(g1182
g1188
tp9997
I-1
s(g105
S'wheat_germ'
p9998
tp9999
I0
s(g3732
S'glider'
p10000
tp10001
I0
s(g300
g4036
tp10002
I0
s(g1554
S'spaceship'
p10003
tp10004
I-1
s(g728
S'chinese_puzzle'
p10005
tp10006
I0
s(g40
g3462
tp10007
I-1
s(g66
g1687
tp10008
I0
s(g31
g2851
tp10009
I0
s(g1738
g9588
tp10010
I0
s(g217
S'teammate'
p10011
tp10012
I0
s(g272
g267
tp10013
I1
s(g284
g4748
tp10014
I-1
s(g561
g5276
tp10015
I0
s(g5822
g4391
tp10016
I0
s(g883
g7504
tp10017
I0
s(g3645
g9499
tp10018
I0
s(g214
g2412
tp10019
I1
s(g449
g273
tp10020
I0
s(g3228
g4773
tp10021
I0
s(g2241
g3532
tp10022
I0
s(g364
g5042
tp10023
I0
s(g1221
g7148
tp10024
I-1
s(g1152
g9740
tp10025
I0
s(g1
g835
tp10026
I-1
s(g574
g2141
tp10027
I0
s(g843
g1751
tp10028
I0
s(g768
S'asshole'
p10029
tp10030
I0
s(g414
S'quack'
p10031
tp10032
I0
s(g1170
g496
tp10033
I0
s(g4853
g7558
tp10034
I0
s(g361
g158
tp10035
I0
s(g272
g2465
tp10036
I1
s(g40
g1087
tp10037
I0
s(g317
g494
tp10038
I0
s(g361
g2132
tp10039
I0
s(g4492
S'cobweb'
p10040
tp10041
I0
s(g1129
S'mike_tyson'
p10042
tp10043
I0
s(g2386
S'field_mouse'
p10044
tp10045
I0
s(g1052
S'jelly'
p10046
tp10047
I-1
s(g272
g52
tp10048
I0
s(g361
g580
tp10049
I0
s(g1941
g2269
tp10050
I0
s(g147
g1321
tp10051
I0
s(g432
g2375
tp10052
I-1
s(g1129
S'flint'
p10053
tp10054
I1
s(g2742
g714
tp10055
I1
s(g398
S'fate'
p10056
tp10057
I0
s(g432
g2132
tp10058
I-1
s(g111
S'stampede'
p10059
tp10060
I0
s(g604
g9454
tp10061
I0
s(g105
g270
tp10062
I0
s(g1059
g2872
tp10063
I0
s(g278
S'waft'
p10064
tp10065
I0
s(g19
g9406
tp10066
I0
s(g117
g158
tp10067
I0
s(g364
g1623
tp10068
I1
s(g3837
S'birdnest'
p10069
tp10070
I0
s(g6065
g3206
tp10071
I0
s(g2717
S'lumberjack'
p10072
tp10073
I0
s(g1617
g85
tp10074
I1
s(g214
g3853
tp10075
I1
s(g2752
g41
tp10076
I0
s(g75
S'stable'
p10077
tp10078
I0
s(g432
S'miracle'
p10079
tp10080
I1
s(g320
g2867
tp10081
I0
s(g731
g2260
tp10082
I0
s(g320
g3744
tp10083
I0
s(g449
g2433
tp10084
I0
s(g646
g802
tp10085
I-1
s(g28
S'matron'
p10086
tp10087
I0
s(g510
g3194
tp10088
I1
s(g72
S'river'
p10089
tp10090
I1
s(g1224
S'boxer'
p10091
tp10092
I1
s(S'unsightly'
p10093
S'garbage_dump'
p10094
tp10095
I0
s(g2645
g4532
tp10096
I0
s(g182
g3322
tp10097
I0
s(g2337
g496
tp10098
I0
s(g2458
g1770
tp10099
I0
s(g294
g1260
tp10100
I-1
s(g601
S'space_shuttle'
p10101
tp10102
I0
s(g3837
S'chinese_puzzle'
p10103
tp10104
I0
s(g633
g8648
tp10105
I0
s(g1352
g8069
tp10106
I1
s(g758
S'file'
p10107
tp10108
I0
s(g361
g5261
tp10109
I0
s(g817
g3625
tp10110
I0
s(g361
g8381
tp10111
I0
s(g45
g2643
tp10112
I0
s(g264
g3921
tp10113
I0
s(g510
g3136
tp10114
I0
s(g906
S'spaghetti'
p10115
tp10116
I0
s(g432
g5554
tp10117
I0
s(g1304
g647
tp10118
I0
s(g5149
g2895
tp10119
I0
s(g432
g3776
tp10120
I0
s(g361
g1033
tp10121
I0
s(g317
S'candle_flame'
p10122
tp10123
I0
s(g133
g3415
tp10124
I0
s(g1167
g276
tp10125
I0
s(g821
g5180
tp10126
I0
s(g233
S'blister'
p10127
tp10128
I0
s(g320
g819
tp10129
I0
s(g5933
S'coup'
p10130
tp10131
I0
s(g332
g3942
tp10132
I0
s(g108
S'plow_horse'
p10133
tp10134
I0
s(g220
S'jungle_cat'
p10135
tp10136
I0
s(g1511
g5798
tp10137
I0
s(g821
g2657
tp10138
I0
s(g607
g4391
tp10139
I0
s(g2717
S'cabin'
p10140
tp10141
I0
s(g361
g3506
tp10142
I0
s(g269
g5131
tp10143
I1
s(g1
g7150
tp10144
I-1
s(g338
S'suture'
p10145
tp10146
I0
s(g3685
g2054
tp10147
I0
s(g335
g4883
tp10148
I0
s(g417
g5435
tp10149
I0
s(g449
g5030
tp10150
I0
s(g824
g3111
tp10151
I1
s(g510
g9948
tp10152
I0
s(g335
g433
tp10153
I0
s(g250
g1196
tp10154
I0
s(g5048
g4071
tp10155
I0
s(S'wrinkly'
p10156
g4611
tp10157
I0
s(g188
S'building'
p10158
tp10159
I-1
s(g320
g2246
tp10160
I0
s(g1605
g3853
tp10161
I1
s(g10
g1038
tp10162
I0
s(g449
S'navy_seal'
p10163
tp10164
I0
s(g2774
g257
tp10165
I1
s(g432
g3511
tp10166
I0
s(g96
g2324
tp10167
I0
s(S'filled'
p10168
g2419
tp10169
I0
s(g220
S'ambulance'
p10170
tp10171
I0
s(g502
g5283
tp10172
I0
s(g10
g368
tp10173
I0
s(g2372
g8379
tp10174
I-1
s(g297
g4856
tp10175
I0
s(g114
g839
tp10176
I0
s(g449
g1150
tp10177
I0
s(g420
g682
tp10178
I1
s(g9888
S'boston_terrier'
p10179
tp10180
I0
s(g646
g1201
tp10181
I0
s(g320
g692
tp10182
I0
s(g361
g3548
tp10183
I0
s(g34
S'featherweight'
p10184
tp10185
I0
s(S'nonintegrated'
p10186
g129
tp10187
I0
s(g253
g9597
tp10188
I0
s(g278
S'pygmy'
p10189
tp10190
I0
s(g1983
g3266
tp10191
I0
s(g561
g815
tp10192
I1
s(g338
g2491
tp10193
I0
s(g182
g2019
tp10194
I0
s(g395
g8242
tp10195
I0
s(g272
g2188
tp10196
I1
s.