(dp0
(S'robust'
p1
S'trooper'
p2
tp3
(lp4
(S'frail'
p5
g2
tp6
as(S'rigid'
p7
S'rock'
p8
tp9
(lp10
(S'nonrigid'
p11
g8
tp12
as(S'fast'
p13
S'pocket_calculator'
p14
tp15
(lp16
(S'slow'
p17
g14
tp18
as(S'intangible'
p19
S'idea'
p20
tp21
(lp22
(S'tangible'
p23
g20
tp24
as(S'strong'
p25
S'hurricane'
p26
tp27
(lp28
(S'weak'
p29
g26
tp30
a(S'impotent'
p31
g26
tp32
as(S'alive'
p33
S'oak_tree'
p34
tp35
(lp36
(S'dead'
p37
g34
tp38
a(S'unanimated'
p39
g34
tp40
as(S'fat'
p41
S'watermelon'
p42
tp43
(lp44
(S'thin'
p45
g42
tp46
a(S'nonfat'
p47
g42
tp48
as(S'fresh'
p49
S'trash_can'
p50
tp51
(lp52
(S'stale'
p53
g50
tp54
a(S'preserved'
p55
g50
tp56
a(S'salty'
p57
g50
tp58
as(S'straight'
p59
S'rail_fence'
p60
tp61
(lp62
(S'crooked'
p63
g60
tp64
a(S'curly'
p65
g60
tp66
a(S'coiled'
p67
g60
tp68
a(S'curved'
p69
g60
tp70
as(S'ugly'
p71
S'scarecrow'
p72
tp73
(lp74
(S'beautiful'
p75
g72
tp76
as(S'potent'
p77
S'bee_sting'
p78
tp79
(lp80
(g31
g78
tp81
as(S'tight'
p82
S'tourniquet'
p83
tp84
(lp85
(S'loose'
p86
g83
tp87
a(S'leaky'
p88
g83
tp89
as(g71
S'hippopotamus'
p90
tp91
(lp92
(g75
g90
tp93
as(S'ripe'
p94
g42
tp95
(lp96
(S'green'
p97
g42
tp98
as(S'sharp'
p99
S'cutlass'
p100
tp101
(lp102
(S'dull'
p103
g100
tp104
a(S'flat'
p105
g100
tp106
a(S'natural'
p107
g100
tp108
as(g25
S'mosquito_bite'
p109
tp110
(lp111
(g29
g109
tp112
a(g31
g109
tp113
as(S'complete'
p114
S'blueprint'
p115
tp116
(lp117
(S'incomplete'
p118
g115
tp119
as(g13
S'donkey_cart'
p120
tp121
(lp122
(g17
g120
tp123
as(S'tough'
p124
S'cirrus_cloud'
p125
tp126
(lp127
(S'tender'
p128
g125
tp129
as(S'immobile'
p130
S'house'
p131
tp132
(lp133
(S'mobile'
p134
g131
tp135
as(g82
S'life_preserver'
p136
tp137
(lp138
(g86
g136
tp139
a(g88
g136
tp140
as(S'hard'
p141
S'milk_tooth'
p142
tp143
(lp144
(S'easy'
p145
g142
tp146
a(S'soft'
p147
g142
tp148
a(S'voiced'
p149
g142
tp150
as(S'rough'
p151
S'rasp'
p152
tp153
(lp154
(S'smooth'
p155
g152
tp156
a(S'cut'
p157
g152
tp158
as(S'thirsty'
p159
S'sieve'
p160
tp161
(lp162
(S'hungry'
p163
g160
tp164
as(g59
S'lamppost'
p165
tp166
(lp167
(g63
g165
tp168
a(g65
g165
tp169
a(g67
g165
tp170
a(g69
g165
tp171
as(g41
S'dumpling'
p172
tp173
(lp174
(g45
g172
tp175
a(g47
g172
tp176
as(S'sturdy'
p177
S'trunk'
p178
tp179
(lp180
(S'compromising'
p181
g178
tp182
as(g29
S'mosquito'
p183
tp184
(lp185
(g25
g183
tp186
as(g99
S'blade'
p187
tp188
(lp189
(g103
g187
tp190
a(g105
g187
tp191
a(g107
g187
tp192
as(S'still'
p193
S'tree_trunk'
p194
tp195
(lp196
(S'moving'
p197
g194
tp198
a(S'sparkling'
p199
g194
tp200
as(S'flexible'
p201
S'pretzel'
p202
tp203
(lp204
(S'inflexible'
p205
g202
tp206
a(S'uncompromising'
p207
g202
tp208
as(S'secure'
p209
S'prison'
p210
tp211
(lp212
(S'insecure'
p213
g210
tp214
as(S'delicate'
p215
S'soap_bubble'
p216
tp217
(lp218
(S'rugged'
p219
g216
tp220
as(S'toxic'
p221
S'jellyfish'
p222
tp223
(lp224
(S'nontoxic'
p225
g222
tp226
as(S'wet'
p227
S'pool'
p228
tp229
(lp230
(S'dry'
p231
g228
tp232
as(S'dirty'
p233
S'warthog'
p234
tp235
(lp236
(S'clean'
p237
g234
tp238
as(g237
S'snowball'
p239
tp240
(lp241
(g233
g239
tp242
a(S'unclean'
p243
g239
tp244
as(g141
S'statue'
p245
tp246
(lp247
(g145
g245
tp248
a(g147
g245
tp249
a(g149
g245
tp250
as(S'perfect'
p251
S'ballerina'
p252
tp253
(lp254
(S'imperfect'
p255
g252
tp256
as(g41
S'walrus'
p257
tp258
(lp259
(g45
g257
tp260
a(g47
g257
tp261
as(g17
S'wombat'
p262
tp263
(lp264
(g13
g262
tp265
as(S'immaterial'
p266
S'ghost'
p267
tp268
(lp269
(S'material'
p270
g267
tp271
a(S'corporeal'
p272
g267
tp273
as(S'heavy'
p274
S'whale'
p275
tp276
(lp277
(S'light'
p278
g275
tp279
as(S'healthy'
p280
S'bull'
p281
tp282
(lp283
(S'unhealthy'
p284
g281
tp285
as(g215
S'egg'
p286
tp287
(lp288
(g219
g286
tp289
as(S'active'
p290
S'bee'
p291
tp292
(lp293
(S'inactive'
p294
g291
tp295
a(S'passive'
p296
g291
tp297
a(S'quiet'
p298
g291
tp299
a(S'stative'
p300
g291
tp301
a(S'extinct'
p302
g291
tp303
a(S'dormant'
p304
g291
tp305
as(g177
S'tank'
p306
tp307
(lp308
(g181
g306
tp309
as(g99
S'automaton'
p310
tp311
(lp312
(g103
g310
tp313
a(g105
g310
tp314
a(g107
g310
tp315
as(g274
S'lineman'
p316
tp317
(lp318
(g278
g316
tp319
as(S'impervious'
p320
S'chocolate_bar'
p321
tp322
(lp323
(S'pervious'
p324
g321
tp325
as(g151
S'rattlesnake'
p326
tp327
(lp328
(g155
g326
tp329
a(g157
g326
tp330
as(g215
S'seedling'
p331
tp332
(lp333
(g219
g331
tp334
as(g215
S'john_deere'
p335
tp336
(lp337
(g219
g335
tp338
as(g274
S'mountain'
p339
tp340
(lp341
(g278
g339
tp342
as(g99
S'edge'
p343
tp344
(lp345
(g103
g343
tp346
a(g105
g343
tp347
a(g107
g343
tp348
as(g274
S'hammock'
p349
tp350
(lp351
(g278
g349
tp352
as(S'solid'
p353
S'fortress'
p354
tp355
(lp356
(S'gaseous'
p357
g354
tp358
a(S'liquid'
p359
g354
tp360
a(S'hollow'
p361
g354
tp362
as(S'hairless'
p363
S'baby'
p364
tp365
(lp366
(S'hairy'
p367
g364
tp368
as(g25
S'searchlight'
p369
tp370
(lp371
(g29
g369
tp372
a(g31
g369
tp373
as(S'graceful'
p374
S'cat'
p375
tp376
(lp377
(S'awkward'
p378
g375
tp379
as(g237
S'choirboy'
p380
tp381
(lp382
(g233
g380
tp383
a(g243
g380
tp384
as(g25
S'paper_bag'
p385
tp386
(lp387
(g29
g385
tp388
a(g31
g385
tp389
as(S'pregnant'
p390
S'cow'
p391
tp392
(lp393
(S'nonpregnant'
p394
g391
tp395
as(S'full'
p396
S'leech'
p397
tp398
(lp399
(S'empty'
p400
g397
tp401
a(g45
g397
tp402
as(g141
S'brick'
p403
tp404
(lp405
(g145
g403
tp406
a(g147
g403
tp407
a(g149
g403
tp408
as(g7
S'headstone'
p409
tp410
(lp411
(g11
g409
tp412
as(g353
S'fighter'
p413
tp414
(lp415
(g357
g413
tp416
a(g359
g413
tp417
a(g361
g413
tp418
as(g49
S'rain'
p419
tp420
(lp421
(g53
g419
tp422
a(g55
g419
tp423
a(g57
g419
tp424
as(g266
S'shadow'
p425
tp426
(lp427
(g270
g425
tp428
a(g272
g425
tp429
as(g215
g252
tp430
(lp431
(g219
g252
tp432
as(g134
S'laptop'
p433
tp434
(lp435
(g130
g433
tp436
as(g177
S'paper_clip'
p437
tp438
(lp439
(g181
g437
tp440
as(g215
S'wisp'
p441
tp442
(lp443
(g219
g441
tp444
as(S'safe'
p445
S'hand_grenade'
p446
tp447
(lp448
(S'dangerous'
p449
g446
tp450
a(S'out'
p451
g446
tp452
as(g147
S'marshmallow'
p453
tp454
(lp455
(g141
g453
tp456
a(S'loud'
p457
g453
tp458
a(S'unvoiced'
p459
g453
tp460
a(S'hardened'
p461
g453
tp462
a(S'forte'
p463
g453
tp464
as(g1
g433
tp465
(lp466
(g5
g433
tp467
as(g177
S'workhorse'
p468
tp469
(lp470
(g181
g468
tp471
as(S'talentless'
p472
S'potato'
p473
tp474
(lp475
(S'talented'
p476
g473
tp477
as(S'complex'
p478
S'spaceship'
p479
tp480
(lp481
(S'simple'
p482
g479
tp483
as(g359
S'government_bond'
p484
tp485
(lp486
(g357
g484
tp487
a(g353
g484
tp488
a(S'unmelted'
p489
g484
tp490
as(g13
S'cheetah'
p491
tp492
(lp493
(g17
g491
tp494
as(g294
S'stone'
p495
tp496
(lp497
(g290
g495
tp498
a(S'operational'
p499
g495
tp500
as(S'carnivorous'
p501
S'fox'
p502
tp503
(lp504
(S'herbivorous'
p505
g502
tp506
a(S'insectivorous'
p507
g502
tp508
a(S'omnivorous'
p509
g502
tp510
as(g361
S'church_bell'
p511
tp512
(lp513
(g353
g511
tp514
as(S'physical'
p515
g8
tp516
(lp517
(S'mental'
p518
g8
tp519
as(g49
S'cowslip'
p520
tp521
(lp522
(g53
g520
tp523
a(g55
g520
tp524
a(g57
g520
tp525
as(S'sexy'
p526
S'ball_bearing'
p527
tp528
(lp529
(S'unsexy'
p530
g527
tp531
a(S'anaphrodisiac'
p532
g527
tp533
as(g124
S'bunny_rabbit'
p534
tp535
(lp536
(g128
g534
tp537
as(g177
S'barn'
p538
tp539
(lp540
(g181
g538
tp541
as(g278
S'feather'
p542
tp543
(lp544
(g274
g542
tp545
a(S'dark'
p546
g542
tp547
as(S'virile'
p548
S'goat'
p549
tp550
(lp551
(g31
g549
tp552
as(S'muscular'
p553
S'bodybuilder'
p554
tp555
(lp556
(S'ectomorphic'
p557
g554
tp558
a(S'endomorphic'
p559
g554
tp560
as(g29
S'thread'
p561
tp562
(lp563
(g25
g561
tp564
as(S'pointed'
p565
S'black_vulture'
p566
tp567
(lp568
(S'pointless'
p569
g566
tp570
as(g141
S'freight_train'
p571
tp572
(lp573
(g145
g571
tp574
a(g147
g571
tp575
a(g149
g571
tp576
as(S'stiff'
p577
S'pipe'
p578
tp579
(lp580
(g31
g578
tp581
as(g82
S'choker'
p582
tp583
(lp584
(g86
g582
tp585
a(g88
g582
tp586
as(g274
S'anchor'
p587
tp588
(lp589
(g278
g587
tp590
as(g233
S'tinker'
p591
tp592
(lp593
(g237
g591
tp594
as(g215
S'french_pastry'
p595
tp596
(lp597
(g219
g595
tp598
as(g219
g306
tp599
(lp600
(g215
g306
tp601
a(S'unfurrowed'
p602
g306
tp603
as(g99
S'spear'
p604
tp605
(lp606
(g103
g604
tp607
a(g105
g604
tp608
a(g107
g604
tp609
as(g193
S'doll'
p610
tp611
(lp612
(g197
g610
tp613
a(g199
g610
tp614
as(g25
S'tornado'
p615
tp616
(lp617
(g29
g615
tp618
a(g31
g615
tp619
as(g294
S'catalyst'
p620
tp621
(lp622
(g290
g620
tp623
a(g499
g620
tp624
as(g99
S'pocket_knife'
p625
tp626
(lp627
(g103
g625
tp628
a(g105
g625
tp629
a(g107
g625
tp630
as(S'lively'
p631
S'kitten'
p632
tp633
(lp634
(g103
g632
tp635
as(g124
S'bear'
p636
tp637
(lp638
(g128
g636
tp639
as(g71
S'reptile'
p640
tp641
(lp642
(g75
g640
tp643
as(g478
S'microprocessor'
p644
tp645
(lp646
(g482
g644
tp647
as(g71
S'rhino'
p648
tp649
(lp650
(g75
g648
tp651
as(g107
S'fish'
p652
tp653
(lp654
(S'unnatural'
p655
g652
tp656
a(S'artificial'
p657
g652
tp658
a(S'supernatural'
p659
g652
tp660
a(g105
g652
tp661
a(g99
g652
tp662
as(g59
S'ramrod'
p663
tp664
(lp665
(g63
g663
tp666
a(g65
g663
tp667
a(g67
g663
tp668
a(g69
g663
tp669
as(g71
S'witch'
p670
tp671
(lp672
(g75
g670
tp673
as(g553
S'leopard'
p674
tp675
(lp676
(g557
g674
tp677
a(g559
g674
tp678
as(g99
S'butter_knife'
p679
tp680
(lp681
(g103
g679
tp682
a(g105
g679
tp683
a(g107
g679
tp684
as(g99
S'knife_edge'
p685
tp686
(lp687
(g103
g685
tp688
a(g105
g685
tp689
a(g107
g685
tp690
as(g631
S'skeleton'
p691
tp692
(lp693
(g103
g691
tp694
as(S'meaty'
p695
S'meat_pie'
p696
tp697
(lp698
(S'meatless'
p699
g696
tp700
as(S'sterile'
p701
S'mule'
p702
tp703
(lp704
(S'fertile'
p705
g702
tp706
as(g577
g34
tp707
(lp708
(g31
g34
tp709
as(g215
S'rosebush'
p710
tp711
(lp712
(g219
g710
tp713
as(g25
S'tractor'
p714
tp715
(lp716
(g29
g714
tp717
a(g31
g714
tp718
as(g215
S'flute'
p719
tp720
(lp721
(g219
g719
tp722
as(S'supportive'
p723
S'mother'
p724
tp725
(lp726
(S'unsupportive'
p727
g724
tp728
as(g577
g403
tp729
(lp730
(g31
g403
tp731
as(g221
S'poison'
p732
tp733
(lp734
(g225
g732
tp735
as(S'deaf'
p736
S'post'
p737
tp738
(lp739
(S'hearing'
p740
g737
tp741
as(g7
S'totem_pole'
p742
tp743
(lp744
(g11
g742
tp745
as(g378
S'sumo_wrestler'
p746
tp747
(lp748
(g374
g746
tp749
as(g274
g194
tp750
(lp751
(g278
g194
tp752
as(S'restless'
p753
S'hyena'
p754
tp755
(lp756
(S'restful'
p757
g754
tp758
as(S'impenetrable'
p759
g306
tp760
(lp761
(S'penetrable'
p762
g306
tp763
as(g231
S'frog'
p764
tp765
(lp766
(g227
g764
tp767
a(S'sweet'
p768
g764
tp769
a(S'phlegmy'
p770
g764
tp771
as(g177
S'warship'
p772
tp773
(lp774
(g181
g772
tp775
as(g41
g275
tp776
(lp777
(g45
g275
tp778
a(g47
g275
tp779
as(g400
S'mausoleum'
p780
tp781
(lp782
(g396
g780
tp783
as(g526
S'head_cold'
p784
tp785
(lp786
(g530
g784
tp787
a(g532
g784
tp788
as(g147
g542
tp789
(lp790
(g141
g542
tp791
a(g457
g542
tp792
a(g459
g542
tp793
a(g461
g542
tp794
a(g463
g542
tp795
as(g159
S'bedouin'
p796
tp797
(lp798
(g163
g796
tp799
as(g577
S'mannequin'
p800
tp801
(lp802
(g31
g800
tp803
as(g103
S'spoon'
p804
tp805
(lp806
(g631
g804
tp807
a(S'bright'
p808
g804
tp809
a(g99
g804
tp810
as(g577
S'rail'
p811
tp812
(lp813
(g31
g811
tp814
as(S'homogeneous'
p815
S'snowbank'
p816
tp817
(lp818
(S'heterogeneous'
p819
g816
tp820
as(g374
g491
tp821
(lp822
(g378
g491
tp823
as(g374
S'panther'
p824
tp825
(lp826
(g378
g824
tp827
as(g59
S'telephone_pole'
p828
tp829
(lp830
(g63
g828
tp831
a(g65
g828
tp832
a(g67
g828
tp833
a(g69
g828
tp834
as(g82
S'jar'
p835
tp836
(lp837
(g86
g835
tp838
a(g88
g835
tp839
as(g31
g702
tp840
(lp841
(g77
g702
tp842
as(S'concentrated'
p843
S'diamond'
p844
tp845
(lp846
(S'distributed'
p847
g844
tp848
a(g147
g844
tp849
a(S'unsaturated'
p850
g844
tp851
as(g400
S'bubble'
p852
tp853
(lp854
(g396
g852
tp855
as(S'stable'
p856
S'storm'
p857
tp858
(lp859
(S'unstable'
p860
g857
tp861
as(g13
S'slug'
p862
tp863
(lp864
(g17
g862
tp865
as(g209
g354
tp866
(lp867
(g213
g354
tp868
as(g278
g252
tp869
(lp870
(g274
g252
tp871
a(g546
g252
tp872
as(g29
S'worm'
p873
tp874
(lp875
(g25
g873
tp876
as(g94
S'pumpkin'
p877
tp878
(lp879
(g97
g877
tp880
as(g19
S'feeling'
p881
tp882
(lp883
(g23
g881
tp884
as(g353
S'block'
p885
tp886
(lp887
(g357
g885
tp888
a(g359
g885
tp889
a(g361
g885
tp890
as(g147
S'sidewalk'
p891
tp892
(lp893
(g141
g891
tp894
a(g457
g891
tp895
a(g459
g891
tp896
a(g461
g891
tp897
a(g463
g891
tp898
as(g359
S'soup'
p899
tp900
(lp901
(g357
g899
tp902
a(g353
g899
tp903
a(g489
g899
tp904
as(g71
S'sun'
p905
tp906
(lp907
(g75
g905
tp908
as(g124
S'gymnast'
p909
tp910
(lp911
(g128
g909
tp912
as(g99
S'tack'
p913
tp914
(lp915
(g103
g913
tp916
a(g105
g913
tp917
a(g107
g913
tp918
as(g233
S'coal_miner'
p919
tp920
(lp921
(g237
g919
tp922
as(g374
S'butterfly'
p923
tp924
(lp925
(g378
g923
tp926
as(g215
S'daddy_longlegs'
p927
tp928
(lp929
(g219
g927
tp930
as(g25
S'cappuccino'
p931
tp932
(lp933
(g29
g931
tp934
a(g31
g931
tp935
as(g59
S'pin'
p936
tp937
(lp938
(g63
g936
tp939
a(g65
g936
tp940
a(g67
g936
tp941
a(g69
g936
tp942
as(g151
S'hedge'
p943
tp944
(lp945
(g155
g943
tp946
a(g157
g943
tp947
as(g99
S'doorknob'
p948
tp949
(lp950
(g103
g948
tp951
a(g105
g948
tp952
a(g107
g948
tp953
as(g400
S'drum'
p954
tp955
(lp956
(g396
g954
tp957
as(g193
S'clam'
p958
tp959
(lp960
(g197
g958
tp961
a(g199
g958
tp962
as(g278
S'sparrow'
p963
tp964
(lp965
(g274
g963
tp966
a(g546
g963
tp967
as(S'energetic'
p968
S'sprite'
p969
tp970
(lp971
(S'lethargic'
p972
g969
tp973
as(g5
S"willo'thewisp"
p974
tp975
(lp976
(g1
g974
tp977
as(g151
S'slaver'
p978
tp979
(lp980
(g155
g978
tp981
a(g157
g978
tp982
as(S'immutable'
p983
S'papal_bull'
p984
tp985
(lp986
(S'mutable'
p987
g984
tp988
as(g219
S'fashion_model'
p989
tp990
(lp991
(g215
g989
tp992
a(g602
g989
tp993
as(S'manly'
p994
S'baseball_player'
p995
tp996
(lp997
(S'unmanly'
p998
g995
tp999
as(g151
S'gale'
p1000
tp1001
(lp1002
(g155
g1000
tp1003
a(g157
g1000
tp1004
as(g99
S'viper'
p1005
tp1006
(lp1007
(g103
g1005
tp1008
a(g105
g1005
tp1009
a(g107
g1005
tp1010
as(g274
S'tractor_trailer'
p1011
tp1012
(lp1013
(g278
g1011
tp1014
as(g374
S'dolphin'
p1015
tp1016
(lp1017
(g378
g1015
tp1018
as(g41
g877
tp1019
(lp1020
(g45
g877
tp1021
a(g47
g877
tp1022
as(g274
g542
tp1023
(lp1024
(g278
g542
tp1025
as(g177
g339
tp1026
(lp1027
(g181
g339
tp1028
as(g705
S'field'
p1029
tp1030
(lp1031
(g701
g1029
tp1032
as(g705
g403
tp1033
(lp1034
(g701
g403
tp1035
as(S'permanent'
p1036
S'skin_graft'
p1037
tp1038
(lp1039
(S'impermanent'
p1040
g1037
tp1041
as(g215
S'wind_chime'
p1042
tp1043
(lp1044
(g219
g1042
tp1045
as(S'masculine'
p1046
S'skirt'
p1047
tp1048
(lp1049
(S'feminine'
p1050
g1047
tp1051
a(S'neuter'
p1052
g1047
tp1053
as(g294
S'couch_potato'
p1054
tp1055
(lp1056
(g290
g1054
tp1057
a(g499
g1054
tp1058
as(g37
S'mummy'
p1059
tp1060
(lp1061
(g33
g1059
tp1062
a(S'live'
p1063
g1059
tp1064
as(g759
S'hockey_puck'
p1065
tp1066
(lp1067
(g762
g1065
tp1068
as(g49
S'shamrock'
p1069
tp1070
(lp1071
(g53
g1069
tp1072
a(g55
g1069
tp1073
a(g57
g1069
tp1074
as(g13
S'cobra'
p1075
tp1076
(lp1077
(g17
g1075
tp1078
as(g41
g90
tp1079
(lp1080
(g45
g90
tp1081
a(g47
g90
tp1082
as(g151
S'burlap_bag'
p1083
tp1084
(lp1085
(g155
g1083
tp1086
a(g157
g1083
tp1087
as(g177
g8
tp1088
(lp1089
(g181
g8
tp1090
as(g29
S'shirley_temple'
p1091
tp1092
(lp1093
(g25
g1091
tp1094
as(g215
S'breath'
p1095
tp1096
(lp1097
(g219
g1095
tp1098
as(g25
S'python'
p1099
tp1100
(lp1101
(g29
g1099
tp1102
a(g31
g1099
tp1103
as(g396
S'hog'
p1104
tp1105
(lp1106
(g400
g1104
tp1107
a(g45
g1104
tp1108
as(g526
S'lioness'
p1109
tp1110
(lp1111
(g530
g1109
tp1112
a(g532
g1109
tp1113
as(g124
S'castle'
p1114
tp1115
(lp1116
(g128
g1114
tp1117
as(g177
S'refrigerator'
p1118
tp1119
(lp1120
(g181
g1118
tp1121
as(g274
S'paperweight'
p1122
tp1123
(lp1124
(g278
g1122
tp1125
as(g353
g403
tp1126
(lp1127
(g357
g403
tp1128
a(g359
g403
tp1129
a(g361
g403
tp1130
as(g5
S'supermodel'
p1131
tp1132
(lp1133
(g1
g1131
tp1134
as(g972
S'tree_sloth'
p1135
tp1136
(lp1137
(g968
g1135
tp1138
as(g124
S'steak'
p1139
tp1140
(lp1141
(g128
g1139
tp1142
as(g461
S'new_york'
p1143
tp1144
(lp1145
(S'untempered'
p1146
g1143
tp1147
a(g147
g1143
tp1148
as(g219
S'shark'
p1149
tp1150
(lp1151
(g215
g1149
tp1152
a(g602
g1149
tp1153
as(S'toothless'
p1154
g222
tp1155
(lp1156
(S'toothed'
p1157
g222
tp1158
as(g7
S'clockwork'
p1159
tp1160
(lp1161
(g11
g1159
tp1162
as(g655
S'graveyard_shift'
p1163
tp1164
(lp1165
(g107
g1163
tp1166
a(S'normal'
p1167
g1163
tp1168
a(S'unaffected'
p1169
g1163
tp1170
as(g124
g1109
tp1171
(lp1172
(g128
g1109
tp1173
as(g565
S'beach_ball'
p1174
tp1175
(lp1176
(g569
g1174
tp1177
as(g130
g1059
tp1178
(lp1179
(g134
g1059
tp1180
as(g361
S'reed'
p1181
tp1182
(lp1183
(g353
g1181
tp1184
as(g124
g413
tp1185
(lp1186
(g128
g413
tp1187
as(g320
S'bank_vault'
p1188
tp1189
(lp1190
(g324
g1188
tp1191
as(g280
S'cookie'
p1192
tp1193
(lp1194
(g284
g1192
tp1195
as(S'inanimate'
p1196
S'tree'
p1197
tp1198
(lp1199
(S'animate'
p1200
g1197
tp1201
as(g59
S'telegraph_pole'
p1202
tp1203
(lp1204
(g63
g1202
tp1205
a(g65
g1202
tp1206
a(g67
g1202
tp1207
a(g69
g1202
tp1208
as(g71
S'crocodile'
p1209
tp1210
(lp1211
(g75
g1209
tp1212
as(g390
S'milk_cow'
p1213
tp1214
(lp1215
(g394
g1213
tp1216
as(g759
S'glacier'
p1217
tp1218
(lp1219
(g762
g1217
tp1220
as(g29
S'toddler'
p1221
tp1222
(lp1223
(g25
g1221
tp1224
as(g5
S'potato_chip'
p1225
tp1226
(lp1227
(g1
g1225
tp1228
as(g577
S'rod'
p1229
tp1230
(lp1231
(g31
g1229
tp1232
as(g378
S'pup'
p1233
tp1234
(lp1235
(g374
g1233
tp1236
as(g856
S'dance_floor'
p1237
tp1238
(lp1239
(g860
g1237
tp1240
as(g99
g453
tp1241
(lp1242
(g103
g453
tp1243
a(g105
g453
tp1244
a(g107
g453
tp1245
as(g294
S'sea_anemone'
p1246
tp1247
(lp1248
(g290
g1246
tp1249
a(g499
g1246
tp1250
as(g124
S'truck'
p1251
tp1252
(lp1253
(g128
g1251
tp1254
as(g290
S'adventure'
p1255
tp1256
(lp1257
(g294
g1255
tp1258
a(g296
g1255
tp1259
a(g298
g1255
tp1260
a(g300
g1255
tp1261
a(g302
g1255
tp1262
a(g304
g1255
tp1263
as(S'seamless'
p1264
g216
tp1265
(lp1266
(S'seamed'
p1267
g216
tp1268
as(g13
S'cyclone'
p1269
tp1270
(lp1271
(g17
g1269
tp1272
as(g25
S'slayer'
p1273
tp1274
(lp1275
(g29
g1273
tp1276
a(g31
g1273
tp1277
as(g237
S'temple'
p1278
tp1279
(lp1280
(g233
g1278
tp1281
a(g243
g1278
tp1282
as(g274
S'cannon_ball'
p1283
tp1284
(lp1285
(g278
g1283
tp1286
as(g7
S'fossil'
p1287
tp1288
(lp1289
(g11
g1287
tp1290
as(g25
g1109
tp1291
(lp1292
(g29
g1109
tp1293
a(g31
g1109
tp1294
as(g478
S'cpu'
p1295
tp1296
(lp1297
(g482
g1295
tp1298
as(g130
S'monument'
p1299
tp1300
(lp1301
(g134
g1299
tp1302
as(g19
S'soul'
p1303
tp1304
(lp1305
(g23
g1303
tp1306
as(g124
S'horse'
p1307
tp1308
(lp1309
(g128
g1307
tp1310
as(g134
g746
tp1311
(lp1312
(g130
g746
tp1313
as(g378
S'camel'
p1314
tp1315
(lp1316
(g374
g1314
tp1317
as(g13
S'ant'
p1318
tp1319
(lp1320
(g17
g1318
tp1321
as(g23
S'toothache'
p1322
tp1323
(lp1324
(g19
g1322
tp1325
a(S'impalpable'
p1326
g1322
tp1327
as(g114
S'encyclopedia'
p1328
tp1329
(lp1330
(g118
g1328
tp1331
as(S'invulnerable'
p1332
g306
tp1333
(lp1334
(S'vulnerable'
p1335
g306
tp1336
as(g565
S'sword'
p1337
tp1338
(lp1339
(g569
g1337
tp1340
as(g353
g1114
tp1341
(lp1342
(g357
g1114
tp1343
a(g359
g1114
tp1344
a(g361
g1114
tp1345
as(g478
S'encyclopaedia'
p1346
tp1347
(lp1348
(g482
g1346
tp1349
as(g25
S'viking'
p1350
tp1351
(lp1352
(g29
g1350
tp1353
a(g31
g1350
tp1354
as(g274
S'airplane'
p1355
tp1356
(lp1357
(g278
g1355
tp1358
as(g353
S'jailhouse'
p1359
tp1360
(lp1361
(g357
g1359
tp1362
a(g359
g1359
tp1363
a(g361
g1359
tp1364
as(g25
S'onion'
p1365
tp1366
(lp1367
(g29
g1365
tp1368
a(g31
g1365
tp1369
as(g233
S'pigpen'
p1370
tp1371
(lp1372
(g237
g1370
tp1373
as(g25
S'gorilla'
p1374
tp1375
(lp1376
(g29
g1374
tp1377
a(g31
g1374
tp1378
as(g49
g905
tp1379
(lp1380
(g53
g905
tp1381
a(g55
g905
tp1382
a(g57
g905
tp1383
as(g99
S'scythe'
p1384
tp1385
(lp1386
(g103
g1384
tp1387
a(g105
g1384
tp1388
a(g107
g1384
tp1389
as(g201
S'giraffe'
p1390
tp1391
(lp1392
(g205
g1390
tp1393
a(g207
g1390
tp1394
as(g134
g194
tp1395
(lp1396
(g130
g194
tp1397
as(g548
S'vicar'
p1398
tp1399
(lp1400
(g31
g1398
tp1401
as(S'wholesome'
p1402
S'quilting_bee'
p1403
tp1404
(lp1405
(S'unwholesome'
p1406
g1403
tp1407
as(g99
S'scimitar'
p1408
tp1409
(lp1410
(g103
g1408
tp1411
a(g105
g1408
tp1412
a(g107
g1408
tp1413
as(g59
S'poker'
p1414
tp1415
(lp1416
(g63
g1414
tp1417
a(g65
g1414
tp1418
a(g67
g1414
tp1419
a(g69
g1414
tp1420
as(g209
S'jail_cell'
p1421
tp1422
(lp1423
(g213
g1421
tp1424
as(S'fit'
p1425
g252
tp1426
(lp1427
(S'unfit'
p1428
g252
tp1429
as(S'cowardly'
p1430
g754
tp1431
(lp1432
(S'brave'
p1433
g754
tp1434
as(g17
g1059
tp1435
(lp1436
(g13
g1059
tp1437
as(g723
S'teammate'
p1438
tp1439
(lp1440
(g727
g1438
tp1441
as(g71
S'sin'
p1442
tp1443
(lp1444
(g75
g1442
tp1445
as(g13
S'armadillo'
p1446
tp1447
(lp1448
(g17
g1446
tp1449
as(S'blind'
p1450
S'mole'
p1451
tp1452
(lp1453
(S'sighted'
p1454
g1451
tp1455
as(g71
S'sea_slug'
p1456
tp1457
(lp1458
(g75
g1456
tp1459
as(g548
S'hercules'
p1460
tp1461
(lp1462
(g31
g1460
tp1463
as(g478
S'mainframe'
p1464
tp1465
(lp1466
(g482
g1464
tp1467
as(g29
S'lamb'
p1468
tp1469
(lp1470
(g25
g1468
tp1471
as(g856
g1114
tp1472
(lp1473
(g860
g1114
tp1474
as(g353
S'dumbbell'
p1475
tp1476
(lp1477
(g357
g1475
tp1478
a(g359
g1475
tp1479
a(g361
g1475
tp1480
as(g280
S'marathon_runner'
p1481
tp1482
(lp1483
(g284
g1481
tp1484
as(g25
S'water_buffalo'
p1485
tp1486
(lp1487
(g29
g1485
tp1488
a(g31
g1485
tp1489
as(S'integrated'
p1490
S'computer_circuit'
p1491
tp1492
(lp1493
(S'nonintegrated'
p1494
g1491
tp1495
a(S'segregated'
p1496
g1491
tp1497
as(g13
S'raptor'
p1498
tp1499
(lp1500
(g17
g1498
tp1501
as(g49
S'lark'
p1502
tp1503
(lp1504
(g53
g1502
tp1505
a(g55
g1502
tp1506
a(g57
g1502
tp1507
as(S'elastic'
p1508
S'balloon'
p1509
tp1510
(lp1511
(S'inelastic'
p1512
g1509
tp1513
as(g553
S'blacksmith'
p1514
tp1515
(lp1516
(g557
g1514
tp1517
a(g559
g1514
tp1518
as(g82
S'yoke'
p1519
tp1520
(lp1521
(g86
g1519
tp1522
a(g88
g1519
tp1523
as(g968
S'dishrag'
p1524
tp1525
(lp1526
(g972
g1524
tp1527
as(g41
S'barrel'
p1528
tp1529
(lp1530
(g45
g1528
tp1531
a(g47
g1528
tp1532
as(S'substantial'
p1533
S'meringue'
p1534
tp1535
(lp1536
(S'insubstantial'
p1537
g1534
tp1538
as(g19
g267
tp1539
(lp1540
(g23
g267
tp1541
as(g77
g281
tp1542
(lp1543
(g31
g281
tp1544
as(g147
S'caress'
p1545
tp1546
(lp1547
(g141
g1545
tp1548
a(g457
g1545
tp1549
a(g459
g1545
tp1550
a(g461
g1545
tp1551
a(g463
g1545
tp1552
as(g130
S'corpse'
p1553
tp1554
(lp1555
(g134
g1553
tp1556
as(g201
S'rope'
p1557
tp1558
(lp1559
(g205
g1557
tp1560
a(g207
g1557
tp1561
as(g29
S'waft'
p1562
tp1563
(lp1564
(g25
g1562
tp1565
as(g82
S'garter_belt'
p1566
tp1567
(lp1568
(g86
g1566
tp1569
a(g88
g1566
tp1570
as(g29
S'rag_doll'
p1571
tp1572
(lp1573
(g25
g1571
tp1574
as(g374
S'sheep'
p1575
tp1576
(lp1577
(g378
g1575
tp1578
as(g151
S'thunderstorm'
p1579
tp1580
(lp1581
(g155
g1579
tp1582
a(g157
g1579
tp1583
as(g99
S'whip'
p1584
tp1585
(lp1586
(g103
g1584
tp1587
a(g105
g1584
tp1588
a(g107
g1584
tp1589
as(g49
S'flower_bud'
p1590
tp1591
(lp1592
(g53
g1590
tp1593
a(g55
g1590
tp1594
a(g57
g1590
tp1595
as(g280
S'dessert'
p1596
tp1597
(lp1598
(g284
g1596
tp1599
as(g353
S'boxer'
p1600
tp1601
(lp1602
(g357
g1600
tp1603
a(g359
g1600
tp1604
a(g361
g1600
tp1605
as(g124
S'granite'
p1606
tp1607
(lp1608
(g128
g1606
tp1609
as(S'capable'
p1610
S'penguin'
p1611
tp1612
(lp1613
(S'incapable'
p1614
g1611
tp1615
as(S'sick'
p1616
g862
tp1617
(lp1618
(S'well'
p1619
g862
tp1620
as(g141
S'heavyweight'
p1621
tp1622
(lp1623
(g145
g1621
tp1624
a(g147
g1621
tp1625
a(g149
g1621
tp1626
as(g25
S'knight'
p1627
tp1628
(lp1629
(g29
g1627
tp1630
a(g31
g1627
tp1631
as(g134
S'vehicle'
p1632
tp1633
(lp1634
(g130
g1632
tp1635
as(g361
S'bone'
p1636
tp1637
(lp1638
(g353
g1636
tp1639
as(g71
S'war_zone'
p1640
tp1641
(lp1642
(g75
g1640
tp1643
as(g374
S'gazelle'
p1644
tp1645
(lp1646
(g378
g1644
tp1647
as(g141
g1514
tp1648
(lp1649
(g145
g1514
tp1650
a(g147
g1514
tp1651
a(g149
g1514
tp1652
as(g1425
g1307
tp1653
(lp1654
(g1428
g1307
tp1655
as(g231
S'biscuit'
p1656
tp1657
(lp1658
(g227
g1656
tp1659
a(g768
g1656
tp1660
a(g770
g1656
tp1661
as(g274
g905
tp1662
(lp1663
(g278
g905
tp1664
as(g396
S'drunk'
p1665
tp1666
(lp1667
(g400
g1665
tp1668
a(g45
g1665
tp1669
as(g141
S'bullet'
p1670
tp1671
(lp1672
(g145
g1670
tp1673
a(g147
g1670
tp1674
a(g149
g1670
tp1675
as(g1402
S'hymn'
p1676
tp1677
(lp1678
(g1406
g1676
tp1679
as(g13
S'rambler'
p1680
tp1681
(lp1682
(g17
g1680
tp1683
as(g278
S'bird'
p1684
tp1685
(lp1686
(g274
g1684
tp1687
a(g546
g1684
tp1688
as(g82
S'miser'
p1689
tp1690
(lp1691
(g86
g1689
tp1692
a(g88
g1689
tp1693
as(g99
g936
tp1694
(lp1695
(g103
g936
tp1696
a(g105
g936
tp1697
a(g107
g936
tp1698
as(S'juicy'
p1699
S'nectarine'
p1700
tp1701
(lp1702
(S'juiceless'
p1703
g1700
tp1704
as(g25
S'dandelion'
p1705
tp1706
(lp1707
(g29
g1705
tp1708
a(g31
g1705
tp1709
as(g49
S'ingenue'
p1710
tp1711
(lp1712
(g53
g1710
tp1713
a(g55
g1710
tp1714
a(g57
g1710
tp1715
as(g215
g1534
tp1716
(lp1717
(g219
g1534
tp1718
as(g445
S'womb'
p1719
tp1720
(lp1721
(g449
g1719
tp1722
a(g451
g1719
tp1723
as(g723
S'family'
p1724
tp1725
(lp1726
(g727
g1724
tp1727
as(g13
S'eagle'
p1728
tp1729
(lp1730
(g17
g1728
tp1731
as(g374
g1251
tp1732
(lp1733
(g378
g1251
tp1734
as(g1425
g702
tp1735
(lp1736
(g1428
g702
tp1737
as(g1450
S'bat'
p1738
tp1739
(lp1740
(g1454
g1738
tp1741
as(g25
g8
tp1742
(lp1743
(g29
g8
tp1744
a(g31
g8
tp1745
as(g71
S'toad'
p1746
tp1747
(lp1748
(g75
g1746
tp1749
as(g655
g310
tp1750
(lp1751
(g107
g310
tp1752
a(g1167
g310
tp1753
a(g1169
g310
tp1754
as(g25
S'twig'
p1755
tp1756
(lp1757
(g29
g1755
tp1758
a(g31
g1755
tp1759
as(g280
g34
tp1760
(lp1761
(g284
g34
tp1762
as(g159
g652
tp1763
(lp1764
(g163
g652
tp1765
as(g13
g824
tp1766
(lp1767
(g17
g824
tp1768
as(g23
g245
tp1769
(lp1770
(g19
g245
tp1771
a(g1326
g245
tp1772
as(S'tangled'
p1773
S'soap_opera'
p1774
tp1775
(lp1776
(S'untangled'
p1777
g1774
tp1778
as(g147
S'poodle'
p1779
tp1780
(lp1781
(g141
g1779
tp1782
a(g457
g1779
tp1783
a(g459
g1779
tp1784
a(g461
g1779
tp1785
a(g463
g1779
tp1786
as(g99
S'teaspoon'
p1787
tp1788
(lp1789
(g103
g1787
tp1790
a(g105
g1787
tp1791
a(g107
g1787
tp1792
as(S'orderly'
p1793
S'bank'
p1794
tp1795
(lp1796
(S'disorderly'
p1797
g1794
tp1798
as(g478
g1192
tp1799
(lp1800
(g482
g1192
tp1801
as(S'explosive'
p1802
S'molotov_cocktail'
p1803
tp1804
(lp1805
(S'nonexplosive'
p1806
g1803
tp1807
as(g378
S'hound_dog'
p1808
tp1809
(lp1810
(g374
g1808
tp1811
as(g177
g702
tp1812
(lp1813
(g181
g702
tp1814
as(g33
S'organism'
p1815
tp1816
(lp1817
(g37
g1815
tp1818
a(g39
g1815
tp1819
as(g151
S'pumice_stone'
p1820
tp1821
(lp1822
(g155
g1820
tp1823
a(g157
g1820
tp1824
as(g723
S'parent'
p1825
tp1826
(lp1827
(g727
g1825
tp1828
as(g565
S'syringe'
p1829
tp1830
(lp1831
(g569
g1829
tp1832
as(g526
S'bomber'
p1833
tp1834
(lp1835
(g530
g1833
tp1836
a(g532
g1833
tp1837
as(g17
g862
tp1838
(lp1839
(g13
g862
tp1840
as(g280
S'donut'
p1841
tp1842
(lp1843
(g284
g1841
tp1844
as(g631
S'beehive'
p1845
tp1846
(lp1847
(g103
g1845
tp1848
as(g25
S'bulldozer'
p1849
tp1850
(lp1851
(g29
g1849
tp1852
a(g31
g1849
tp1853
as(g278
S'salad'
p1854
tp1855
(lp1856
(g274
g1854
tp1857
a(g546
g1854
tp1858
as(g553
g909
tp1859
(lp1860
(g557
g909
tp1861
a(g559
g909
tp1862
as(g353
S'bowling_ball'
p1863
tp1864
(lp1865
(g357
g1863
tp1866
a(g359
g1863
tp1867
a(g361
g1863
tp1868
as(g151
S'cactus'
p1869
tp1870
(lp1871
(g155
g1869
tp1872
a(g157
g1869
tp1873
as(g1402
S'apple_pie'
p1874
tp1875
(lp1876
(g1406
g1874
tp1877
as(g290
g1845
tp1878
(lp1879
(g294
g1845
tp1880
a(g296
g1845
tp1881
a(g298
g1845
tp1882
a(g300
g1845
tp1883
a(g302
g1845
tp1884
a(g304
g1845
tp1885
as(S'woody'
p1886
S'shrub'
p1887
tp1888
(lp1889
(S'nonwoody'
p1890
g1887
tp1891
as(g994
S'razor'
p1892
tp1893
(lp1894
(g998
g1892
tp1895
as(g124
S'hickory_tree'
p1896
tp1897
(lp1898
(g128
g1896
tp1899
as(g147
S'mattress'
p1900
tp1901
(lp1902
(g141
g1900
tp1903
a(g457
g1900
tp1904
a(g459
g1900
tp1905
a(g461
g1900
tp1906
a(g463
g1900
tp1907
as(g1699
S'lychee'
p1908
tp1909
(lp1910
(g1703
g1908
tp1911
as(g77
S'truth_serum'
p1912
tp1913
(lp1914
(g31
g1912
tp1915
as(g25
S'dump_truck'
p1916
tp1917
(lp1918
(g29
g1916
tp1919
a(g31
g1916
tp1920
as(g445
S'hospital'
p1921
tp1922
(lp1923
(g449
g1921
tp1924
a(g451
g1921
tp1925
as(g515
S'spirit'
p1926
tp1927
(lp1928
(g518
g1926
tp1929
as(g445
g131
tp1930
(lp1931
(g449
g131
tp1932
a(g451
g131
tp1933
as(g1699
S'porterhouse_steak'
p1934
tp1935
(lp1936
(g1703
g1934
tp1937
as(g548
g281
tp1938
(lp1939
(g31
g281
tp1940
as(g82
S'marriage'
p1941
tp1942
(lp1943
(g86
g1941
tp1944
a(g88
g1941
tp1945
as(g124
S'chinook'
p1946
tp1947
(lp1948
(g128
g1946
tp1949
as(g972
g1553
tp1950
(lp1951
(g968
g1553
tp1952
as(g107
g857
tp1953
(lp1954
(g655
g857
tp1955
a(g657
g857
tp1956
a(g659
g857
tp1957
a(g105
g857
tp1958
a(g99
g857
tp1959
as(g193
g245
tp1960
(lp1961
(g197
g245
tp1962
a(g199
g245
tp1963
as(g815
S'culture_medium'
p1964
tp1965
(lp1966
(g819
g1964
tp1967
as(g631
S'cocktail_party'
p1968
tp1969
(lp1970
(g103
g1968
tp1971
as(g29
S'chicken'
p1972
tp1973
(lp1974
(g25
g1972
tp1975
as(g856
S'earthquake'
p1976
tp1977
(lp1978
(g860
g1976
tp1979
as(S'effortless'
p1980
S'prima_ballerina'
p1981
tp1982
(lp1983
(S'effortful'
p1984
g1981
tp1985
as(g215
g746
tp1986
(lp1987
(g219
g746
tp1988
as(g759
S'mirror'
p1989
tp1990
(lp1991
(g762
g1989
tp1992
as(g7
g604
tp1993
(lp1994
(g11
g604
tp1995
as(g631
S'convent'
p1996
tp1997
(lp1998
(g103
g1996
tp1999
as(S'ineffective'
p2000
S'pea_shooter'
p2001
tp2002
(lp2003
(S'effective'
p2004
g2001
tp2005
as(g33
g72
tp2006
(lp2007
(g37
g72
tp2008
a(g39
g72
tp2009
as(g147
g632
tp2010
(lp2011
(g141
g632
tp2012
a(g457
g632
tp2013
a(g459
g632
tp2014
a(g461
g632
tp2015
a(g463
g632
tp2016
as(g705
S'stapler'
p2017
tp2018
(lp2019
(g701
g2017
tp2020
as(g177
S'flea'
p2021
tp2022
(lp2023
(g181
g2021
tp2024
as(g124
S'nail'
p2025
tp2026
(lp2027
(g128
g2025
tp2028
as(g71
g2021
tp2029
(lp2030
(g75
g2021
tp2031
as(g33
S'forest'
p2032
tp2033
(lp2034
(g37
g2032
tp2035
a(g39
g2032
tp2036
as(g147
S'fur_coat'
p2037
tp2038
(lp2039
(g141
g2037
tp2040
a(g457
g2037
tp2041
a(g459
g2037
tp2042
a(g461
g2037
tp2043
a(g463
g2037
tp2044
as(g193
S'painting'
p2045
tp2046
(lp2047
(g197
g2045
tp2048
a(g199
g2045
tp2049
as(g1802
S'petrol_bomb'
p2050
tp2051
(lp2052
(g1806
g2050
tp2053
as(g7
S'amoeba'
p2054
tp2055
(lp2056
(g11
g2054
tp2057
as(g7
g1059
tp2058
(lp2059
(g11
g1059
tp2060
as(g843
S'torrent'
p2061
tp2062
(lp2063
(g847
g2061
tp2064
a(g147
g2061
tp2065
a(g850
g2061
tp2066
as(g753
S'willow'
p2067
tp2068
(lp2069
(g757
g2067
tp2070
as(g99
S'engraver'
p2071
tp2072
(lp2073
(g103
g2071
tp2074
a(g105
g2071
tp2075
a(g107
g2071
tp2076
as(g99
S'laser_printer'
p2077
tp2078
(lp2079
(g103
g2077
tp2080
a(g105
g2077
tp2081
a(g107
g2077
tp2082
as(g25
S'wolf'
p2083
tp2084
(lp2085
(g29
g2083
tp2086
a(g31
g2083
tp2087
as(g553
S'shire_horse'
p2088
tp2089
(lp2090
(g557
g2088
tp2091
a(g559
g2088
tp2092
as(g63
S'lawyer'
p2093
tp2094
(lp2095
(g59
g2093
tp2096
as(g33
S'heartbeat'
p2097
tp2098
(lp2099
(g37
g2097
tp2100
a(g39
g2097
tp2101
as(g215
S'mirage'
p2102
tp2103
(lp2104
(g219
g2102
tp2105
as(g25
S'espresso'
p2106
tp2107
(lp2108
(g29
g2106
tp2109
a(g31
g2106
tp2110
as(g209
g1188
tp2111
(lp2112
(g213
g1188
tp2113
as(g759
S'rainforest'
p2114
tp2115
(lp2116
(g762
g2114
tp2117
as(g71
S'vulture'
p2118
tp2119
(lp2120
(g75
g2118
tp2121
as(g701
S'brain_surgery'
p2122
tp2123
(lp2124
(g705
g2122
tp2125
as(g25
S'buffalo'
p2126
tp2127
(lp2128
(g29
g2126
tp2129
a(g31
g2126
tp2130
as(g577
S'stick'
p2131
tp2132
(lp2133
(g31
g2131
tp2134
as(g59
S'needle'
p2135
tp2136
(lp2137
(g63
g2135
tp2138
a(g65
g2135
tp2139
a(g67
g2135
tp2140
a(g69
g2135
tp2141
as(S'wrinkled'
p2142
S'raisin'
p2143
tp2144
(lp2145
(S'unwrinkled'
p2146
g2143
tp2147
a(S'ironed'
p2148
g2143
tp2149
as(g141
g1863
tp2150
(lp2151
(g145
g1863
tp2152
a(g147
g1863
tp2153
a(g149
g1863
tp2154
as(g280
g1854
tp2155
(lp2156
(g284
g1854
tp2157
as(g193
S'photograph'
p2158
tp2159
(lp2160
(g197
g2158
tp2161
a(g199
g2158
tp2162
as(g221
g1005
tp2163
(lp2164
(g225
g1005
tp2165
as(g63
S'politician'
p2166
tp2167
(lp2168
(g59
g2166
tp2169
as(g233
S'pig'
p2170
tp2171
(lp2172
(g237
g2170
tp2173
as(g177
S'weed'
p2174
tp2175
(lp2176
(g181
g2174
tp2177
as(g25
S'elephant'
p2178
tp2179
(lp2180
(g29
g2178
tp2181
a(g31
g2178
tp2182
as(g59
S'line'
p2183
tp2184
(lp2185
(g63
g2183
tp2186
a(g65
g2183
tp2187
a(g67
g2183
tp2188
a(g69
g2183
tp2189
as(g163
S'tiger'
p2190
tp2191
(lp2192
(g159
g2190
tp2193
as(g1425
S'alley_cat'
p2194
tp2195
(lp2196
(g1428
g2194
tp2197
as(g705
g2114
tp2198
(lp2199
(g701
g2114
tp2200
as(g25
S'cart_horse'
p2201
tp2202
(lp2203
(g29
g2201
tp2204
a(g31
g2201
tp2205
as(g99
S'tooth'
p2206
tp2207
(lp2208
(g103
g2206
tp2209
a(g105
g2206
tp2210
a(g107
g2206
tp2211
as(g99
S'butcher_knife'
p2212
tp2213
(lp2214
(g103
g2212
tp2215
a(g105
g2212
tp2216
a(g107
g2212
tp2217
as(g59
S'broom_handle'
p2218
tp2219
(lp2220
(g63
g2218
tp2221
a(g65
g2218
tp2222
a(g67
g2218
tp2223
a(g69
g2218
tp2224
as(g17
g702
tp2225
(lp2226
(g13
g702
tp2227
as(g374
S'stork'
p2228
tp2229
(lp2230
(g378
g2228
tp2231
as(g19
S'smell'
p2232
tp2233
(lp2234
(g23
g2232
tp2235
as(g1610
S'laptop_computer'
p2236
tp2237
(lp2238
(g1614
g2236
tp2239
as(g968
S'coffee_bean'
p2240
tp2241
(lp2242
(g972
g2240
tp2243
as(g130
S'cathedral'
p2244
tp2245
(lp2246
(g134
g2244
tp2247
as(g278
S'pickup_truck'
p2248
tp2249
(lp2250
(g274
g2248
tp2251
a(g546
g2248
tp2252
as(g99
g1841
tp2253
(lp2254
(g103
g1841
tp2255
a(g105
g1841
tp2256
a(g107
g1841
tp2257
as(S'spineless'
p2258
S'chocolate_eclair'
p2259
tp2260
(lp2261
(S'vertebrate'
p2262
g2259
tp2263
a(S'spinous'
p2264
g2259
tp2265
as(g147
S'petal'
p2266
tp2267
(lp2268
(g141
g2266
tp2269
a(g457
g2266
tp2270
a(g459
g2266
tp2271
a(g461
g2266
tp2272
a(g463
g2266
tp2273
as(g141
g1534
tp2274
(lp2275
(g145
g1534
tp2276
a(g147
g1534
tp2277
a(g149
g1534
tp2278
as(g37
S'dodo'
p2279
tp2280
(lp2281
(g33
g2279
tp2282
a(g1063
g2279
tp2283
as(g201
S'tortilla'
p2284
tp2285
(lp2286
(g205
g2284
tp2287
a(g207
g2284
tp2288
as(g33
S'jungle'
p2289
tp2290
(lp2291
(g37
g2289
tp2292
a(g39
g2289
tp2293
as(g231
S'sand_trap'
p2294
tp2295
(lp2296
(g227
g2294
tp2297
a(g768
g2294
tp2298
a(g770
g2294
tp2299
as(S'tense'
p2300
S'bow'
p2301
tp2302
(lp2303
(S'relaxed'
p2304
g2301
tp2305
a(S'lax'
p2306
g2301
tp2307
as(g141
g1606
tp2308
(lp2309
(g145
g1606
tp2310
a(g147
g1606
tp2311
a(g149
g1606
tp2312
as(g49
S'rookie'
p2313
tp2314
(lp2315
(g53
g2313
tp2316
a(g55
g2313
tp2317
a(g57
g2313
tp2318
as(g219
S'battleship'
p2319
tp2320
(lp2321
(g215
g2319
tp2322
a(g602
g2319
tp2323
as(g130
S'mountain_range'
p2324
tp2325
(lp2326
(g134
g2324
tp2327
as(g1
S'rocket'
p2328
tp2329
(lp2330
(g5
g2328
tp2331
as(g13
S'snail'
p2332
tp2333
(lp2334
(g17
g2332
tp2335
as(g278
S'duckling'
p2336
tp2337
(lp2338
(g274
g2336
tp2339
a(g546
g2336
tp2340
as(g695
S'whopper'
p2341
tp2342
(lp2343
(g699
g2341
tp2344
as(g25
S'crowbar'
p2345
tp2346
(lp2347
(g29
g2345
tp2348
a(g31
g2345
tp2349
as(g237
g1892
tp2350
(lp2351
(g233
g1892
tp2352
a(g243
g1892
tp2353
as(g577
S'spine'
p2354
tp2355
(lp2356
(g31
g2354
tp2357
as(g374
S'minuet'
p2358
tp2359
(lp2360
(g378
g2358
tp2361
as(g25
g1197
tp2362
(lp2363
(g29
g1197
tp2364
a(g31
g1197
tp2365
as(g631
S'market'
p2366
tp2367
(lp2368
(g103
g2366
tp2369
as(g37
S'cemetery'
p2370
tp2371
(lp2372
(g33
g2370
tp2373
a(g1063
g2370
tp2374
as(g13
S'ostrich'
p2375
tp2376
(lp2377
(g17
g2375
tp2378
as(g205
g2345
tp2379
(lp2380
(g201
g2345
tp2381
a(g181
g2345
tp2382
as(g577
g1337
tp2383
(lp2384
(g31
g1337
tp2385
as(g82
S'shroud'
p2386
tp2387
(lp2388
(g86
g2386
tp2389
a(g88
g2386
tp2390
as(g1610
g468
tp2391
(lp2392
(g1614
g468
tp2393
as(g445
g354
tp2394
(lp2395
(g449
g354
tp2396
a(g451
g354
tp2397
as(g25
S'dragon'
p2398
tp2399
(lp2400
(g29
g2398
tp2401
a(g31
g2398
tp2402
as(g701
S'gauze_bandage'
p2403
tp2404
(lp2405
(g705
g2403
tp2406
as(g968
g1571
tp2407
(lp2408
(g972
g1571
tp2409
as(g29
S'teddy_bear'
p2410
tp2411
(lp2412
(g25
g2410
tp2413
as(g759
g354
tp2414
(lp2415
(g762
g354
tp2416
as(g1154
S'duck'
p2417
tp2418
(lp2419
(g1157
g2417
tp2420
as(g400
g1509
tp2421
(lp2422
(g396
g1509
tp2423
as(g71
S'halibut'
p2424
tp2425
(lp2426
(g75
g2424
tp2427
as(g968
S'puppy'
p2428
tp2429
(lp2430
(g972
g2428
tp2431
as(g400
S'prison_cell'
p2432
tp2433
(lp2434
(g396
g2432
tp2435
as(g147
g473
tp2436
(lp2437
(g141
g473
tp2438
a(g457
g473
tp2439
a(g459
g473
tp2440
a(g461
g473
tp2441
a(g463
g473
tp2442
as(g1332
g8
tp2443
(lp2444
(g1335
g8
tp2445
as(S'real'
p2446
S'puppet_show'
p2447
tp2448
(lp2449
(S'unreal'
p2450
g2447
tp2451
a(S'nominal'
p2452
g2447
tp2453
a(g1537
g2447
tp2454
as(g49
S'flower'
p2455
tp2456
(lp2457
(g53
g2455
tp2458
a(g55
g2455
tp2459
a(g57
g2455
tp2460
as(g723
S'fatwa'
p2461
tp2462
(lp2463
(g727
g2461
tp2464
as(g374
g1774
tp2465
(lp2466
(g378
g1774
tp2467
as(g2300
S'thriller'
p2468
tp2469
(lp2470
(g2304
g2468
tp2471
a(g2306
g2468
tp2472
as(g209
g1464
tp2473
(lp2474
(g213
g1464
tp2475
as(g1802
S'firecracker'
p2476
tp2477
(lp2478
(g1806
g2476
tp2479
as(g2258
g222
tp2480
(lp2481
(g2262
g222
tp2482
a(g2264
g222
tp2483
as(g82
S'tambourine'
p2484
tp2485
(lp2486
(g86
g2484
tp2487
a(g88
g2484
tp2488
as(g193
g844
tp2489
(lp2490
(g197
g844
tp2491
a(g199
g844
tp2492
as(g7
S'sponge'
p2493
tp2494
(lp2495
(g11
g2493
tp2496
as(S'organic'
p2497
S'dump'
p2498
tp2499
(lp2500
(S'inorganic'
p2501
g2498
tp2502
a(S'functional'
p2503
g2498
tp2504
as(g657
g610
tp2505
(lp2506
(g107
g610
tp2507
as(g49
S'beginner'
p2508
tp2509
(lp2510
(g53
g2508
tp2511
a(g55
g2508
tp2512
a(g57
g2508
tp2513
as(g134
S'hare'
p2514
tp2515
(lp2516
(g130
g2514
tp2517
as(g374
S'swallow'
p2518
tp2519
(lp2520
(g378
g2518
tp2521
as(g99
S'laser_beam'
p2522
tp2523
(lp2524
(g103
g2522
tp2525
a(g105
g2522
tp2526
a(g107
g2522
tp2527
as(g221
g326
tp2528
(lp2529
(g225
g326
tp2530
as(g856
g339
tp2531
(lp2532
(g860
g339
tp2533
as(g37
S'mutton'
p2534
tp2535
(lp2536
(g33
g2534
tp2537
a(g1063
g2534
tp2538
as(g99
g1534
tp2539
(lp2540
(g103
g1534
tp2541
a(g105
g1534
tp2542
a(g107
g1534
tp2543
as(g320
g844
tp2544
(lp2545
(g324
g844
tp2546
as(g107
S'snowflake'
p2547
tp2548
(lp2549
(g655
g2547
tp2550
a(g657
g2547
tp2551
a(g659
g2547
tp2552
a(g105
g2547
tp2553
a(g99
g2547
tp2554
as(g193
S'morgue'
p2555
tp2556
(lp2557
(g197
g2555
tp2558
a(g199
g2555
tp2559
as(g71
S'wart'
p2560
tp2561
(lp2562
(g75
g2560
tp2563
as(g251
S'robot'
p2564
tp2565
(lp2566
(g255
g2564
tp2567
as(g478
S'microchip'
p2568
tp2569
(lp2570
(g482
g2568
tp2571
as(g215
g306
tp2572
(lp2573
(g219
g306
tp2574
as(g215
S'orchid'
p2575
tp2576
(lp2577
(g219
g2575
tp2578
as(g631
S'wax_figure'
p2579
tp2580
(lp2581
(g103
g2579
tp2582
as(g482
S'sunbeam'
p2583
tp2584
(lp2585
(g478
g2583
tp2586
a(S'compound'
p2587
g2583
tp2588
as(g141
S'oak'
p2589
tp2590
(lp2591
(g145
g2589
tp2592
a(g147
g2589
tp2593
a(g149
g2589
tp2594
as(g25
g857
tp2595
(lp2596
(g29
g857
tp2597
a(g31
g857
tp2598
as(g17
S'garbage_truck'
p2599
tp2600
(lp2601
(g13
g2599
tp2602
as(g753
S'wind'
p2603
tp2604
(lp2605
(g757
g2603
tp2606
as(g177
S'skyscraper'
p2607
tp2608
(lp2609
(g181
g2607
tp2610
as(g147
g2547
tp2611
(lp2612
(g141
g2547
tp2613
a(g457
g2547
tp2614
a(g459
g2547
tp2615
a(g461
g2547
tp2616
a(g463
g2547
tp2617
as(g49
S'peach'
p2618
tp2619
(lp2620
(g53
g2618
tp2621
a(g55
g2618
tp2622
a(g57
g2618
tp2623
as(g33
S'volcano'
p2624
tp2625
(lp2626
(g37
g2624
tp2627
a(g39
g2624
tp2628
as(g353
g194
tp2629
(lp2630
(g357
g194
tp2631
a(g359
g194
tp2632
a(g361
g194
tp2633
as(S'weightless'
p2634
S'dream'
p2635
tp2636
(lp2637
(S'weighty'
p2638
g2635
tp2639
as(g631
g780
tp2640
(lp2641
(g103
g780
tp2642
as(g124
S'rancher'
p2643
tp2644
(lp2645
(g128
g2643
tp2646
as(g49
g1217
tp2647
(lp2648
(g53
g1217
tp2649
a(g55
g1217
tp2650
a(g57
g1217
tp2651
as(g994
S'mustang'
p2652
tp2653
(lp2654
(g998
g2652
tp2655
as(g526
S'cuckoo_clock'
p2656
tp2657
(lp2658
(g530
g2656
tp2659
a(g532
g2656
tp2660
as(g124
g34
tp2661
(lp2662
(g128
g34
tp2663
as(g201
S'snake'
p2664
tp2665
(lp2666
(g205
g2664
tp2667
a(g207
g2664
tp2668
as(g118
S'manx_cat'
p2669
tp2670
(lp2671
(g114
g2669
tp2672
as(g1793
S'map'
p2673
tp2674
(lp2675
(g1797
g2673
tp2676
as(g553
S'football_player'
p2677
tp2678
(lp2679
(g557
g2677
tp2680
a(g559
g2677
tp2681
as(g82
S'pressure_cooker'
p2682
tp2683
(lp2684
(g86
g2682
tp2685
a(g88
g2682
tp2686
as(g478
S'chess_game'
p2687
tp2688
(lp2689
(g482
g2687
tp2690
as(g49
S'shower'
p2691
tp2692
(lp2693
(g53
g2691
tp2694
a(g55
g2691
tp2695
a(g57
g2691
tp2696
as(g124
g1627
tp2697
(lp2698
(g128
g1627
tp2699
as(g353
g2313
tp2700
(lp2701
(g357
g2313
tp2702
a(g359
g2313
tp2703
a(g361
g2313
tp2704
as(g209
S'bunker'
p2705
tp2706
(lp2707
(g213
g2705
tp2708
as(g163
g636
tp2709
(lp2710
(g159
g636
tp2711
as(g99
S'hammer'
p2712
tp2713
(lp2714
(g103
g2712
tp2715
a(g105
g2712
tp2716
a(g107
g2712
tp2717
as(g99
S'burr'
p2718
tp2719
(lp2720
(g103
g2718
tp2721
a(g105
g2718
tp2722
a(g107
g2718
tp2723
as(g968
g2190
tp2724
(lp2725
(g972
g2190
tp2726
as(g99
S'icicle'
p2727
tp2728
(lp2729
(g103
g2727
tp2730
a(g105
g2727
tp2731
a(g107
g2727
tp2732
as(g124
S'hacksaw'
p2733
tp2734
(lp2735
(g128
g2733
tp2736
as(g201
g2564
tp2737
(lp2738
(g205
g2564
tp2739
a(g207
g2564
tp2740
as(g29
g632
tp2741
(lp2742
(g25
g632
tp2743
as(S'skilled'
p2744
S'chef'
p2745
tp2746
(lp2747
(S'unskilled'
p2748
g2745
tp2749
as(S'flimsy'
p2750
g216
tp2751
(lp2752
(S'convincing'
p2753
g216
tp2754
as(g577
g194
tp2755
(lp2756
(g31
g194
tp2757
as(g251
g800
tp2758
(lp2759
(g255
g800
tp2760
as(g147
S'cloud'
p2761
tp2762
(lp2763
(g141
g2761
tp2764
a(g457
g2761
tp2765
a(g459
g2761
tp2766
a(g461
g2761
tp2767
a(g463
g2761
tp2768
as(S'mortal'
p2769
g1553
tp2770
(lp2771
(S'immortal'
p2772
g1553
tp2773
as(g374
S'mountain_lion'
p2774
tp2775
(lp2776
(g378
g2774
tp2777
as(g37
S'tumbleweed'
p2778
tp2779
(lp2780
(g33
g2778
tp2781
a(g1063
g2778
tp2782
as(g177
g1606
tp2783
(lp2784
(g181
g1606
tp2785
as(g374
g403
tp2786
(lp2787
(g378
g403
tp2788
as(g723
S'husband'
p2789
tp2790
(lp2791
(g727
g2789
tp2792
as(g151
S'cob'
p2793
tp2794
(lp2795
(g155
g2793
tp2796
a(g157
g2793
tp2797
as(g77
S'tragedy'
p2798
tp2799
(lp2800
(g31
g2798
tp2801
as(g82
S'corset'
p2802
tp2803
(lp2804
(g86
g2802
tp2805
a(g88
g2802
tp2806
as(g353
g587
tp2807
(lp2808
(g357
g587
tp2809
a(g359
g587
tp2810
a(g361
g587
tp2811
as(g33
S'bacteria'
p2812
tp2813
(lp2814
(g37
g2812
tp2815
a(g39
g2812
tp2816
as(g177
S'beer_can'
p2817
tp2818
(lp2819
(g181
g2817
tp2820
as(g41
g2410
tp2821
(lp2822
(g45
g2410
tp2823
a(g47
g2410
tp2824
as(g99
S'soup_spoon'
p2825
tp2826
(lp2827
(g103
g2825
tp2828
a(g105
g2825
tp2829
a(g107
g2825
tp2830
as(g59
g1670
tp2831
(lp2832
(g63
g1670
tp2833
a(g65
g1670
tp2834
a(g67
g1670
tp2835
a(g69
g1670
tp2836
as(g374
g1611
tp2837
(lp2838
(g378
g1611
tp2839
as(g25
S'goldfish'
p2840
tp2841
(lp2842
(g29
g2840
tp2843
a(g31
g2840
tp2844
as(g759
g2289
tp2845
(lp2846
(g762
g2289
tp2847
as(g577
S'hardwood'
p2848
tp2849
(lp2850
(g31
g2848
tp2851
as(g17
S'striptease'
p2852
tp2853
(lp2854
(g13
g2852
tp2855
as(g37
g245
tp2856
(lp2857
(g33
g245
tp2858
a(g1063
g245
tp2859
as(g107
S'sunflower'
p2860
tp2861
(lp2862
(g655
g2860
tp2863
a(g657
g2860
tp2864
a(g659
g2860
tp2865
a(g105
g2860
tp2866
a(g99
g2860
tp2867
as(g361
S'coconut'
p2868
tp2869
(lp2870
(g353
g2868
tp2871
as(g7
S'ironing_board'
p2872
tp2873
(lp2874
(g11
g2872
tp2875
as(g237
S'whistle'
p2876
tp2877
(lp2878
(g233
g2876
tp2879
a(g243
g2876
tp2880
as(g227
S'diver'
p2881
tp2882
(lp2883
(g231
g2881
tp2884
as(g1699
g2618
tp2885
(lp2886
(g1703
g2618
tp2887
as(g1802
S'suicide_bomber'
p2888
tp2889
(lp2890
(g1806
g2888
tp2891
as(S'basic'
p2892
S'flashlight'
p2893
tp2894
(lp2895
(S'incidental'
p2896
g2893
tp2897
as(g94
S'melon'
p2898
tp2899
(lp2900
(g97
g2898
tp2901
as(g353
g306
tp2902
(lp2903
(g357
g306
tp2904
a(g359
g306
tp2905
a(g361
g306
tp2906
as(g1196
S'football'
p2907
tp2908
(lp2909
(g1200
g2907
tp2910
as(g1802
S'bomb'
p2911
tp2912
(lp2913
(g1806
g2911
tp2914
as(g134
g245
tp2915
(lp2916
(g130
g245
tp2917
as(g147
S'whisper'
p2918
tp2919
(lp2920
(g141
g2918
tp2921
a(g457
g2918
tp2922
a(g459
g2918
tp2923
a(g461
g2918
tp2924
a(g463
g2918
tp2925
as(g33
g1197
tp2926
(lp2927
(g37
g1197
tp2928
a(g39
g1197
tp2929
as(g141
S'pine_knot'
p2930
tp2931
(lp2932
(g145
g2930
tp2933
a(g147
g2930
tp2934
a(g149
g2930
tp2935
as(g2744
S'master'
p2936
tp2937
(lp2938
(g2748
g2936
tp2939
as(g99
S'wasp'
p2940
tp2941
(lp2942
(g103
g2940
tp2943
a(g105
g2940
tp2944
a(g107
g2940
tp2945
as(g124
S'plank'
p2946
tp2947
(lp2948
(g128
g2946
tp2949
as(g71
S'crab'
p2950
tp2951
(lp2952
(g75
g2950
tp2953
as(g7
g1337
tp2954
(lp2955
(g11
g1337
tp2956
as(g233
S'gargoyle'
p2957
tp2958
(lp2959
(g237
g2957
tp2960
as(g215
S'seashell'
p2961
tp2962
(lp2963
(g219
g2961
tp2964
as(g526
S'ham_sandwich'
p2965
tp2966
(lp2967
(g530
g2965
tp2968
a(g532
g2965
tp2969
as(g856
g8
tp2970
(lp2971
(g860
g8
tp2972
as(g25
S'gladiator'
p2973
tp2974
(lp2975
(g29
g2973
tp2976
a(g31
g2973
tp2977
as(g400
S'spam'
p2978
tp2979
(lp2980
(g396
g2978
tp2981
as(g25
S'wrestler'
p2982
tp2983
(lp2984
(g29
g2982
tp2985
a(g31
g2982
tp2986
as(g7
S'girder'
p2987
tp2988
(lp2989
(g11
g2987
tp2990
as(g25
S'predator'
p2991
tp2992
(lp2993
(g29
g2991
tp2994
a(g31
g2991
tp2995
as(S'immature'
p2996
S'kid'
p2997
tp2998
(lp2999
(S'mature'
p3000
g2997
tp3001
a(S'old'
p3002
g2997
tp3003
a(g94
g2997
tp3004
a(S'fledged'
p3005
g2997
tp3006
as(g631
S'colt'
p3007
tp3008
(lp3009
(g103
g3007
tp3010
as(g2300
S'fight'
p3011
tp3012
(lp3013
(g2304
g3011
tp3014
a(g2306
g3011
tp3015
as(g353
S'courthouse'
p3016
tp3017
(lp3018
(g357
g3016
tp3019
a(g359
g3016
tp3020
a(g361
g3016
tp3021
as(g701
S'cotton_ball'
p3022
tp3023
(lp3024
(g705
g3022
tp3025
as(g701
S'eunuch'
p3026
tp3027
(lp3028
(g705
g3026
tp3029
as(g631
g1468
tp3030
(lp3031
(g103
g1468
tp3032
as(g159
S'dromedary'
p3033
tp3034
(lp3035
(g163
g3033
tp3036
as(g71
g1738
tp3037
(lp3038
(g75
g1738
tp3039
as(g1425
S'fiddle'
p3040
tp3041
(lp3042
(g1428
g3040
tp3043
as(g25
g2319
tp3044
(lp3045
(g29
g2319
tp3046
a(g31
g2319
tp3047
as(g141
g194
tp3048
(lp3049
(g145
g194
tp3050
a(g147
g194
tp3051
a(g149
g194
tp3052
as(g71
S'asshole'
p3053
tp3054
(lp3055
(g75
g3053
tp3056
as(g251
g844
tp3057
(lp3058
(g255
g844
tp3059
as(g251
g1278
tp3060
(lp3061
(g255
g1278
tp3062
as(g363
g1611
tp3063
(lp3064
(g367
g1611
tp3065
as(g215
g364
tp3066
(lp3067
(g219
g364
tp3068
as(S'addicted'
p3069
S'heroin_addict'
p3070
tp3071
(lp3072
(S'unaddicted'
p3073
g3070
tp3074
as(g25
g1251
tp3075
(lp3076
(g29
g1251
tp3077
a(g31
g1251
tp3078
as(g59
S'basketball_hoop'
p3079
tp3080
(lp3081
(g63
g3079
tp3082
a(g65
g3079
tp3083
a(g67
g3079
tp3084
a(g69
g3079
tp3085
as(g163
S'hawk'
p3086
tp3087
(lp3088
(g159
g3086
tp3089
as(g1196
g495
tp3090
(lp3091
(g1200
g495
tp3092
as(g227
g234
tp3093
(lp3094
(g231
g234
tp3095
as(g82
g2301
tp3096
(lp3097
(g86
g2301
tp3098
a(g88
g2301
tp3099
as(g193
g339
tp3100
(lp3101
(g197
g339
tp3102
a(g199
g339
tp3103
as(g13
g1584
tp3104
(lp3105
(g17
g1584
tp3106
as(g215
g1590
tp3107
(lp3108
(g219
g1590
tp3109
as(g274
S'telephone_directory'
p3110
tp3111
(lp3112
(g278
g3110
tp3113
as(g577
S'cane'
p3114
tp3115
(lp3116
(g31
g3114
tp3117
as(g374
S'poet'
p3118
tp3119
(lp3120
(g378
g3118
tp3121
as(g2258
S'mollusk'
p3122
tp3123
(lp3124
(g2262
g3122
tp3125
a(g2264
g3122
tp3126
as(g2750
S'screen_door'
p3127
tp3128
(lp3129
(g2753
g3127
tp3130
as(g2750
g542
tp3131
(lp3132
(g2753
g542
tp3133
as(g353
g862
tp3134
(lp3135
(g357
g862
tp3136
a(g359
g862
tp3137
a(g361
g862
tp3138
as(g631
S'zombie'
p3139
tp3140
(lp3141
(g103
g3139
tp3142
as(g2744
S'grandmaster'
p3143
tp3144
(lp3145
(g2748
g3143
tp3146
as(g705
g2032
tp3147
(lp3148
(g701
g2032
tp3149
as(g41
S'burgher'
p3150
tp3151
(lp3152
(g45
g3150
tp3153
a(g47
g3150
tp3154
as(g983
g2324
tp3155
(lp3156
(g987
g2324
tp3157
as(g147
S'shipyard'
p3158
tp3159
(lp3160
(g141
g3158
tp3161
a(g457
g3158
tp3162
a(g459
g3158
tp3163
a(g461
g3158
tp3164
a(g463
g3158
tp3165
as(g163
g8
tp3166
(lp3167
(g159
g8
tp3168
as(g856
g2319
tp3169
(lp3170
(g860
g2319
tp3171
as(g577
S'plate'
p3172
tp3173
(lp3174
(g31
g3172
tp3175
as(g577
g610
tp3176
(lp3177
(g31
g610
tp3178
as(g1793
S'card_catalogue'
p3179
tp3180
(lp3181
(g1797
g3179
tp3182
as(g227
S'seashore'
p3183
tp3184
(lp3185
(g231
g3183
tp3186
as(g374
g252
tp3187
(lp3188
(g378
g252
tp3189
as(g695
S'tripledecker'
p3190
tp3191
(lp3192
(g699
g3190
tp3193
as(g130
S'boulder'
p3194
tp3195
(lp3196
(g134
g3194
tp3197
as(g219
S'anvil'
p3198
tp3199
(lp3200
(g215
g3198
tp3201
a(g602
g3198
tp3202
as(g134
g1307
tp3203
(lp3204
(g130
g1307
tp3205
as(g553
S'speed_skater'
p3206
tp3207
(lp3208
(g557
g3206
tp3209
a(g559
g3206
tp3210
as(g526
g610
tp3211
(lp3212
(g530
g610
tp3213
a(g532
g610
tp3214
as(g278
S'pillow'
p3215
tp3216
(lp3217
(g274
g3215
tp3218
a(g546
g3215
tp3219
as(g753
S'hummingbird'
p3220
tp3221
(lp3222
(g757
g3220
tp3223
as(g59
g2872
tp3224
(lp3225
(g63
g2872
tp3226
a(g65
g2872
tp3227
a(g67
g2872
tp3228
a(g69
g2872
tp3229
as(g94
S'grape'
p3230
tp3231
(lp3232
(g97
g3230
tp3233
as(g1508
S'spring'
p3234
tp3235
(lp3236
(g1512
g3234
tp3237
as(g33
g1553
tp3238
(lp3239
(g37
g1553
tp3240
a(g39
g1553
tp3241
as(S'balanced'
p3242
S'tightrope_walker'
p3243
tp3244
(lp3245
(S'unbalanced'
p3246
g3243
tp3247
as(g107
g291
tp3248
(lp3249
(g655
g291
tp3250
a(g657
g291
tp3251
a(g659
g291
tp3252
a(g105
g291
tp3253
a(g99
g291
tp3254
as(g237
S'surgeon'
p3255
tp3256
(lp3257
(g233
g3255
tp3258
a(g243
g3255
tp3259
as(g353
S'train'
p3260
tp3261
(lp3262
(g357
g3260
tp3263
a(g359
g3260
tp3264
a(g361
g3260
tp3265
as(g374
S'matador'
p3266
tp3267
(lp3268
(g378
g3266
tp3269
as(g193
S'coffin'
p3270
tp3271
(lp3272
(g197
g3270
tp3273
a(g199
g3270
tp3274
as(g99
g1509
tp3275
(lp3276
(g103
g1509
tp3277
a(g105
g1509
tp3278
a(g107
g1509
tp3279
as(g82
S'bathing_cap'
p3280
tp3281
(lp3282
(g86
g3280
tp3283
a(g88
g3280
tp3284
as(g147
S'chainsaw'
p3285
tp3286
(lp3287
(g141
g3285
tp3288
a(g457
g3285
tp3289
a(g459
g3285
tp3290
a(g461
g3285
tp3291
a(g463
g3285
tp3292
as(g1450
S'tree_stump'
p3293
tp3294
(lp3295
(g1454
g3293
tp3296
as(g141
S'rivet'
p3297
tp3298
(lp3299
(g145
g3297
tp3300
a(g147
g3297
tp3301
a(g149
g3297
tp3302
as(g37
g1553
tp3303
(lp3304
(g33
g1553
tp3305
a(g1063
g1553
tp3306
as(g445
S'library'
p3307
tp3308
(lp3309
(g449
g3307
tp3310
a(g451
g3307
tp3311
as(g363
S'hotdog'
p3312
tp3313
(lp3314
(g367
g3312
tp3315
as(g1425
S'fullback'
p3316
tp3317
(lp3318
(g1428
g3316
tp3319
as(g71
g391
tp3320
(lp3321
(g75
g391
tp3322
as(g25
g674
tp3323
(lp3324
(g29
g674
tp3325
a(g31
g674
tp3326
as(g29
S'schoolgirl'
p3327
tp3328
(lp3329
(g25
g3327
tp3330
as(g577
S'mast'
p3331
tp3332
(lp3333
(g31
g3331
tp3334
as(g1196
g245
tp3335
(lp3336
(g1200
g245
tp3337
as(g736
S'stump'
p3338
tp3339
(lp3340
(g740
g3338
tp3341
as(g7
S'pole'
p3342
tp3343
(lp3344
(g11
g3342
tp3345
as(g237
g1921
tp3346
(lp3347
(g233
g1921
tp3348
a(g243
g1921
tp3349
as(g274
g1849
tp3350
(lp3351
(g278
g1849
tp3352
as(g124
g3215
tp3353
(lp3354
(g128
g3215
tp3355
as(g374
g90
tp3356
(lp3357
(g378
g90
tp3358
as(g1046
S'soldier'
p3359
tp3360
(lp3361
(g1050
g3359
tp3362
a(g1052
g3359
tp3363
as(g25
g3198
tp3364
(lp3365
(g29
g3198
tp3366
a(g31
g3198
tp3367
as(g77
S'latte'
p3368
tp3369
(lp3370
(g31
g3368
tp3371
as(g237
S'cesspool'
p3372
tp3373
(lp3374
(g233
g3372
tp3375
a(g243
g3372
tp3376
as(g353
g160
tp3377
(lp3378
(g357
g160
tp3379
a(g359
g160
tp3380
a(g361
g160
tp3381
as(g71
S'turd'
p3382
tp3383
(lp3384
(g75
g3382
tp3385
as(g147
S'mink_coat'
p3386
tp3387
(lp3388
(g141
g3386
tp3389
a(g457
g3386
tp3390
a(g459
g3386
tp3391
a(g461
g3386
tp3392
a(g463
g3386
tp3393
as(g41
S'panda'
p3394
tp3395
(lp3396
(g45
g3394
tp3397
a(g47
g3394
tp3398
as(g71
S'ogre'
p3399
tp3400
(lp3401
(g75
g3399
tp3402
as(g82
S'dog_collar'
p3403
tp3404
(lp3405
(g86
g3403
tp3406
a(g88
g3403
tp3407
as(g565
S'quill'
p3408
tp3409
(lp3410
(g569
g3408
tp3411
as(g478
S'computer'
p3412
tp3413
(lp3414
(g482
g3412
tp3415
as(g353
g571
tp3416
(lp3417
(g357
g571
tp3418
a(g359
g571
tp3419
a(g361
g571
tp3420
as(g94
S'cucumber'
p3421
tp3422
(lp3423
(g97
g3421
tp3424
as(g1036
S'surgery'
p3425
tp3426
(lp3427
(g1040
g3425
tp3428
as(g63
S'hunchback'
p3429
tp3430
(lp3431
(g59
g3429
tp3432
as(g17
S'tea_ceremony'
p3433
tp3434
(lp3435
(g13
g3433
tp3436
as(g99
g42
tp3437
(lp3438
(g103
g42
tp3439
a(g105
g42
tp3440
a(g107
g42
tp3441
as(g59
g737
tp3442
(lp3443
(g63
g737
tp3444
a(g65
g737
tp3445
a(g67
g737
tp3446
a(g69
g737
tp3447
as(g49
S'citrus'
p3448
tp3449
(lp3450
(g53
g3448
tp3451
a(g55
g3448
tp3452
a(g57
g3448
tp3453
as(g1699
S'plum'
p3454
tp3455
(lp3456
(g1703
g3454
tp3457
as(g59
S'hoop'
p3458
tp3459
(lp3460
(g63
g3458
tp3461
a(g65
g3458
tp3462
a(g67
g3458
tp3463
a(g69
g3458
tp3464
as(g124
g648
tp3465
(lp3466
(g128
g648
tp3467
as(g94
g3454
tp3468
(lp3469
(g97
g3454
tp3470
as(g193
S'graveyard'
p3471
tp3472
(lp3473
(g197
g3471
tp3474
a(g199
g3471
tp3475
as(g5
g923
tp3476
(lp3477
(g1
g923
tp3478
as(g1450
S'referee'
p3479
tp3480
(lp3481
(g1454
g3479
tp3482
as(g33
g2114
tp3483
(lp3484
(g37
g2114
tp3485
a(g39
g2114
tp3486
as(g29
S'infant'
p3487
tp3488
(lp3489
(g25
g3487
tp3490
as(g972
S'sloth'
p3491
tp3492
(lp3493
(g968
g3491
tp3494
as(g227
S'swamp'
p3495
tp3496
(lp3497
(g231
g3495
tp3498
as(g255
S'failure'
p3499
tp3500
(lp3501
(g251
g3499
tp3502
as(S'frozen'
p3503
g1553
tp3504
(lp3505
(S'unfrozen'
p3506
g1553
tp3507
as(g141
S'axe'
p3508
tp3509
(lp3510
(g145
g3508
tp3511
a(g147
g3508
tp3512
a(g149
g3508
tp3513
as(g280
g2618
tp3514
(lp3515
(g284
g2618
tp3516
as(g233
S'pigsty'
p3517
tp3518
(lp3519
(g237
g3517
tp3520
as(g13
S'race_car'
p3521
tp3522
(lp3523
(g17
g3521
tp3524
as(g7
g403
tp3525
(lp3526
(g11
g403
tp3527
as(g99
g2493
tp3528
(lp3529
(g103
g2493
tp3530
a(g105
g2493
tp3531
a(g107
g2493
tp3532
as(g63
g326
tp3533
(lp3534
(g59
g326
tp3535
as(g251
S'picture_postcard'
p3536
tp3537
(lp3538
(g255
g3536
tp3539
as(g23
S'prototype'
p3540
tp3541
(lp3542
(g19
g3540
tp3543
a(g1326
g3540
tp3544
as(g374
S'turkey'
p3545
tp3546
(lp3547
(g378
g3545
tp3548
as(g17
g3394
tp3549
(lp3550
(g13
g3394
tp3551
as(g19
S'memory'
p3552
tp3553
(lp3554
(g23
g3552
tp3555
as(g1425
g3359
tp3556
(lp3557
(g1428
g3359
tp3558
as(g209
g3127
tp3559
(lp3560
(g213
g3127
tp3561
as(g231
S'dust_devil'
p3562
tp3563
(lp3564
(g227
g3562
tp3565
a(g768
g3562
tp3566
a(g770
g3562
tp3567
as(g2750
S'spider_web'
p3568
tp3569
(lp3570
(g2753
g3568
tp3571
as(g141
g844
tp3572
(lp3573
(g145
g844
tp3574
a(g147
g844
tp3575
a(g149
g844
tp3576
as(g374
S'mermaid'
p3577
tp3578
(lp3579
(g378
g3577
tp3580
as(g41
g3110
tp3581
(lp3582
(g45
g3110
tp3583
a(g47
g3110
tp3584
as(g124
g2677
tp3585
(lp3586
(g128
g2677
tp3587
as(g233
S'clock'
p3588
tp3589
(lp3590
(g237
g3588
tp3591
as(g221
g1075
tp3592
(lp3593
(g225
g1075
tp3594
as(g25
S'warrior'
p3595
tp3596
(lp3597
(g29
g3595
tp3598
a(g31
g3595
tp3599
as(g274
g403
tp3600
(lp3601
(g278
g403
tp3602
as(g994
S'woman'
p3603
tp3604
(lp3605
(g998
g3603
tp3606
as(g177
S'screw'
p3607
tp3608
(lp3609
(g181
g3607
tp3610
as(g290
g1221
tp3611
(lp3612
(g294
g1221
tp3613
a(g296
g1221
tp3614
a(g298
g1221
tp3615
a(g300
g1221
tp3616
a(g302
g1221
tp3617
a(g304
g1221
tp3618
as(g124
g306
tp3619
(lp3620
(g128
g306
tp3621
as(g1425
S'gym_rat'
p3622
tp3623
(lp3624
(g1428
g3622
tp3625
as(g163
S'alligator'
p3626
tp3627
(lp3628
(g159
g3626
tp3629
as(g1154
g2840
tp3630
(lp3631
(g1157
g2840
tp3632
as(g193
g8
tp3633
(lp3634
(g197
g8
tp3635
a(g199
g8
tp3636
as(g59
g2589
tp3637
(lp3638
(g63
g2589
tp3639
a(g65
g2589
tp3640
a(g67
g2589
tp3641
a(g69
g2589
tp3642
as(g159
g1307
tp3643
(lp3644
(g163
g1307
tp3645
as(g361
S'gourd'
p3646
tp3647
(lp3648
(g353
g3646
tp3649
as(g3242
S'cantilever_bridge'
p3650
tp3651
(lp3652
(g3246
g3650
tp3653
as(g1802
S'molotov'
p3654
tp3655
(lp3656
(g1806
g3654
tp3657
as(g49
g364
tp3658
(lp3659
(g53
g364
tp3660
a(g55
g364
tp3661
a(g57
g364
tp3662
as(S'tired'
p3663
S'dog'
p3664
tp3665
(lp3666
(S'rested'
p3667
g3664
tp3668
as(g274
S'electron'
p3669
tp3670
(lp3671
(g278
g3669
tp3672
as(g71
S'confrontation'
p3673
tp3674
(lp3675
(g75
g3673
tp3676
as(g193
g1553
tp3677
(lp3678
(g197
g1553
tp3679
a(g199
g1553
tp3680
as(g215
S'flower_petal'
p3681
tp3682
(lp3683
(g219
g3681
tp3684
as(g163
g1307
tp3685
(lp3686
(g159
g1307
tp3687
as(S'malignant'
p3688
S'dill_pickle'
p3689
tp3690
(lp3691
(S'benign'
p3692
g3689
tp3693
as(g251
g245
tp3694
(lp3695
(g255
g245
tp3696
as(g215
S'goose_egg'
p3697
tp3698
(lp3699
(g219
g3697
tp3700
as(g25
S'lion'
p3701
tp3702
(lp3703
(g29
g3701
tp3704
a(g31
g3701
tp3705
as(g219
S'mountain_bike'
p3706
tp3707
(lp3708
(g215
g3706
tp3709
a(g602
g3706
tp3710
as(g577
g3342
tp3711
(lp3712
(g31
g3342
tp3713
as(g968
g2332
tp3714
(lp3715
(g972
g2332
tp3716
as(g71
S'spider'
p3717
tp3718
(lp3719
(g75
g3717
tp3720
as(g25
g1307
tp3721
(lp3722
(g29
g1307
tp3723
a(g31
g1307
tp3724
as(g147
g2618
tp3725
(lp3726
(g141
g2618
tp3727
a(g457
g2618
tp3728
a(g459
g2618
tp3729
a(g461
g2618
tp3730
a(g463
g2618
tp3731
as(g99
g3508
tp3732
(lp3733
(g103
g3508
tp3734
a(g105
g3508
tp3735
a(g107
g3508
tp3736
as(g278
S'sponge_cake'
p3737
tp3738
(lp3739
(g274
g3737
tp3740
a(g546
g3737
tp3741
as(g278
g923
tp3742
(lp3743
(g274
g923
tp3744
a(g546
g923
tp3745
as(g278
S'glove'
p3746
tp3747
(lp3748
(g274
g3746
tp3749
a(g546
g3746
tp3750
as(g201
g252
tp3751
(lp3752
(g205
g252
tp3753
a(g207
g252
tp3754
as(g71
S'baboon'
p3755
tp3756
(lp3757
(g75
g3755
tp3758
as(g193
S'tripod'
p3759
tp3760
(lp3761
(g197
g3759
tp3762
a(g199
g3759
tp3763
as(g59
S'phone_cord'
p3764
tp3765
(lp3766
(g63
g3764
tp3767
a(g65
g3764
tp3768
a(g67
g3764
tp3769
a(g69
g3764
tp3770
as(g31
g453
tp3771
(lp3772
(g77
g453
tp3773
as(g1264
S'quilt'
p3774
tp3775
(lp3776
(g1267
g3774
tp3777
as(g237
S'crystal_ball'
p3778
tp3779
(lp3780
(g233
g3778
tp3781
a(g243
g3778
tp3782
as(g25
S'dinosaur'
p3783
tp3784
(lp3785
(g29
g3783
tp3786
a(g31
g3783
tp3787
as(g280
S'spring_chicken'
p3788
tp3789
(lp3790
(g284
g3788
tp3791
as(g1980
g252
tp3792
(lp3793
(g1984
g252
tp3794
as(g3688
S'toaster'
p3795
tp3796
(lp3797
(g3692
g3795
tp3798
as(g201
S'garden_hose'
p3799
tp3800
(lp3801
(g205
g3799
tp3802
a(g207
g3799
tp3803
as(S'exhausted'
p3804
g1481
tp3805
(lp3806
(S'unexhausted'
p3807
g1481
tp3808
as(g553
g281
tp3809
(lp3810
(g557
g281
tp3811
a(g559
g281
tp3812
as(g843
S'extract'
p3813
tp3814
(lp3815
(g847
g3813
tp3816
a(g147
g3813
tp3817
a(g850
g3813
tp3818
as(g526
S'sax'
p3819
tp3820
(lp3821
(g530
g3819
tp3822
a(g532
g3819
tp3823
as(g99
S'samurai'
p3824
tp3825
(lp3826
(g103
g3824
tp3827
a(g105
g3824
tp3828
a(g107
g3824
tp3829
as(g759
S'rain_forest'
p3830
tp3831
(lp3832
(g762
g3830
tp3833
as(g1046
S'football_game'
p3834
tp3835
(lp3836
(g1050
g3834
tp3837
a(g1052
g3834
tp3838
as(g2446
S'movie'
p3839
tp3840
(lp3841
(g2450
g3839
tp3842
a(g2452
g3839
tp3843
a(g1537
g3839
tp3844
as(g25
S'minotaur'
p3845
tp3846
(lp3847
(g29
g3845
tp3848
a(g31
g3845
tp3849
as(g274
S'sledge'
p3850
tp3851
(lp3852
(g278
g3850
tp3853
as(g227
S'monsoon'
p3854
tp3855
(lp3856
(g231
g3854
tp3857
as(g361
g1174
tp3858
(lp3859
(g353
g1174
tp3860
as(g577
g844
tp3861
(lp3862
(g31
g844
tp3863
as(g631
S'turnip'
p3864
tp3865
(lp3866
(g103
g3864
tp3867
as(S'diffuse'
p3868
S'daydream'
p3869
tp3870
(lp3871
(g141
g3869
tp3872
as(g374
S'tortoise'
p3873
tp3874
(lp3875
(g378
g3873
tp3876
as(g2744
S'diplomat'
p3877
tp3878
(lp3879
(g2748
g3877
tp3880
as(g1802
S'sparkler'
p3881
tp3882
(lp3883
(g1806
g3881
tp3884
as(g71
g1869
tp3885
(lp3886
(g75
g1869
tp3887
as(g515
S'construction_worker'
p3888
tp3889
(lp3890
(g518
g3888
tp3891
as(g41
S'lentil'
p3892
tp3893
(lp3894
(g45
g3892
tp3895
a(g47
g3892
tp3896
as(g141
g1251
tp3897
(lp3898
(g145
g1251
tp3899
a(g147
g1251
tp3900
a(g149
g1251
tp3901
as(g705
S'rabbit'
p3902
tp3903
(lp3904
(g701
g3902
tp3905
as(g1610
g2102
tp3906
(lp3907
(g1614
g2102
tp3908
as(g17
g3873
tp3909
(lp3910
(g13
g3873
tp3911
as(g25
g1114
tp3912
(lp3913
(g29
g1114
tp3914
a(g31
g1114
tp3915
as(g99
S'dagger'
p3916
tp3917
(lp3918
(g103
g3916
tp3919
a(g105
g3916
tp3920
a(g107
g3916
tp3921
as(g5
S'daffodil'
p3922
tp3923
(lp3924
(g1
g3922
tp3925
as(g374
S'noel_coward'
p3926
tp3927
(lp3928
(g378
g3926
tp3929
as(g99
g3086
tp3930
(lp3931
(g103
g3086
tp3932
a(g105
g3086
tp3933
a(g107
g3086
tp3934
as(g1040
S'sunset'
p3935
tp3936
(lp3937
(g1036
g3935
tp3938
as(g215
S'jeweler'
p3939
tp3940
(lp3941
(g219
g3939
tp3942
as(S'heterosexual'
p3943
S'playboy'
p3944
tp3945
(lp3946
(S'bisexual'
p3947
g3944
tp3948
a(S'homosexual'
p3949
g3944
tp3950
as(g274
g3194
tp3951
(lp3952
(g278
g3194
tp3953
as(g353
S'steel'
p3954
tp3955
(lp3956
(g357
g3954
tp3957
a(g359
g3954
tp3958
a(g361
g3954
tp3959
as(g274
S'blimp'
p3960
tp3961
(lp3962
(g278
g3960
tp3963
as(g124
g3681
tp3964
(lp3965
(g128
g3681
tp3966
as(g251
S'angel'
p3967
tp3968
(lp3969
(g255
g3967
tp3970
as(g701
g1921
tp3971
(lp3972
(g705
g1921
tp3973
as(g82
S'condom'
p3974
tp3975
(lp3976
(g86
g3974
tp3977
a(g88
g3974
tp3978
as(g251
S'idol'
p3979
tp3980
(lp3981
(g255
g3979
tp3982
as(g99
S'bowie_knife'
p3983
tp3984
(lp3985
(g103
g3983
tp3986
a(g105
g3983
tp3987
a(g107
g3983
tp3988
as(g274
g2712
tp3989
(lp3990
(g278
g2712
tp3991
as(g134
S'dinner_table'
p3992
tp3993
(lp3994
(g130
g3992
tp3995
as(g177
g1114
tp3996
(lp3997
(g181
g1114
tp3998
as(g25
g194
tp3999
(lp4000
(g29
g194
tp4001
a(g31
g194
tp4002
as(S'adroit'
p4003
S'juggler'
p4004
tp4005
(lp4006
(S'maladroit'
p4007
g4004
tp4008
as(g124
g1188
tp4009
(lp4010
(g128
g1188
tp4011
as(g968
S'chess_match'
p4012
tp4013
(lp4014
(g972
g4012
tp4015
as(g361
S"jacko'lantern"
p4016
tp4017
(lp4018
(g353
g4016
tp4019
as(g124
g2712
tp4020
(lp4021
(g128
g2712
tp4022
as(g353
S'california_redwood'
p4023
tp4024
(lp4025
(g357
g4023
tp4026
a(g359
g4023
tp4027
a(g361
g4023
tp4028
as(g2750
S'mist'
p4029
tp4030
(lp4031
(g2753
g4029
tp4032
as(g99
S'falcon'
p4033
tp4034
(lp4035
(g103
g4033
tp4036
a(g105
g4033
tp4037
a(g107
g4033
tp4038
as(g215
g2266
tp4039
(lp4040
(g219
g2266
tp4041
as(g31
g3026
tp4042
(lp4043
(g77
g3026
tp4044
as(g526
S'aircraft_carrier'
p4045
tp4046
(lp4047
(g530
g4045
tp4048
a(g532
g4045
tp4049
as(g843
S'perfume'
p4050
tp4051
(lp4052
(g847
g4050
tp4053
a(g147
g4050
tp4054
a(g850
g4050
tp4055
as(g25
S'cedar_tree'
p4056
tp4057
(lp4058
(g29
g4056
tp4059
a(g31
g4056
tp4060
as(g107
S'redwood'
p4061
tp4062
(lp4063
(g655
g4061
tp4064
a(g657
g4061
tp4065
a(g659
g4061
tp4066
a(g105
g4061
tp4067
a(g99
g4061
tp4068
as(g124
g571
tp4069
(lp4070
(g128
g571
tp4071
as(g231
g652
tp4072
(lp4073
(g227
g652
tp4074
a(g768
g652
tp4075
a(g770
g652
tp4076
as(g759
S'briar'
p4077
tp4078
(lp4079
(g762
g4077
tp4080
as(g41
g2170
tp4081
(lp4082
(g45
g2170
tp4083
a(g47
g2170
tp4084
as(g631
g963
tp4085
(lp4086
(g103
g963
tp4087
as(g99
S'thorn'
p4088
tp4089
(lp4090
(g103
g4088
tp4091
a(g105
g4088
tp4092
a(g107
g4088
tp4093
as(g631
g2555
tp4094
(lp4095
(g103
g2555
tp4096
as(g361
S'shell'
p4097
tp4098
(lp4099
(g353
g4097
tp4100
as(g278
g1534
tp4101
(lp4102
(g274
g1534
tp4103
a(g546
g1534
tp4104
as(g526
S'master_bedroom'
p4105
tp4106
(lp4107
(g530
g4105
tp4108
a(g532
g4105
tp4109
as(g25
S'calf'
p4110
tp4111
(lp4112
(g29
g4110
tp4113
a(g31
g4110
tp4114
as(g2000
g632
tp4115
(lp4116
(g2004
g632
tp4117
as(g124
S'girl_scout'
p4118
tp4119
(lp4120
(g128
g4118
tp4121
as(g1402
S'porn'
p4122
tp4123
(lp4124
(g1406
g4122
tp4125
as(g251
S'ass'
p4126
tp4127
(lp4128
(g255
g4126
tp4129
as(g25
g636
tp4130
(lp4131
(g29
g636
tp4132
a(g31
g636
tp4133
as(g25
g648
tp4134
(lp4135
(g29
g648
tp4136
a(g31
g648
tp4137
as(g193
S'portrait'
p4138
tp4139
(lp4140
(g197
g4138
tp4141
a(g199
g4138
tp4142
as(g374
g2178
tp4143
(lp4144
(g378
g2178
tp4145
as(g25
g2190
tp4146
(lp4147
(g29
g2190
tp4148
a(g31
g2190
tp4149
as(g363
g3487
tp4150
(lp4151
(g367
g3487
tp4152
as(g565
S'steeple'
p4153
tp4154
(lp4155
(g569
g4153
tp4156
as(g99
S'jaguar'
p4157
tp4158
(lp4159
(g103
g4157
tp4160
a(g105
g4157
tp4161
a(g107
g4157
tp4162
as(g266
S'rainbow'
p4163
tp4164
(lp4165
(g270
g4163
tp4166
a(g272
g4163
tp4167
as(g99
S'stiletto'
p4168
tp4169
(lp4170
(g103
g4168
tp4171
a(g105
g4168
tp4172
a(g107
g4168
tp4173
as(g278
g2266
tp4174
(lp4175
(g274
g2266
tp4176
a(g546
g2266
tp4177
as(S'breathless'
p4178
g2918
tp4179
(lp4180
(S'breathing'
p4181
g2918
tp4182
as(g233
S'prostitute'
p4183
tp4184
(lp4185
(g237
g4183
tp4186
as(g82
S'noose'
p4187
tp4188
(lp4189
(g86
g4187
tp4190
a(g88
g4187
tp4191
as(g13
S'sandwich'
p4192
tp4193
(lp4194
(g17
g4192
tp4195
as(g631
g2370
tp4196
(lp4197
(g103
g2370
tp4198
as(g1610
S'leader'
p4199
tp4200
(lp4201
(g1614
g4199
tp4202
as(g13
g1283
tp4203
(lp4204
(g17
g1283
tp4205
as(g353
S'ice_cube'
p4206
tp4207
(lp4208
(g357
g4206
tp4209
a(g359
g4206
tp4210
a(g361
g4206
tp4211
as(g215
S'ladybird'
p4212
tp4213
(lp4214
(g219
g4212
tp4215
as(g59
g604
tp4216
(lp4217
(g63
g604
tp4218
a(g65
g604
tp4219
a(g67
g604
tp4220
a(g69
g604
tp4221
as(g94
S'lover'
p4222
tp4223
(lp4224
(g97
g4222
tp4225
as(g3663
g1307
tp4226
(lp4227
(g3667
g1307
tp4228
as(g130
g958
tp4229
(lp4230
(g134
g958
tp4231
as(g13
S'whippet'
p4232
tp4233
(lp4234
(g17
g4232
tp4235
as(g1046
S'pants_suit'
p4236
tp4237
(lp4238
(g1050
g4236
tp4239
a(g1052
g4236
tp4240
as(g1036
S'tattoo'
p4241
tp4242
(lp4243
(g1040
g4241
tp4244
as(g124
S'knot'
p4245
tp4246
(lp4247
(g128
g4245
tp4248
as(g99
S'knife'
p4249
tp4250
(lp4251
(g103
g4249
tp4252
a(g105
g4249
tp4253
a(g107
g4249
tp4254
as(g2497
S'nose_job'
p4255
tp4256
(lp4257
(g2501
g4255
tp4258
a(g2503
g4255
tp4259
as(g1793
S'crystal'
p4260
tp4261
(lp4262
(g1797
g4260
tp4263
as(g2744
g3255
tp4264
(lp4265
(g2748
g3255
tp4266
as(g5
g542
tp4267
(lp4268
(g1
g542
tp4269
as(g17
S'milk_float'
p4270
tp4271
(lp4272
(g13
g4270
tp4273
as(g526
g473
tp4274
(lp4275
(g530
g473
tp4276
a(g532
g473
tp4277
as(g968
S'terrier'
p4278
tp4279
(lp4280
(g972
g4278
tp4281
as(g274
g571
tp4282
(lp4283
(g278
g571
tp4284
as(g13
S'racing_car'
p4285
tp4286
(lp4287
(g17
g4285
tp4288
as(g695
S'sirloin_steak'
p4289
tp4290
(lp4291
(g699
g4289
tp4292
as(g147
S'cushion'
p4293
tp4294
(lp4295
(g141
g4293
tp4296
a(g457
g4293
tp4297
a(g459
g4293
tp4298
a(g461
g4293
tp4299
a(g463
g4293
tp4300
as(g353
S'tombstone'
p4301
tp4302
(lp4303
(g357
g4301
tp4304
a(g359
g4301
tp4305
a(g361
g4301
tp4306
as(g5
S'mayfly'
p4307
tp4308
(lp4309
(g1
g4307
tp4310
as(g526
g3864
tp4311
(lp4312
(g530
g3864
tp4313
a(g532
g3864
tp4314
as(g2744
S'ninja'
p4315
tp4316
(lp4317
(g2748
g4315
tp4318
as(g7
S'tuning_fork'
p4319
tp4320
(lp4321
(g11
g4319
tp4322
as(g177
g131
tp4323
(lp4324
(g181
g131
tp4325
as(g19
S'scent'
p4326
tp4327
(lp4328
(g23
g4326
tp4329
as(g577
g1197
tp4330
(lp4331
(g31
g1197
tp4332
as(g124
S'twobyfour'
p4333
tp4334
(lp4335
(g128
g4333
tp4336
as(g25
g3260
tp4337
(lp4338
(g29
g3260
tp4339
a(g31
g3260
tp4340
as(g13
g2514
tp4341
(lp4342
(g17
g2514
tp4343
as(g1773
S'kudzu'
p4344
tp4345
(lp4346
(g1777
g4344
tp4347
as(g5
g1571
tp4348
(lp4349
(g1
g1571
tp4350
as(g1450
S'moth'
p4351
tp4352
(lp4353
(g1454
g4351
tp4354
as(g482
g8
tp4355
(lp4356
(g478
g8
tp4357
a(g2587
g8
tp4358
as(g526
S'date_rape'
p4359
tp4360
(lp4361
(g530
g4359
tp4362
a(g532
g4359
tp4363
as(g396
S'christmas_stocking'
p4364
tp4365
(lp4366
(g400
g4364
tp4367
a(g45
g4364
tp4368
as(g215
S'lotus'
p4369
tp4370
(lp4371
(g219
g4369
tp4372
as(g99
g473
tp4373
(lp4374
(g103
g473
tp4375
a(g105
g473
tp4376
a(g107
g473
tp4377
as(g3688
S'melanoma'
p4378
tp4379
(lp4380
(g3692
g4378
tp4381
as(g2000
S'drunkard'
p4382
tp4383
(lp4384
(g2004
g4382
tp4385
as(g147
S'blanket'
p4386
tp4387
(lp4388
(g141
g4386
tp4389
a(g457
g4386
tp4390
a(g459
g4386
tp4391
a(g461
g4386
tp4392
a(g463
g4386
tp4393
as(g193
g780
tp4394
(lp4395
(g197
g780
tp4396
a(g199
g780
tp4397
as(g19
S'brand'
p4398
tp4399
(lp4400
(g23
g4398
tp4401
as(g705
g3830
tp4402
(lp4403
(g701
g3830
tp4404
as(g159
g2493
tp4405
(lp4406
(g163
g2493
tp4407
as(g274
S'gravestone'
p4408
tp4409
(lp4410
(g278
g4408
tp4411
as(g71
g2498
tp4412
(lp4413
(g75
g2498
tp4414
as(g736
g948
tp4415
(lp4416
(g740
g948
tp4417
as(S'drained'
p4418
S'puppet'
p4419
tp4420
(lp4421
(S'undrained'
p4422
g4419
tp4423
as(g107
S'tree_branch'
p4424
tp4425
(lp4426
(g655
g4424
tp4427
a(g657
g4424
tp4428
a(g659
g4424
tp4429
a(g105
g4424
tp4430
a(g99
g4424
tp4431
as(g359
g1863
tp4432
(lp4433
(g357
g1863
tp4434
a(g353
g1863
tp4435
a(g489
g1863
tp4436
as(g177
g2319
tp4437
(lp4438
(g181
g2319
tp4439
as(g193
S'tomb'
p4440
tp4441
(lp4442
(g197
g4440
tp4443
a(g199
g4440
tp4444
as(g1425
S'track_star'
p4445
tp4446
(lp4447
(g1428
g4445
tp4448
as(g2258
S'shrimp'
p4449
tp4450
(lp4451
(g2262
g4449
tp4452
a(g2264
g4449
tp4453
as(g124
g316
tp4454
(lp4455
(g128
g316
tp4456
as(g41
S'candle'
p4457
tp4458
(lp4459
(g45
g4457
tp4460
a(g47
g4457
tp4461
as(g17
g873
tp4462
(lp4463
(g13
g873
tp4464
as(g63
g2664
tp4465
(lp4466
(g59
g2664
tp4467
as(g124
S'cheerleader'
p4468
tp4469
(lp4470
(g128
g4468
tp4471
as(g25
S'soda_cracker'
p4472
tp4473
(lp4474
(g29
g4472
tp4475
a(g31
g4472
tp4476
as(g2634
g2761
tp4477
(lp4478
(g2638
g2761
tp4479
as(g445
g2370
tp4480
(lp4481
(g449
g2370
tp4482
a(g451
g2370
tp4483
as(g219
S'hummer'
p4484
tp4485
(lp4486
(g215
g4484
tp4487
a(g602
g4484
tp4488
as(g151
S'gang'
p4489
tp4490
(lp4491
(g155
g4489
tp4492
a(g157
g4489
tp4493
as(g13
g2190
tp4494
(lp4495
(g17
g2190
tp4496
as(g856
S'life_raft'
p4497
tp4498
(lp4499
(g860
g4497
tp4500
as(g151
S'scrubbing_brush'
p4501
tp4502
(lp4503
(g155
g4501
tp4504
a(g157
g4501
tp4505
as(g25
S'hero'
p4506
tp4507
(lp4508
(g29
g4506
tp4509
a(g31
g4506
tp4510
as(g17
g2328
tp4511
(lp4512
(g13
g2328
tp4513
as(g94
S'kumquat'
p4514
tp4515
(lp4516
(g97
g4514
tp4517
as(g1402
S'baseball_game'
p4518
tp4519
(lp4520
(g1406
g4518
tp4521
as(g25
g3194
tp4522
(lp4523
(g29
g3194
tp4524
a(g31
g3194
tp4525
as(g231
S'sauvignon_blanc'
p4526
tp4527
(lp4528
(g227
g4526
tp4529
a(g768
g4526
tp4530
a(g770
g4526
tp4531
as(g3503
S'mask'
p4532
tp4533
(lp4534
(g3506
g4532
tp4535
as(g221
S'cigarette'
p4536
tp4537
(lp4538
(g225
g4536
tp4539
as(g1154
g1746
tp4540
(lp4541
(g1157
g1746
tp4542
as(g657
g2447
tp4543
(lp4544
(g107
g2447
tp4545
as(g25
g3399
tp4546
(lp4547
(g29
g3399
tp4548
a(g31
g3399
tp4549
as(g193
g4369
tp4550
(lp4551
(g197
g4369
tp4552
a(g199
g4369
tp4553
as(g266
S'specter'
p4554
tp4555
(lp4556
(g270
g4554
tp4557
a(g272
g4554
tp4558
as(g577
g1059
tp4559
(lp4560
(g31
g1059
tp4561
as(g2300
S'fist'
p4562
tp4563
(lp4564
(g2304
g4562
tp4565
a(g2306
g4562
tp4566
as(g705
S'garden'
p4567
tp4568
(lp4569
(g701
g4567
tp4570
as(g374
S'lame_duck'
p4571
tp4572
(lp4573
(g378
g4571
tp4574
as(g577
S'surfboard'
p4575
tp4576
(lp4577
(g31
g4575
tp4578
as(g215
g3850
tp4579
(lp4580
(g219
g3850
tp4581
as(g445
S'vault'
p4582
tp4583
(lp4584
(g449
g4582
tp4585
a(g451
g4582
tp4586
as(g753
S'cossack'
p4587
tp4588
(lp4589
(g757
g4587
tp4590
as(g565
S'knitting_needle'
p4591
tp4592
(lp4593
(g569
g4591
tp4594
as(g151
g8
tp4595
(lp4596
(g155
g8
tp4597
a(g157
g8
tp4598
as(g25
S'beast'
p4599
tp4600
(lp4601
(g29
g4599
tp4602
a(g31
g4599
tp4603
as(g655
S'swan'
p4604
tp4605
(lp4606
(g107
g4604
tp4607
a(g1167
g4604
tp4608
a(g1169
g4604
tp4609
as(g147
g2493
tp4610
(lp4611
(g141
g2493
tp4612
a(g457
g2493
tp4613
a(g459
g2493
tp4614
a(g461
g2493
tp4615
a(g463
g2493
tp4616
as(g114
S'core_dump'
p4617
tp4618
(lp4619
(g118
g4617
tp4620
as(g71
g4599
tp4621
(lp4622
(g75
g4599
tp4623
as(g59
S'tire'
p4624
tp4625
(lp4626
(g63
g4624
tp4627
a(g65
g4624
tp4628
a(g67
g4624
tp4629
a(g69
g4624
tp4630
as(g17
S'caterpillar'
p4631
tp4632
(lp4633
(g13
g4631
tp4634
as(g353
g2946
tp4635
(lp4636
(g357
g2946
tp4637
a(g359
g2946
tp4638
a(g361
g2946
tp4639
as(g374
S'deer'
p4640
tp4641
(lp4642
(g378
g4640
tp4643
as(g7
S'bookcase'
p4644
tp4645
(lp4646
(g11
g4644
tp4647
as(g41
S'phone_book'
p4648
tp4649
(lp4650
(g45
g4648
tp4651
a(g47
g4648
tp4652
as(g374
g1118
tp4653
(lp4654
(g378
g1118
tp4655
as(g631
g502
tp4656
(lp4657
(g103
g502
tp4658
as(g41
S'suet_pudding'
p4659
tp4660
(lp4661
(g45
g4659
tp4662
a(g47
g4659
tp4663
as(g63
S'corkscrew'
p4664
tp4665
(lp4666
(g59
g4664
tp4667
as(g13
S'microwave_oven'
p4668
tp4669
(lp4670
(g17
g4668
tp4671
as(g2634
g1095
tp4672
(lp4673
(g2638
g1095
tp4674
as(g843
S'laser'
p4675
tp4676
(lp4677
(g847
g4675
tp4678
a(g147
g4675
tp4679
a(g850
g4675
tp4680
as(g577
g245
tp4681
(lp4682
(g31
g245
tp4683
as(g124
g2083
tp4684
(lp4685
(g128
g2083
tp4686
as(g353
S'iceberg'
p4687
tp4688
(lp4689
(g357
g4687
tp4690
a(g359
g4687
tp4691
a(g361
g4687
tp4692
as(g363
g1015
tp4693
(lp4694
(g367
g1015
tp4695
as(g353
S'slammer'
p4696
tp4697
(lp4698
(g357
g4696
tp4699
a(g359
g4696
tp4700
a(g361
g4696
tp4701
as(g29
S'slacker'
p4702
tp4703
(lp4704
(g25
g4702
tp4705
as(g378
S'straitjacket'
p4706
tp4707
(lp4708
(g374
g4706
tp4709
as(g124
S'hamster'
p4710
tp4711
(lp4712
(g128
g4710
tp4713
as(g753
g2083
tp4714
(lp4715
(g757
g2083
tp4716
as(g49
S'geisha_girl'
p4717
tp4718
(lp4719
(g53
g4717
tp4720
a(g55
g4717
tp4721
a(g57
g4717
tp4722
as(g445
S'deposit_account'
p4723
tp4724
(lp4725
(g449
g4723
tp4726
a(g451
g4723
tp4727
as(g631
S'salsa'
p4728
tp4729
(lp4730
(g103
g4728
tp4731
as(g215
g542
tp4732
(lp4733
(g219
g542
tp4734
as(g99
g4675
tp4735
(lp4736
(g103
g4675
tp4737
a(g105
g4675
tp4738
a(g107
g4675
tp4739
as(g227
S'octopus'
p4740
tp4741
(lp4742
(g231
g4740
tp4743
as(g1793
S'quadrille'
p4744
tp4745
(lp4746
(g1797
g4744
tp4747
as(g577
S'flagpole'
p4748
tp4749
(lp4750
(g31
g4748
tp4751
as(g736
g245
tp4752
(lp4753
(g740
g245
tp4754
as(g71
S'abortion'
p4755
tp4756
(lp4757
(g75
g4755
tp4758
as(g77
S'moped'
p4759
tp4760
(lp4761
(g31
g4759
tp4762
as(g2446
g1976
tp4763
(lp4764
(g2450
g1976
tp4765
a(g2452
g1976
tp4766
a(g1537
g1976
tp4767
as(g577
g1414
tp4768
(lp4769
(g31
g1414
tp4770
as(g363
S'guppy'
p4771
tp4772
(lp4773
(g367
g4771
tp4774
as(g1533
g2547
tp4775
(lp4776
(g1537
g2547
tp4777
as(g759
g2635
tp4778
(lp4779
(g762
g2635
tp4780
as(g361
g267
tp4781
(lp4782
(g353
g267
tp4783
as(g400
g3646
tp4784
(lp4785
(g396
g3646
tp4786
as(g378
S'teenager'
p4787
tp4788
(lp4789
(g374
g4787
tp4790
as(g972
S'steamroller'
p4791
tp4792
(lp4793
(g968
g4791
tp4794
as(g99
S'butter'
p4795
tp4796
(lp4797
(g103
g4795
tp4798
a(g105
g4795
tp4799
a(g107
g4795
tp4800
as(g37
S'coffin_nail'
p4801
tp4802
(lp4803
(g33
g4801
tp4804
a(g1063
g4801
tp4805
as(g1793
S'crystal_lattice'
p4806
tp4807
(lp4808
(g1797
g4806
tp4809
as(g25
g339
tp4810
(lp4811
(g29
g339
tp4812
a(g31
g339
tp4813
as(g227
S'puddle'
p4814
tp4815
(lp4816
(g231
g4814
tp4817
as(g856
S'horse_barn'
p4818
tp4819
(lp4820
(g860
g4818
tp4821
as(g3804
S'shipwreck_survivor'
p4822
tp4823
(lp4824
(g3807
g4822
tp4825
as(g237
S'butcher'
p4826
tp4827
(lp4828
(g233
g4826
tp4829
a(g243
g4826
tp4830
as(g201
S'elastomer'
p4831
tp4832
(lp4833
(g205
g4831
tp4834
a(g207
g4831
tp4835
as(g478
S'jigsaw_puzzle'
p4836
tp4837
(lp4838
(g482
g4836
tp4839
as(g141
g4301
tp4840
(lp4841
(g145
g4301
tp4842
a(g147
g4301
tp4843
a(g149
g4301
tp4844
as(g99
g527
tp4845
(lp4846
(g103
g527
tp4847
a(g105
g527
tp4848
a(g107
g527
tp4849
as(g237
S'steam_whistle'
p4850
tp4851
(lp4852
(g233
g4850
tp4853
a(g243
g4850
tp4854
as(g41
S'toothpick'
p4855
tp4856
(lp4857
(g45
g4855
tp4858
a(g47
g4855
tp4859
as(g134
S'car'
p4860
tp4861
(lp4862
(g130
g4860
tp4863
as(g631
S'jackson_pollock'
p4864
tp4865
(lp4866
(g103
g4864
tp4867
as(g215
g1225
tp4868
(lp4869
(g219
g1225
tp4870
as(g41
g391
tp4871
(lp4872
(g45
g391
tp4873
a(g47
g391
tp4874
as(g201
S'bamboo'
p4875
tp4876
(lp4877
(g205
g4875
tp4878
a(g207
g4875
tp4879
as(g99
S'lemon'
p4880
tp4881
(lp4882
(g103
g4880
tp4883
a(g105
g4880
tp4884
a(g107
g4880
tp4885
as(g274
g1328
tp4886
(lp4887
(g278
g1328
tp4888
as(g25
g3139
tp4889
(lp4890
(g29
g3139
tp4891
a(g31
g3139
tp4892
as(g177
g354
tp4893
(lp4894
(g181
g354
tp4895
as(g63
S'boa_constrictor'
p4896
tp4897
(lp4898
(g59
g4896
tp4899
as(g553
g2982
tp4900
(lp4901
(g557
g2982
tp4902
a(g559
g2982
tp4903
as(g400
g3471
tp4904
(lp4905
(g396
g3471
tp4906
as(g353
S'launching_pad'
p4907
tp4908
(lp4909
(g357
g4907
tp4910
a(g359
g4907
tp4911
a(g361
g4907
tp4912
as(g17
S'photon'
p4913
tp4914
(lp4915
(g13
g4913
tp4916
as(g13
S'polecat'
p4917
tp4918
(lp4919
(g17
g4917
tp4920
as(g2300
g2194
tp4921
(lp4922
(g2304
g2194
tp4923
a(g2306
g2194
tp4924
as(g390
S'bucket'
p4925
tp4926
(lp4927
(g394
g4925
tp4928
as(g231
S'crust'
p4929
tp4930
(lp4931
(g227
g4929
tp4932
a(g768
g4929
tp4933
a(g770
g4929
tp4934
as(g77
g26
tp4935
(lp4936
(g31
g26
tp4937
as(g353
S'wall'
p4938
tp4939
(lp4940
(g357
g4938
tp4941
a(g359
g4938
tp4942
a(g361
g4938
tp4943
as(g445
S'placebo'
p4944
tp4945
(lp4946
(g449
g4944
tp4947
a(g451
g4944
tp4948
as(g103
S'hoe'
p4949
tp4950
(lp4951
(g631
g4949
tp4952
a(g808
g4949
tp4953
a(g99
g4949
tp4954
as(g201
g909
tp4955
(lp4956
(g205
g909
tp4957
a(g207
g909
tp4958
as(g565
S'parable'
p4959
tp4960
(lp4961
(g569
g4959
tp4962
as(g2750
S'paper_towel'
p4963
tp4964
(lp4965
(g2753
g4963
tp4966
as(g2142
S'prune'
p4967
tp4968
(lp4969
(g2146
g4967
tp4970
a(g2148
g4967
tp4971
as(g33
S'raconteur'
p4972
tp4973
(lp4974
(g37
g4972
tp4975
a(g39
g4972
tp4976
as(g2446
S'video_game'
p4977
tp4978
(lp4979
(g2450
g4977
tp4980
a(g2452
g4977
tp4981
a(g1537
g4977
tp4982
as(g59
S'expressway'
p4983
tp4984
(lp4985
(g63
g4983
tp4986
a(g65
g4983
tp4987
a(g67
g4983
tp4988
a(g69
g4983
tp4989
as(g41
S'sausage'
p4990
tp4991
(lp4992
(g45
g4990
tp4993
a(g47
g4990
tp4994
as(g3503
g8
tp4995
(lp4996
(g3506
g8
tp4997
as(g304
g2279
tp4998
(lp4999
(g290
g2279
tp5000
as(g25
S'athlete'
p5001
tp5002
(lp5003
(g29
g5001
tp5004
a(g31
g5001
tp5005
as(g631
g1553
tp5006
(lp5007
(g103
g1553
tp5008
as(g59
g1892
tp5009
(lp5010
(g63
g1892
tp5011
a(g65
g1892
tp5012
a(g67
g1892
tp5013
a(g69
g1892
tp5014
as(g13
S'bullet_train'
p5015
tp5016
(lp5017
(g17
g5015
tp5018
as(g99
S'mud_pie'
p5019
tp5020
(lp5021
(g103
g5019
tp5022
a(g105
g5019
tp5023
a(g107
g5019
tp5024
as(g201
S'printer_cable'
p5025
tp5026
(lp5027
(g205
g5025
tp5028
a(g207
g5025
tp5029
as(g141
S'eggshell'
p5030
tp5031
(lp5032
(g145
g5030
tp5033
a(g147
g5030
tp5034
a(g149
g5030
tp5035
as(g1040
g2761
tp5036
(lp5037
(g1036
g2761
tp5038
as(g99
S'owl'
p5039
tp5040
(lp5041
(g103
g5039
tp5042
a(g105
g5039
tp5043
a(g107
g5039
tp5044
as(g1
S'metal_bar'
p5045
tp5046
(lp5047
(g5
g5045
tp5048
as(g1793
S'labyrinth'
p5049
tp5050
(lp5051
(g1797
g5049
tp5052
as(g577
g2946
tp5053
(lp5054
(g31
g2946
tp5055
as(g124
S'tomato'
p5056
tp5057
(lp5058
(g128
g5056
tp5059
as(g63
S'quack'
p5060
tp5061
(lp5062
(g59
g5060
tp5063
as(g1802
S'sprinter'
p5064
tp5065
(lp5066
(g1806
g5064
tp5067
as(g631
S'cricket'
p5068
tp5069
(lp5070
(g103
g5068
tp5071
as(g215
g2547
tp5072
(lp5073
(g219
g2547
tp5074
as(g25
g1209
tp5075
(lp5076
(g29
g1209
tp5077
a(g31
g1209
tp5078
as(g353
S'linebacker'
p5079
tp5080
(lp5081
(g357
g5079
tp5082
a(g359
g5079
tp5083
a(g361
g5079
tp5084
as(g526
S'corvette'
p5085
tp5086
(lp5087
(g530
g5085
tp5088
a(g532
g5085
tp5089
as(g49
S'lily'
p5090
tp5091
(lp5092
(g53
g5090
tp5093
a(g55
g5090
tp5094
a(g57
g5090
tp5095
as(g353
S'battering_ram'
p5096
tp5097
(lp5098
(g357
g5096
tp5099
a(g359
g5096
tp5100
a(g361
g5096
tp5101
as(g147
S'cymbal'
p5102
tp5103
(lp5104
(g141
g5102
tp5105
a(g457
g5102
tp5106
a(g459
g5102
tp5107
a(g461
g5102
tp5108
a(g463
g5102
tp5109
as(g141
S'brickbat'
p5110
tp5111
(lp5112
(g145
g5110
tp5113
a(g147
g5110
tp5114
a(g149
g5110
tp5115
as(g99
S"queen's_counsel"
p5116
tp5117
(lp5118
(g103
g5116
tp5119
a(g105
g5116
tp5120
a(g107
g5116
tp5121
as(g82
g4562
tp5122
(lp5123
(g86
g4562
tp5124
a(g88
g4562
tp5125
as(g130
g245
tp5126
(lp5127
(g134
g245
tp5128
as(g274
g90
tp5129
(lp5130
(g278
g90
tp5131
as(g565
S'pikestaff'
p5132
tp5133
(lp5134
(g569
g5132
tp5135
as(g17
g4687
tp5136
(lp5137
(g13
g4687
tp5138
as(g736
g495
tp5139
(lp5140
(g740
g495
tp5141
as(g177
g4484
tp5142
(lp5143
(g181
g4484
tp5144
as(g33
g2778
tp5145
(lp5146
(g37
g2778
tp5147
a(g39
g2778
tp5148
as(g565
g936
tp5149
(lp5150
(g569
g936
tp5151
as(g374
g4315
tp5152
(lp5153
(g378
g4315
tp5154
as(g37
g3471
tp5155
(lp5156
(g33
g3471
tp5157
a(g1063
g3471
tp5158
as(g209
S'jail'
p5159
tp5160
(lp5161
(g213
g5159
tp5162
as(g1430
S'jackal'
p5163
tp5164
(lp5165
(g1433
g5163
tp5166
as(g577
S'coat_hanger'
p5167
tp5168
(lp5169
(g31
g5167
tp5170
as(g1154
S'lamprey'
p5171
tp5172
(lp5173
(g1157
g5171
tp5174
as(g1402
S'norman_rockwell'
p5175
tp5176
(lp5177
(g1406
g5175
tp5178
as(g134
g3194
tp5179
(lp5180
(g130
g3194
tp5181
as(g7
S'chessboard'
p5182
tp5183
(lp5184
(g11
g5182
tp5185
as(g134
g1217
tp5186
(lp5187
(g130
g1217
tp5188
as(g445
S'drug'
p5189
tp5190
(lp5191
(g449
g5189
tp5192
a(g451
g5189
tp5193
as(g461
S'harlot'
p5194
tp5195
(lp5196
(g1146
g5194
tp5197
a(g147
g5194
tp5198
as(g233
S'greaser'
p5199
tp5200
(lp5201
(g237
g5199
tp5202
as(g7
g245
tp5203
(lp5204
(g11
g245
tp5205
as(g1616
g3664
tp5206
(lp5207
(g1619
g3664
tp5208
as(g141
g5096
tp5209
(lp5210
(g145
g5096
tp5211
a(g147
g5096
tp5212
a(g149
g5096
tp5213
as(g17
S'hippo'
p5214
tp5215
(lp5216
(g13
g5214
tp5217
as(g25
g2328
tp5218
(lp5219
(g29
g2328
tp5220
a(g31
g2328
tp5221
as(g63
S'question_mark'
p5222
tp5223
(lp5224
(g59
g5222
tp5225
as(g1802
S'coil_spring'
p5226
tp5227
(lp5228
(g1806
g5226
tp5229
as(g99
S'pencil'
p5230
tp5231
(lp5232
(g103
g5230
tp5233
a(g105
g5230
tp5234
a(g107
g5230
tp5235
as(g278
S'leaf'
p5236
tp5237
(lp5238
(g274
g5236
tp5239
a(g546
g5236
tp5240
as(g526
S'plumber'
p5241
tp5242
(lp5243
(g530
g5241
tp5244
a(g532
g5241
tp5245
as(g107
g1644
tp5246
(lp5247
(g655
g1644
tp5248
a(g657
g1644
tp5249
a(g659
g1644
tp5250
a(g105
g1644
tp5251
a(g99
g1644
tp5252
as(g163
S'moose'
p5253
tp5254
(lp5255
(g159
g5253
tp5256
as(S'developed'
p5257
S'quarter_horse'
p5258
tp5259
(lp5260
(S'undeveloped'
p5261
g5258
tp5262
as(g1793
S'fire_drill'
p5263
tp5264
(lp5265
(g1797
g5263
tp5266
as(g2744
g403
tp5267
(lp5268
(g2748
g403
tp5269
as(g233
S'stripper'
p5270
tp5271
(lp5272
(g237
g5270
tp5273
as(g390
g257
tp5274
(lp5275
(g394
g257
tp5276
as(g274
S'cannonball'
p5277
tp5278
(lp5279
(g278
g5277
tp5280
as(g13
S'washcloth'
p5281
tp5282
(lp5283
(g17
g5281
tp5284
as(g19
g2761
tp5285
(lp5286
(g23
g2761
tp5287
as(g577
S'mohawk'
p5288
tp5289
(lp5290
(g31
g5288
tp5291
as(g13
g1644
tp5292
(lp5293
(g17
g1644
tp5294
as(g2892
S'bed'
p5295
tp5296
(lp5297
(g2896
g5295
tp5298
as(g227
S'sink'
p5299
tp5300
(lp5301
(g231
g5299
tp5302
as(g374
g648
tp5303
(lp5304
(g378
g648
tp5305
as(g63
g202
tp5306
(lp5307
(g59
g202
tp5308
as(g19
g4163
tp5309
(lp5310
(g23
g4163
tp5311
as(g201
g245
tp5312
(lp5313
(g205
g245
tp5314
a(g207
g245
tp5315
as(g130
S'building'
p5316
tp5317
(lp5318
(g134
g5316
tp5319
as(g856
S'cobweb'
p5320
tp5321
(lp5322
(g860
g5320
tp5323
as(g37
g3783
tp5324
(lp5325
(g33
g3783
tp5326
a(g1063
g3783
tp5327
as(g2892
S'toothbrush'
p5328
tp5329
(lp5330
(g2896
g5328
tp5331
as(g99
S'chisel'
p5332
tp5333
(lp5334
(g103
g5332
tp5335
a(g105
g5332
tp5336
a(g107
g5332
tp5337
as(g2634
g1684
tp5338
(lp5339
(g2638
g1684
tp5340
as(g49
S'herb_garden'
p5341
tp5342
(lp5343
(g53
g5341
tp5344
a(g55
g5341
tp5345
a(g57
g5341
tp5346
as(g37
S'heroin_addiction'
p5347
tp5348
(lp5349
(g33
g5347
tp5350
a(g1063
g5347
tp5351
as(g631
g2021
tp5352
(lp5353
(g103
g2021
tp5354
as(g71
g702
tp5355
(lp5356
(g75
g702
tp5357
as(g1425
S'footballer'
p5358
tp5359
(lp5360
(g1428
g5358
tp5361
as(g177
S'saltine'
p5362
tp5363
(lp5364
(g181
g5362
tp5365
as(g361
S'bell'
p5366
tp5367
(lp5368
(g353
g5366
tp5369
as(g1425
S'marathoner'
p5370
tp5371
(lp5372
(g1428
g5370
tp5373
as(g29
g1318
tp5374
(lp5375
(g25
g1318
tp5376
as(g49
S'daisy'
p5377
tp5378
(lp5379
(g53
g5377
tp5380
a(g55
g5377
tp5381
a(g57
g5377
tp5382
as(g374
g3007
tp5383
(lp5384
(g378
g3007
tp5385
as(g2300
S'sunday_school'
p5386
tp5387
(lp5388
(g2304
g5386
tp5389
a(g2306
g5386
tp5390
as(g231
g1869
tp5391
(lp5392
(g227
g1869
tp5393
a(g768
g1869
tp5394
a(g770
g1869
tp5395
as(g124
g453
tp5396
(lp5397
(g128
g453
tp5398
as(S'dilute'
p5399
S'solution'
p5400
tp5401
(lp5402
(S'undiluted'
p5403
g5400
tp5404
as(g13
S'prairie_fire'
p5405
tp5406
(lp5407
(g17
g5405
tp5408
as(g99
S'dog_turd'
p5409
tp5410
(lp5411
(g103
g5409
tp5412
a(g105
g5409
tp5413
a(g107
g5409
tp5414
as(g215
g4351
tp5415
(lp5416
(g219
g4351
tp5417
as(g290
g3491
tp5418
(lp5419
(g294
g3491
tp5420
a(g296
g3491
tp5421
a(g298
g3491
tp5422
a(g300
g3491
tp5423
a(g302
g3491
tp5424
a(g304
g3491
tp5425
as(g278
S'windbreaker'
p5426
tp5427
(lp5428
(g274
g5426
tp5429
a(g546
g5426
tp5430
as(g274
S'engine'
p5431
tp5432
(lp5433
(g278
g5431
tp5434
as(g577
g737
tp5435
(lp5436
(g31
g737
tp5437
as(g1196
S'chair'
p5438
tp5439
(lp5440
(g1200
g5438
tp5441
as(g361
g2635
tp5442
(lp5443
(g353
g2635
tp5444
as(g695
g1139
tp5445
(lp5446
(g699
g1139
tp5447
as(g4178
g1481
tp5448
(lp5449
(g4181
g1481
tp5450
as(g1196
g4097
tp5451
(lp5452
(g1200
g4097
tp5453
as(g29
g2455
tp5454
(lp5455
(g25
g2455
tp5456
as(g856
g3070
tp5457
(lp5458
(g860
g3070
tp5459
as(S'gradual'
p5460
g1217
tp5461
(lp5462
(S'sudden'
p5463
g1217
tp5464
a(S'steep'
p5465
g1217
tp5466
as(g565
g4168
tp5467
(lp5468
(g569
g4168
tp5469
as(g1802
g2624
tp5470
(lp5471
(g1806
g2624
tp5472
as(g221
g78
tp5473
(lp5474
(g225
g78
tp5475
as(g17
g2178
tp5476
(lp5477
(g13
g2178
tp5478
as(g280
S'hamburger'
p5479
tp5480
(lp5481
(g284
g5479
tp5482
as(g353
g4582
tp5483
(lp5484
(g357
g4582
tp5485
a(g359
g4582
tp5486
a(g361
g4582
tp5487
as(g374
S'charlie_parker'
p5488
tp5489
(lp5490
(g378
g5488
tp5491
as(g205
S'motherinlaw'
p5492
tp5493
(lp5494
(g201
g5492
tp5495
a(g181
g5492
tp5496
as(S'unitary'
p5497
S'choir'
p5498
tp5499
(lp5500
(S'federal'
p5501
g5498
tp5502
as(g201
g2067
tp5503
(lp5504
(g205
g2067
tp5505
a(g207
g2067
tp5506
as(g215
g1863
tp5507
(lp5508
(g219
g1863
tp5509
as(g5257
S'model_t'
p5510
tp5511
(lp5512
(g5261
g5510
tp5513
as(g526
S'dancer'
p5514
tp5515
(lp5516
(g530
g5514
tp5517
a(g532
g5514
tp5518
as(g49
S'dew'
p5519
tp5520
(lp5521
(g53
g5519
tp5522
a(g55
g5519
tp5523
a(g57
g5519
tp5524
as(g1425
S'greyhound'
p5525
tp5526
(lp5527
(g1428
g5525
tp5528
as(g231
S'martini'
p5529
tp5530
(lp5531
(g227
g5529
tp5532
a(g768
g5529
tp5533
a(g770
g5529
tp5534
as(g274
g1299
tp5535
(lp5536
(g278
g1299
tp5537
as(g99
S'hatchet'
p5538
tp5539
(lp5540
(g103
g5538
tp5541
a(g105
g5538
tp5542
a(g107
g5538
tp5543
as(g631
S'fish_stick'
p5544
tp5545
(lp5546
(g103
g5544
tp5547
as(g374
g3783
tp5548
(lp5549
(g378
g3783
tp5550
as(g13
S'hornet'
p5551
tp5552
(lp5553
(g17
g5551
tp5554
as(g856
g4855
tp5555
(lp5556
(g860
g4855
tp5557
as(g478
S'drinking_glass'
p5558
tp5559
(lp5560
(g482
g5558
tp5561
as(g1196
g4938
tp5562
(lp5563
(g1200
g4938
tp5564
as(g565
g5230
tp5565
(lp5566
(g569
g5230
tp5567
as(g353
S'bench_vise'
p5568
tp5569
(lp5570
(g357
g5568
tp5571
a(g359
g5568
tp5572
a(g361
g5568
tp5573
as(g1533
g4163
tp5574
(lp5575
(g1537
g4163
tp5576
as(g13
g4938
tp5577
(lp5578
(g17
g4938
tp5579
as(g1886
S'hydrangea'
p5580
tp5581
(lp5582
(g1890
g5580
tp5583
as(g49
S'queen'
p5584
tp5585
(lp5586
(g53
g5584
tp5587
a(g55
g5584
tp5588
a(g57
g5584
tp5589
as(g29
g3568
tp5590
(lp5591
(g25
g3568
tp5592
as(g19
S'thought'
p5593
tp5594
(lp5595
(g23
g5593
tp5596
as(g25
g4675
tp5597
(lp5598
(g29
g4675
tp5599
a(g31
g4675
tp5600
as(g304
g780
tp5601
(lp5602
(g290
g780
tp5603
as(g577
g5226
tp5604
(lp5605
(g31
g5226
tp5606
as(g577
S'toy_soldier'
p5607
tp5608
(lp5609
(g31
g5607
tp5610
as(g124
S'nut'
p5611
tp5612
(lp5613
(g128
g5611
tp5614
as(g290
S'brain'
p5615
tp5616
(lp5617
(g294
g5615
tp5618
a(g296
g5615
tp5619
a(g298
g5615
tp5620
a(g300
g5615
tp5621
a(g302
g5615
tp5622
a(g304
g5615
tp5623
as(g99
g1863
tp5624
(lp5625
(g103
g1863
tp5626
a(g105
g1863
tp5627
a(g107
g1863
tp5628
as(g99
S'electron_microscope'
p5629
tp5630
(lp5631
(g103
g5629
tp5632
a(g105
g5629
tp5633
a(g107
g5629
tp5634
as(g705
S'compost_pile'
p5635
tp5636
(lp5637
(g701
g5635
tp5638
as(g13
S'jetliner'
p5639
tp5640
(lp5641
(g17
g5639
tp5642
as(g1430
S'coyote'
p5643
tp5644
(lp5645
(g1433
g5643
tp5646
as(g3242
S'gyroscope'
p5647
tp5648
(lp5649
(g3246
g5647
tp5650
as(g124
S'root'
p5651
tp5652
(lp5653
(g128
g5651
tp5654
as(g274
g3368
tp5655
(lp5656
(g278
g3368
tp5657
as(g2258
g873
tp5658
(lp5659
(g2262
g873
tp5660
a(g2264
g873
tp5661
as(g280
g1553
tp5662
(lp5663
(g284
g1553
tp5664
as(g17
g2761
tp5665
(lp5666
(g13
g2761
tp5667
as(g657
S'theme_park'
p5668
tp5669
(lp5670
(g107
g5668
tp5671
as(g3242
S'pyramid'
p5672
tp5673
(lp5674
(g3246
g5672
tp5675
as(g99
S'pocketknife'
p5676
tp5677
(lp5678
(g103
g5676
tp5679
a(g105
g5676
tp5680
a(g107
g5676
tp5681
as(g82
g1188
tp5682
(lp5683
(g86
g1188
tp5684
a(g88
g1188
tp5685
as(g215
S'abattoir'
p5686
tp5687
(lp5688
(g219
g5686
tp5689
as(g278
S'breeze'
p5690
tp5691
(lp5692
(g274
g5690
tp5693
a(g546
g5690
tp5694
as(g130
g339
tp5695
(lp5696
(g134
g339
tp5697
as(g1610
S'administrator'
p5698
tp5699
(lp5700
(g1614
g5698
tp5701
as(g1793
S'funeral'
p5702
tp5703
(lp5704
(g1797
g5702
tp5705
as(g274
g1475
tp5706
(lp5707
(g278
g1475
tp5708
as(g13
g3220
tp5709
(lp5710
(g17
g3220
tp5711
as(g374
S'harp'
p5712
tp5713
(lp5714
(g378
g5712
tp5715
as(g1196
g3412
tp5716
(lp5717
(g1200
g3412
tp5718
as(g2892
S'bedroom'
p5719
tp5720
(lp5721
(g2896
g5719
tp5722
as(g41
S'telephone_book'
p5723
tp5724
(lp5725
(g45
g5723
tp5726
a(g47
g5723
tp5727
as(g82
g4582
tp5728
(lp5729
(g86
g4582
tp5730
a(g88
g4582
tp5731
as(g71
g873
tp5732
(lp5733
(g75
g873
tp5734
as(g2300
g375
tp5735
(lp5736
(g2304
g375
tp5737
a(g2306
g375
tp5738
as(g177
g3706
tp5739
(lp5740
(g181
g3706
tp5741
as(g1425
g909
tp5742
(lp5743
(g1428
g909
tp5744
as(g99
g844
tp5745
(lp5746
(g103
g844
tp5747
a(g105
g844
tp5748
a(g107
g844
tp5749
as(g13
S'fetus'
p5750
tp5751
(lp5752
(g17
g5750
tp5753
as(g374
g5514
tp5754
(lp5755
(g378
g5514
tp5756
as(g1610
S'insect'
p5757
tp5758
(lp5759
(g1614
g5757
tp5760
as(g63
S'counterfeiter'
p5761
tp5762
(lp5763
(g59
g5761
tp5764
as(g2258
g2493
tp5765
(lp5766
(g2262
g2493
tp5767
a(g2264
g2493
tp5768
as(g280
S'cadaver'
p5769
tp5770
(lp5771
(g284
g5769
tp5772
as(g82
g3746
tp5773
(lp5774
(g86
g3746
tp5775
a(g88
g3746
tp5776
as(g3688
S'tumour'
p5777
tp5778
(lp5779
(g3692
g5777
tp5780
as(g99
S'scalpel'
p5781
tp5782
(lp5783
(g103
g5781
tp5784
a(g105
g5781
tp5785
a(g107
g5781
tp5786
as(g856
g5214
tp5787
(lp5788
(g860
g5214
tp5789
as(g201
S'cinder_block'
p5790
tp5791
(lp5792
(g205
g5790
tp5793
a(g207
g5790
tp5794
as(g41
g1104
tp5795
(lp5796
(g45
g1104
tp5797
a(g47
g1104
tp5798
as(g231
g5362
tp5799
(lp5800
(g227
g5362
tp5801
a(g768
g5362
tp5802
a(g770
g5362
tp5803
as(g17
S'dirge'
p5804
tp5805
(lp5806
(g13
g5804
tp5807
as(g237
S'tin_whistle'
p5808
tp5809
(lp5810
(g233
g5808
tp5811
a(g243
g5808
tp5812
as(g227
g2493
tp5813
(lp5814
(g231
g2493
tp5815
as(g237
S'dust'
p5816
tp5817
(lp5818
(g233
g5816
tp5819
a(g243
g5816
tp5820
as(g278
g1787
tp5821
(lp5822
(g274
g1787
tp5823
a(g546
g1787
tp5824
as(g2258
S'jelly'
p5825
tp5826
(lp5827
(g2262
g5825
tp5828
a(g2264
g5825
tp5829
as(g1610
S'desktop_computer'
p5830
tp5831
(lp5832
(g1614
g5830
tp5833
as(g374
S'marionette'
p5834
tp5835
(lp5836
(g378
g5834
tp5837
as(g107
g3577
tp5838
(lp5839
(g655
g3577
tp5840
a(g657
g3577
tp5841
a(g659
g3577
tp5842
a(g105
g3577
tp5843
a(g99
g3577
tp5844
as(g124
S'automobile_tire'
p5845
tp5846
(lp5847
(g128
g5845
tp5848
as(g99
g804
tp5849
(lp5850
(g103
g804
tp5851
a(g105
g804
tp5852
a(g107
g804
tp5853
as(g17
g3491
tp5854
(lp5855
(g13
g3491
tp5856
as(g147
g857
tp5857
(lp5858
(g141
g857
tp5859
a(g457
g857
tp5860
a(g459
g857
tp5861
a(g461
g857
tp5862
a(g463
g857
tp5863
as(g251
S'opal'
p5864
tp5865
(lp5866
(g255
g5864
tp5867
as(g553
g1600
tp5868
(lp5869
(g557
g1600
tp5870
a(g559
g1600
tp5871
as(g25
g1217
tp5872
(lp5873
(g29
g1217
tp5874
a(g31
g1217
tp5875
as(g501
g3701
tp5876
(lp5877
(g505
g3701
tp5878
a(g507
g3701
tp5879
a(g509
g3701
tp5880
as(g94
S'fruit'
p5881
tp5882
(lp5883
(g97
g5881
tp5884
as(g71
S'bulldog'
p5885
tp5886
(lp5887
(g75
g5885
tp5888
as(g1046
S'stealth_fighter'
p5889
tp5890
(lp5891
(g1050
g5889
tp5892
a(g1052
g5889
tp5893
as(g1
g2589
tp5894
(lp5895
(g5
g2589
tp5896
as(g1533
S'cotton_candy'
p5897
tp5898
(lp5899
(g1537
g5897
tp5900
as(g13
g2652
tp5901
(lp5902
(g17
g2652
tp5903
as(g82
S'mason_jar'
p5904
tp5905
(lp5906
(g86
g5904
tp5907
a(g88
g5904
tp5908
as(g374
g5096
tp5909
(lp5910
(g378
g5096
tp5911
as(g3688
S'necromancer'
p5912
tp5913
(lp5914
(g3692
g5912
tp5915
as(g445
S'cocoon'
p5916
tp5917
(lp5918
(g449
g5916
tp5919
a(g451
g5916
tp5920
as(g233
S'sewer'
p5921
tp5922
(lp5923
(g237
g5921
tp5924
as(g215
g923
tp5925
(lp5926
(g219
g923
tp5927
as(g353
g714
tp5928
(lp5929
(g357
g714
tp5930
a(g359
g714
tp5931
a(g361
g714
tp5932
as(g968
g4468
tp5933
(lp5934
(g972
g4468
tp5935
as(g215
g3717
tp5936
(lp5937
(g219
g3717
tp5938
as(g215
g5320
tp5939
(lp5940
(g219
g5320
tp5941
as(g41
S'pincushion'
p5942
tp5943
(lp5944
(g45
g5942
tp5945
a(g47
g5942
tp5946
as(g124
S'armor'
p5947
tp5948
(lp5949
(g128
g5947
tp5950
as(g141
g5885
tp5951
(lp5952
(g145
g5885
tp5953
a(g147
g5885
tp5954
a(g149
g5885
tp5955
as(g13
g403
tp5956
(lp5957
(g17
g403
tp5958
as(g526
g2852
tp5959
(lp5960
(g530
g2852
tp5961
a(g532
g2852
tp5962
as(g215
g3922
tp5963
(lp5964
(g219
g3922
tp5965
as(g99
S'switchblade'
p5966
tp5967
(lp5968
(g103
g5966
tp5969
a(g105
g5966
tp5970
a(g107
g5966
tp5971
as(g526
S'oil_change'
p5972
tp5973
(lp5974
(g530
g5972
tp5975
a(g532
g5972
tp5976
as(g3242
S'nut_case'
p5977
tp5978
(lp5979
(g3246
g5977
tp5980
as(g82
S'treasure_chest'
p5981
tp5982
(lp5983
(g86
g5981
tp5984
a(g88
g5981
tp5985
as(g124
S'ranger'
p5986
tp5987
(lp5988
(g128
g5986
tp5989
as(g278
g125
tp5990
(lp5991
(g274
g125
tp5992
a(g546
g125
tp5993
as(g374
g3255
tp5994
(lp5995
(g378
g3255
tp5996
as(g290
g1149
tp5997
(lp5998
(g294
g1149
tp5999
a(g296
g1149
tp6000
a(g298
g1149
tp6001
a(g300
g1149
tp6002
a(g302
g1149
tp6003
a(g304
g1149
tp6004
as(g7
g3412
tp6005
(lp6006
(g11
g3412
tp6007
as(g478
g2564
tp6008
(lp6009
(g482
g2564
tp6010
as(g565
S'poniard'
p6011
tp6012
(lp6013
(g569
g6011
tp6014
as(g82
S'colander'
p6015
tp6016
(lp6017
(g86
g6015
tp6018
a(g88
g6015
tp6019
as(g1040
S'shooting_star'
p6020
tp6021
(lp6022
(g1036
g6020
tp6023
as(g201
S'acrobat'
p6024
tp6025
(lp6026
(g205
g6024
tp6027
a(g207
g6024
tp6028
as(g17
g958
tp6029
(lp6030
(g13
g958
tp6031
as(g2000
g2965
tp6032
(lp6033
(g2004
g2965
tp6034
as(g274
g4301
tp6035
(lp6036
(g278
g4301
tp6037
as(g237
g3382
tp6038
(lp6039
(g233
g3382
tp6040
a(g243
g3382
tp6041
as(g25
g446
tp6042
(lp6043
(g29
g446
tp6044
a(g31
g446
tp6045
as(g13
S'modem'
p6046
tp6047
(lp6048
(g17
g6046
tp6049
as(g361
S'tunnel'
p6050
tp6051
(lp6052
(g353
g6050
tp6053
as(g99
S'meat_cleaver'
p6054
tp6055
(lp6056
(g103
g6054
tp6057
a(g105
g6054
tp6058
a(g107
g6054
tp6059
as(g49
g2547
tp6060
(lp6061
(g53
g2547
tp6062
a(g55
g2547
tp6063
a(g57
g2547
tp6064
as(g99
g3139
tp6065
(lp6066
(g103
g3139
tp6067
a(g105
g3139
tp6068
a(g107
g3139
tp6069
as(g130
S'waxwork'
p6070
tp6071
(lp6072
(g134
g6070
tp6073
as(g13
g5643
tp6074
(lp6075
(g17
g5643
tp6076
as(g2142
S'walnut'
p6077
tp6078
(lp6079
(g2146
g6077
tp6080
a(g2148
g6077
tp6081
as(g1699
g1139
tp6082
(lp6083
(g1703
g1139
tp6084
as(g577
g3916
tp6085
(lp6086
(g31
g3916
tp6087
as(g565
S'volleyball'
p6088
tp6089
(lp6090
(g569
g6088
tp6091
as(g4003
g5001
tp6092
(lp6093
(g4007
g5001
tp6094
as(g631
g3471
tp6095
(lp6096
(g103
g3471
tp6097
as(g1699
S'apricot'
p6098
tp6099
(lp6100
(g1703
g6098
tp6101
as(g49
S'princess'
p6102
tp6103
(lp6104
(g53
g6102
tp6105
a(g55
g6102
tp6106
a(g57
g6102
tp6107
as(g278
S'sledgehammer'
p6108
tp6109
(lp6110
(g274
g6108
tp6111
a(g546
g6108
tp6112
as(g1196
g610
tp6113
(lp6114
(g1200
g610
tp6115
as(g233
g1104
tp6116
(lp6117
(g237
g1104
tp6118
as(g363
g1863
tp6119
(lp6120
(g367
g1863
tp6121
as(g82
S'bracelet'
p6122
tp6123
(lp6124
(g86
g6122
tp6125
a(g88
g6122
tp6126
as(g37
g5769
tp6127
(lp6128
(g33
g5769
tp6129
a(g1063
g5769
tp6130
as(g29
S'mouse'
p6131
tp6132
(lp6133
(g25
g6131
tp6134
as(g41
g1746
tp6135
(lp6136
(g45
g1746
tp6137
a(g47
g1746
tp6138
as(g723
S'lily_pad'
p6139
tp6140
(lp6141
(g727
g6139
tp6142
as(g141
g2025
tp6143
(lp6144
(g145
g2025
tp6145
a(g147
g2025
tp6146
a(g149
g2025
tp6147
as(g659
S'cabbage'
p6148
tp6149
(lp6150
(g107
g6148
tp6151
as(g577
S'board'
p6152
tp6153
(lp6154
(g31
g6152
tp6155
as(g701
S'hospital_ward'
p6156
tp6157
(lp6158
(g705
g6156
tp6159
as(g13
g5525
tp6160
(lp6161
(g17
g5525
tp6162
as(g1040
S'mandala'
p6163
tp6164
(lp6165
(g1036
g6163
tp6166
as(g231
g1636
tp6167
(lp6168
(g227
g1636
tp6169
a(g768
g1636
tp6170
a(g770
g1636
tp6171
as(g99
S'rifle_shot'
p6172
tp6173
(lp6174
(g103
g6172
tp6175
a(g105
g6172
tp6176
a(g107
g6172
tp6177
as(g193
g3194
tp6178
(lp6179
(g197
g3194
tp6180
a(g199
g3194
tp6181
as(g215
g1916
tp6182
(lp6183
(g219
g1916
tp6184
as(g77
g306
tp6185
(lp6186
(g31
g306
tp6187
as(g359
S'savings_account'
p6188
tp6189
(lp6190
(g357
g6188
tp6191
a(g353
g6188
tp6192
a(g489
g6188
tp6193
as(g353
S'bison'
p6194
tp6195
(lp6196
(g357
g6194
tp6197
a(g359
g6194
tp6198
a(g361
g6194
tp6199
as(g657
S'glass_eye'
p6200
tp6201
(lp6202
(g107
g6200
tp6203
as(g1425
S'mountain_goat'
p6204
tp6205
(lp6206
(g1428
g6204
tp6207
as(g2996
g4787
tp6208
(lp6209
(g3000
g4787
tp6210
a(g3002
g4787
tp6211
a(g94
g4787
tp6212
a(g3005
g4787
tp6213
as(g353
S'counterweight'
p6214
tp6215
(lp6216
(g357
g6214
tp6217
a(g359
g6214
tp6218
a(g361
g6214
tp6219
as(g233
S'toilet_seat'
p6220
tp6221
(lp6222
(g237
g6220
tp6223
as(g353
g3127
tp6224
(lp6225
(g357
g3127
tp6226
a(g359
g3127
tp6227
a(g361
g3127
tp6228
as(g25
g281
tp6229
(lp6230
(g29
g281
tp6231
a(g31
g281
tp6232
as(g163
g2118
tp6233
(lp6234
(g159
g2118
tp6235
as(g1533
S'croissant'
p6236
tp6237
(lp6238
(g1537
g6236
tp6239
as(g124
g5885
tp6240
(lp6241
(g128
g5885
tp6242
as(g59
g811
tp6243
(lp6244
(g63
g811
tp6245
a(g65
g811
tp6246
a(g67
g811
tp6247
a(g69
g811
tp6248
as(g124
g2493
tp6249
(lp6250
(g128
g2493
tp6251
as(g103
g679
tp6252
(lp6253
(g631
g679
tp6254
a(g808
g679
tp6255
a(g99
g679
tp6256
as(g5
S'foetus'
p6257
tp6258
(lp6259
(g1
g6257
tp6260
as(g107
g1197
tp6261
(lp6262
(g655
g1197
tp6263
a(g657
g1197
tp6264
a(g659
g1197
tp6265
a(g105
g1197
tp6266
a(g99
g1197
tp6267
as(g25
g354
tp6268
(lp6269
(g29
g354
tp6270
a(g31
g354
tp6271
as(g59
S'circle'
p6272
tp6273
(lp6274
(g63
g6272
tp6275
a(g65
g6272
tp6276
a(g67
g6272
tp6277
a(g69
g6272
tp6278
as(g215
g3198
tp6279
(lp6280
(g219
g3198
tp6281
as(g33
g8
tp6282
(lp6283
(g37
g8
tp6284
a(g39
g8
tp6285
as(g7
g3759
tp6286
(lp6287
(g11
g3759
tp6288
as(S'concrete'
p6289
g1414
tp6290
(lp6291
(S'abstract'
p6292
g1414
tp6293
as(g141
g4249
tp6294
(lp6295
(g145
g4249
tp6296
a(g147
g4249
tp6297
a(g149
g4249
tp6298
as(g280
S'apple'
p6299
tp6300
(lp6301
(g284
g6299
tp6302
as(g114
S'reference_book'
p6303
tp6304
(lp6305
(g118
g6303
tp6306
as(g59
S'mobius_strip'
p6307
tp6308
(lp6309
(g63
g6307
tp6310
a(g65
g6307
tp6311
a(g67
g6307
tp6312
a(g69
g6307
tp6313
as(g1793
S'checker_board'
p6314
tp6315
(lp6316
(g1797
g6314
tp6317
as(g1802
g446
tp6318
(lp6319
(g1806
g446
tp6320
as(g13
S'racehorse'
p6321
tp6322
(lp6323
(g17
g6321
tp6324
as(g280
S'stallion'
p6325
tp6326
(lp6327
(g284
g6325
tp6328
as(g363
S'cub_scout'
p6329
tp6330
(lp6331
(g367
g6329
tp6332
as(g1040
g4307
tp6333
(lp6334
(g1036
g4307
tp6335
as(g59
S'lance'
p6336
tp6337
(lp6338
(g63
g6336
tp6339
a(g65
g6336
tp6340
a(g67
g6336
tp6341
a(g69
g6336
tp6342
as(g37
g3139
tp6343
(lp6344
(g33
g3139
tp6345
a(g1063
g3139
tp6346
as(g25
g2607
tp6347
(lp6348
(g29
g2607
tp6349
a(g31
g2607
tp6350
as(g359
S'treasury_bond'
p6351
tp6352
(lp6353
(g357
g6351
tp6354
a(g353
g6351
tp6355
a(g489
g6351
tp6356
as(g77
S'gun'
p6357
tp6358
(lp6359
(g31
g6357
tp6360
as(g1196
g8
tp6361
(lp6362
(g1200
g8
tp6363
as(g147
S'icepick'
p6364
tp6365
(lp6366
(g141
g6364
tp6367
a(g457
g6364
tp6368
a(g459
g6364
tp6369
a(g461
g6364
tp6370
a(g463
g6364
tp6371
as(g274
g2178
tp6372
(lp6373
(g278
g2178
tp6374
as(g482
S'child'
p6375
tp6376
(lp6377
(g478
g6375
tp6378
a(g2587
g6375
tp6379
as(g2750
S'tissue_paper'
p6380
tp6381
(lp6382
(g2753
g6380
tp6383
as(g59
g6152
tp6384
(lp6385
(g63
g6152
tp6386
a(g65
g6152
tp6387
a(g67
g6152
tp6388
a(g69
g6152
tp6389
as(g141
S'river_boulder'
p6390
tp6391
(lp6392
(g145
g6390
tp6393
a(g147
g6390
tp6394
a(g149
g6390
tp6395
as(g290
S'anthill'
p6396
tp6397
(lp6398
(g294
g6396
tp6399
a(g296
g6396
tp6400
a(g298
g6396
tp6401
a(g300
g6396
tp6402
a(g302
g6396
tp6403
a(g304
g6396
tp6404
as(g94
S'pippin'
p6405
tp6406
(lp6407
(g97
g6405
tp6408
as(g193
S'sculpture'
p6409
tp6410
(lp6411
(g197
g6409
tp6412
a(g199
g6409
tp6413
as(g215
S'layer_cake'
p6414
tp6415
(lp6416
(g219
g6414
tp6417
as(g215
S'baby_bird'
p6418
tp6419
(lp6420
(g219
g6418
tp6421
as(g7
g3359
tp6422
(lp6423
(g11
g3359
tp6424
as(g4178
S'nightmare'
p6425
tp6426
(lp6427
(g4181
g6425
tp6428
as(g215
S'seismograph'
p6429
tp6430
(lp6431
(g219
g6429
tp6432
as(g5
g852
tp6433
(lp6434
(g1
g852
tp6435
as(g99
g6336
tp6436
(lp6437
(g103
g6336
tp6438
a(g105
g6336
tp6439
a(g107
g6336
tp6440
as(g99
S'bobby_pin'
p6441
tp6442
(lp6443
(g103
g6441
tp6444
a(g105
g6441
tp6445
a(g107
g6441
tp6446
as(g1533
S'haiku'
p6447
tp6448
(lp6449
(g1537
g6447
tp6450
as(g82
S'cell_membrane'
p6451
tp6452
(lp6453
(g86
g6451
tp6454
a(g88
g6451
tp6455
as(g1
g306
tp6456
(lp6457
(g5
g306
tp6458
as(g7
g4706
tp6459
(lp6460
(g11
g4706
tp6461
as(g1036
S'scar'
p6462
tp6463
(lp6464
(g1040
g6462
tp6465
as(g215
g2761
tp6466
(lp6467
(g219
g2761
tp6468
as(g1773
S'birdnest'
p6469
tp6470
(lp6471
(g1777
g6469
tp6472
as(g374
S'ballet_master'
p6473
tp6474
(lp6475
(g378
g6473
tp6476
as(g2000
S'bb_gun'
p6477
tp6478
(lp6479
(g2004
g6477
tp6480
as(g1430
S'coward'
p6481
tp6482
(lp6483
(g1433
g6481
tp6484
as(g278
g1926
tp6485
(lp6486
(g274
g1926
tp6487
a(g546
g1926
tp6488
as(g163
g2083
tp6489
(lp6490
(g159
g2083
tp6491
as(g1425
g4157
tp6492
(lp6493
(g1428
g4157
tp6494
as(g205
g245
tp6495
(lp6496
(g201
g245
tp6497
a(g181
g245
tp6498
as(S'unsteady'
p6499
S'canoe'
p6500
tp6501
(lp6502
(S'steady'
p6503
g6500
tp6504
as(g17
g3960
tp6505
(lp6506
(g13
g3960
tp6507
as(g278
S'veil'
p6508
tp6509
(lp6510
(g274
g6508
tp6511
a(g546
g6508
tp6512
as(g77
g4944
tp6513
(lp6514
(g31
g4944
tp6515
as(g13
g674
tp6516
(lp6517
(g17
g674
tp6518
as(g99
S'steak_knife'
p6519
tp6520
(lp6521
(g103
g6519
tp6522
a(g105
g6519
tp6523
a(g107
g6519
tp6524
as(g237
S'toilet'
p6525
tp6526
(lp6527
(g233
g6525
tp6528
a(g243
g6525
tp6529
as(g278
S'smile'
p6530
tp6531
(lp6532
(g274
g6530
tp6533
a(g546
g6530
tp6534
as(g1793
S'museum'
p6535
tp6536
(lp6537
(g1797
g6535
tp6538
as(g17
g5769
tp6539
(lp6540
(g13
g5769
tp6541
as(g209
g1719
tp6542
(lp6543
(g213
g1719
tp6544
as(g59
S'bayonet'
p6545
tp6546
(lp6547
(g63
g6545
tp6548
a(g65
g6545
tp6549
a(g67
g6545
tp6550
a(g69
g6545
tp6551
as(g82
S'thermos_bottle'
p6552
tp6553
(lp6554
(g86
g6552
tp6555
a(g88
g6552
tp6556
as(g255
S'defect'
p6557
tp6558
(lp6559
(g251
g6557
tp6560
as(g193
S'sphinx'
p6561
tp6562
(lp6563
(g197
g6561
tp6564
a(g199
g6561
tp6565
as(g107
g2455
tp6566
(lp6567
(g655
g2455
tp6568
a(g657
g2455
tp6569
a(g659
g2455
tp6570
a(g105
g2455
tp6571
a(g99
g2455
tp6572
as(g201
g1099
tp6573
(lp6574
(g205
g1099
tp6575
a(g207
g1099
tp6576
as(g59
g1337
tp6577
(lp6578
(g63
g1337
tp6579
a(g65
g1337
tp6580
a(g67
g1337
tp6581
a(g69
g1337
tp6582
as(g753
g1149
tp6583
(lp6584
(g757
g1149
tp6585
as(g221
S'rattler'
p6586
tp6587
(lp6588
(g225
g6586
tp6589
as(g577
g1202
tp6590
(lp6591
(g31
g1202
tp6592
as(S'irreversible'
p6593
S'lobotomy'
p6594
tp6595
(lp6596
(S'reversible'
p6597
g6594
tp6598
as(g151
S'highland'
p6599
tp6600
(lp6601
(g155
g6599
tp6602
a(g157
g6599
tp6603
as(g49
S'primrose'
p6604
tp6605
(lp6606
(g53
g6604
tp6607
a(g55
g6604
tp6608
a(g57
g6604
tp6609
as(g141
g2712
tp6610
(lp6611
(g145
g2712
tp6612
a(g147
g2712
tp6613
a(g149
g2712
tp6614
as(g378
g2178
tp6615
(lp6616
(g374
g2178
tp6617
as(g59
g4163
tp6618
(lp6619
(g63
g4163
tp6620
a(g65
g4163
tp6621
a(g67
g4163
tp6622
a(g69
g4163
tp6623
as(g1533
g2178
tp6624
(lp6625
(g1537
g2178
tp6626
as(g71
S'rhinoceros'
p6627
tp6628
(lp6629
(g75
g6627
tp6630
as(g565
g5672
tp6631
(lp6632
(g569
g5672
tp6633
as(g177
g4333
tp6634
(lp6635
(g181
g4333
tp6636
as(g983
S'constellation'
p6637
tp6638
(lp6639
(g987
g6637
tp6640
as(g753
S'weathercock'
p6641
tp6642
(lp6643
(g757
g6641
tp6644
as(g5261
g6375
tp6645
(lp6646
(g5257
g6375
tp6647
a(S'exploited'
p6648
g6375
tp6649
as(g353
g4408
tp6650
(lp6651
(g357
g4408
tp6652
a(g359
g4408
tp6653
a(g361
g4408
tp6654
as(g526
S'cowboy'
p6655
tp6656
(lp6657
(g530
g6655
tp6658
a(g532
g6655
tp6659
as(g565
g1787
tp6660
(lp6661
(g569
g1787
tp6662
as(g374
S'cat_burglar'
p6663
tp6664
(lp6665
(g378
g6663
tp6666
as(g19
S'phantom'
p6667
tp6668
(lp6669
(g23
g6667
tp6670
as(g5
S'snowdrop'
p6671
tp6672
(lp6673
(g1
g6671
tp6674
as(g2744
S'musician'
p6675
tp6676
(lp6677
(g2748
g6675
tp6678
as(g107
S'waterfall'
p6679
tp6680
(lp6681
(g655
g6679
tp6682
a(g657
g6679
tp6683
a(g659
g6679
tp6684
a(g105
g6679
tp6685
a(g99
g6679
tp6686
as(g41
g2218
tp6687
(lp6688
(g45
g2218
tp6689
a(g47
g2218
tp6690
as(g5
g2547
tp6691
(lp6692
(g1
g2547
tp6693
as(g237
S'clinic'
p6694
tp6695
(lp6696
(g233
g6694
tp6697
a(g243
g6694
tp6698
as(S'unbreakable'
p6699
g2712
tp6700
(lp6701
(S'breakable'
p6702
g2712
tp6703
as(g1533
S'lump_sum'
p6704
tp6705
(lp6706
(g1537
g6704
tp6707
as(g1699
g5056
tp6708
(lp6709
(g1703
g5056
tp6710
as(g17
S'dung_beetle'
p6711
tp6712
(lp6713
(g13
g6711
tp6714
as(g124
g3626
tp6715
(lp6716
(g128
g3626
tp6717
as(g49
S'spray'
p6718
tp6719
(lp6720
(g53
g6718
tp6721
a(g55
g6718
tp6722
a(g57
g6718
tp6723
as(g274
g1188
tp6724
(lp6725
(g278
g1188
tp6726
as(g530
S'wicker'
p6727
tp6728
(lp6729
(g526
g6727
tp6730
as(g353
g131
tp6731
(lp6732
(g357
g131
tp6733
a(g359
g131
tp6734
a(g361
g131
tp6735
as(g565
g1863
tp6736
(lp6737
(g569
g1863
tp6738
as(g968
g4787
tp6739
(lp6740
(g972
g4787
tp6741
as(g71
S'elephant_seal'
p6742
tp6743
(lp6744
(g75
g6742
tp6745
as(g353
S'muscle'
p6746
tp6747
(lp6748
(g357
g6746
tp6749
a(g359
g6746
tp6750
a(g361
g6746
tp6751
as(g1508
S'bungee_cord'
p6752
tp6753
(lp6754
(g1512
g6752
tp6755
as(g25
S'jackhammer'
p6756
tp6757
(lp6758
(g29
g6756
tp6759
a(g31
g6756
tp6760
as(g274
g391
tp6761
(lp6762
(g278
g391
tp6763
as(g25
S'steel_trap'
p6764
tp6765
(lp6766
(g29
g6764
tp6767
a(g31
g6764
tp6768
as(g25
S'ape'
p6769
tp6770
(lp6771
(g29
g6769
tp6772
a(g31
g6769
tp6773
as(g25
g5253
tp6774
(lp6775
(g29
g5253
tp6776
a(g31
g5253
tp6777
as(g353
g34
tp6778
(lp6779
(g357
g34
tp6780
a(g359
g34
tp6781
a(g361
g34
tp6782
as(g25
g1318
tp6783
(lp6784
(g29
g1318
tp6785
a(g31
g1318
tp6786
as(g99
g1174
tp6787
(lp6788
(g103
g1174
tp6789
a(g105
g1174
tp6790
a(g107
g1174
tp6791
as(g1610
g714
tp6792
(lp6793
(g1614
g714
tp6794
as(g577
g954
tp6795
(lp6796
(g31
g954
tp6797
as(g577
S'popsicle'
p6798
tp6799
(lp6800
(g31
g6798
tp6801
as(g274
S'log'
p6802
tp6803
(lp6804
(g278
g6802
tp6805
as(g99
S'stiletto_heel'
p6806
tp6807
(lp6808
(g103
g6806
tp6809
a(g105
g6806
tp6810
a(g107
g6806
tp6811
as(g29
g1233
tp6812
(lp6813
(g25
g1233
tp6814
as(g374
S'prince'
p6815
tp6816
(lp6817
(g378
g6815
tp6818
as(g215
S'crane'
p6819
tp6820
(lp6821
(g219
g6819
tp6822
as(g177
g1197
tp6823
(lp6824
(g181
g1197
tp6825
as(g41
S'heifer'
p6826
tp6827
(lp6828
(g45
g6826
tp6829
a(g47
g6826
tp6830
as(g124
S'bounty_hunter'
p6831
tp6832
(lp6833
(g128
g6831
tp6834
as(g374
g1314
tp6835
(lp6836
(g378
g1314
tp6837
as(g1196
g4532
tp6838
(lp6839
(g1200
g4532
tp6840
as(g134
g862
tp6841
(lp6842
(g130
g862
tp6843
as(g25
S'titan'
p6844
tp6845
(lp6846
(g29
g6844
tp6847
a(g31
g6844
tp6848
as(g1773
S'grapevine'
p6849
tp6850
(lp6851
(g1777
g6849
tp6852
as(g237
g187
tp6853
(lp6854
(g233
g187
tp6855
a(g243
g187
tp6856
as(g124
S'haircut'
p6857
tp6858
(lp6859
(g128
g6857
tp6860
as(g99
S'marble'
p6861
tp6862
(lp6863
(g103
g6861
tp6864
a(g105
g6861
tp6865
a(g107
g6861
tp6866
as(g478
g2332
tp6867
(lp6868
(g482
g2332
tp6869
as(g141
g4938
tp6870
(lp6871
(g145
g4938
tp6872
a(g147
g4938
tp6873
a(g149
g4938
tp6874
as(g526
S'sump_pump'
p6875
tp6876
(lp6877
(g530
g6875
tp6878
a(g532
g6875
tp6879
as(g278
g6236
tp6880
(lp6881
(g274
g6236
tp6882
a(g546
g6236
tp6883
as(g59
S'boomerang'
p6884
tp6885
(lp6886
(g63
g6884
tp6887
a(g65
g6884
tp6888
a(g67
g6884
tp6889
a(g69
g6884
tp6890
as(g251
S'pearl'
p6891
tp6892
(lp6893
(g255
g6891
tp6894
as(g141
g8
tp6895
(lp6896
(g145
g8
tp6897
a(g147
g8
tp6898
a(g149
g8
tp6899
as(g231
g2493
tp6900
(lp6901
(g227
g2493
tp6902
a(g768
g2493
tp6903
a(g770
g2493
tp6904
as(g99
g1892
tp6905
(lp6906
(g103
g1892
tp6907
a(g105
g1892
tp6908
a(g107
g1892
tp6909
as(g1533
g216
tp6910
(lp6911
(g1537
g216
tp6912
as(g231
S'death_valley'
p6913
tp6914
(lp6915
(g227
g6913
tp6916
a(g768
g6913
tp6917
a(g770
g6913
tp6918
as(g2497
g5236
tp6919
(lp6920
(g2501
g5236
tp6921
a(g2503
g5236
tp6922
as(g59
g4748
tp6923
(lp6924
(g63
g4748
tp6925
a(g65
g4748
tp6926
a(g67
g4748
tp6927
a(g69
g4748
tp6928
as(g177
g4855
tp6929
(lp6930
(g181
g4855
tp6931
as(g5
g6418
tp6932
(lp6933
(g1
g6418
tp6934
as(g99
g2025
tp6935
(lp6936
(g103
g2025
tp6937
a(g105
g2025
tp6938
a(g107
g2025
tp6939
as(g233
g1011
tp6940
(lp6941
(g237
g1011
tp6942
as(g478
S'metropolis'
p6943
tp6944
(lp6945
(g482
g6943
tp6946
as(g353
S'planet'
p6947
tp6948
(lp6949
(g357
g6947
tp6950
a(g359
g6947
tp6951
a(g361
g6947
tp6952
as(g278
g453
tp6953
(lp6954
(g274
g453
tp6955
a(g546
g453
tp6956
as(g99
S'lens'
p6957
tp6958
(lp6959
(g103
g6957
tp6960
a(g105
g6957
tp6961
a(g107
g6957
tp6962
as(g151
g636
tp6963
(lp6964
(g155
g636
tp6965
a(g157
g636
tp6966
as(g1
g746
tp6967
(lp6968
(g5
g746
tp6969
as(g193
g800
tp6970
(lp6971
(g197
g800
tp6972
a(g199
g800
tp6973
as(g13
g4033
tp6974
(lp6975
(g17
g4033
tp6976
as(g141
g409
tp6977
(lp6978
(g145
g409
tp6979
a(g147
g409
tp6980
a(g149
g409
tp6981
as(g25
S'titanium'
p6982
tp6983
(lp6984
(g29
g6982
tp6985
a(g31
g6982
tp6986
as(g7
g2564
tp6987
(lp6988
(g11
g2564
tp6989
as(g103
S'mallet'
p6990
tp6991
(lp6992
(g631
g6990
tp6993
a(g808
g6990
tp6994
a(g99
g6990
tp6995
as(g177
g403
tp6996
(lp6997
(g181
g403
tp6998
as(g163
g5214
tp6999
(lp7000
(g159
g5214
tp7001
as(g1699
S'strawberry'
p7002
tp7003
(lp7004
(g1703
g7002
tp7005
as(g209
g6380
tp7006
(lp7007
(g213
g6380
tp7008
as(g320
g8
tp7009
(lp7010
(g324
g8
tp7011
as(g515
g3194
tp7012
(lp7013
(g518
g3194
tp7014
as(g478
g1365
tp7015
(lp7016
(g482
g1365
tp7017
as(g3868
g2761
tp7018
(lp7019
(g141
g2761
tp7020
as(g227
S'seal'
p7021
tp7022
(lp7023
(g231
g7021
tp7024
as(g25
g34
tp7025
(lp7026
(g29
g34
tp7027
a(g31
g34
tp7028
as(g274
g1118
tp7029
(lp7030
(g278
g1118
tp7031
as(g1430
g3026
tp7032
(lp7033
(g1433
g3026
tp7034
as(g968
g4157
tp7035
(lp7036
(g972
g4157
tp7037
as(g1610
S'hacker'
p7038
tp7039
(lp7040
(g1614
g7038
tp7041
as(g695
S'carcass'
p7042
tp7043
(lp7044
(g699
g7042
tp7045
as(g1699
S'filet_mignon'
p7046
tp7047
(lp7048
(g1703
g7046
tp7049
as(g231
S'beaver'
p7050
tp7051
(lp7052
(g227
g7050
tp7053
a(g768
g7050
tp7054
a(g770
g7050
tp7055
as(g353
g3194
tp7056
(lp7057
(g357
g3194
tp7058
a(g359
g3194
tp7059
a(g361
g3194
tp7060
as(g274
g5790
tp7061
(lp7062
(g278
g5790
tp7063
as(g59
S'hem'
p7064
tp7065
(lp7066
(g63
g7064
tp7067
a(g65
g7064
tp7068
a(g67
g7064
tp7069
a(g69
g7064
tp7070
as(g3503
g6798
tp7071
(lp7072
(g3506
g6798
tp7073
as(g274
g3022
tp7074
(lp7075
(g278
g3022
tp7076
as(g6699
g8
tp7077
(lp7078
(g6702
g8
tp7079
as(g59
S'die'
p7080
tp7081
(lp7082
(g63
g7080
tp7083
a(g65
g7080
tp7084
a(g67
g7080
tp7085
a(g69
g7080
tp7086
as(g49
S'lettuce'
p7087
tp7088
(lp7089
(g53
g7087
tp7090
a(g55
g7087
tp7091
a(g57
g7087
tp7092
as(g5
S'dove'
p7093
tp7094
(lp7095
(g1
g7093
tp7096
as(g82
S'bowstring'
p7097
tp7098
(lp7099
(g86
g7097
tp7100
a(g88
g7097
tp7101
as(g577
g2727
tp7102
(lp7103
(g31
g2727
tp7104
as(g99
S'meatball'
p7105
tp7106
(lp7107
(g103
g7105
tp7108
a(g105
g7105
tp7109
a(g107
g7105
tp7110
as(g99
S'carving_knife'
p7111
tp7112
(lp7113
(g103
g7111
tp7114
a(g105
g7111
tp7115
a(g107
g7111
tp7116
as(g130
g495
tp7117
(lp7118
(g134
g495
tp7119
as(g2446
g857
tp7120
(lp7121
(g2450
g857
tp7122
a(g2452
g857
tp7123
a(g1537
g857
tp7124
as(g209
g4582
tp7125
(lp7126
(g213
g4582
tp7127
as(S'untidy'
p7128
g4787
tp7129
(lp7130
(S'tidy'
p7131
g4787
tp7132
as(g565
g804
tp7133
(lp7134
(g569
g804
tp7135
as(g29
S'babe'
p7136
tp7137
(lp7138
(g25
g7136
tp7139
as(g233
g2498
tp7140
(lp7141
(g237
g2498
tp7142
as(g2258
g862
tp7143
(lp7144
(g2262
g862
tp7145
a(g2264
g862
tp7146
as(g361
S'hoax'
p7147
tp7148
(lp7149
(g353
g7147
tp7150
as(g233
S'street_fighter'
p7151
tp7152
(lp7153
(g237
g7151
tp7154
as(g231
S'herring'
p7155
tp7156
(lp7157
(g227
g7155
tp7158
a(g768
g7155
tp7159
a(g770
g7155
tp7160
as(S'unformed'
p7161
g7136
tp7162
(lp7163
(S'formed'
p7164
g7136
tp7165
as(g141
g527
tp7166
(lp7167
(g145
g527
tp7168
a(g147
g527
tp7169
a(g149
g527
tp7170
as(g141
g3194
tp7171
(lp7172
(g145
g3194
tp7173
a(g147
g3194
tp7174
a(g149
g3194
tp7175
as(g294
S'mussel'
p7176
tp7177
(lp7178
(g290
g7176
tp7179
a(g499
g7176
tp7180
as(g141
g4562
tp7181
(lp7182
(g145
g4562
tp7183
a(g147
g4562
tp7184
a(g149
g4562
tp7185
as(g99
S'wood_chisel'
p7186
tp7187
(lp7188
(g103
g7186
tp7189
a(g105
g7186
tp7190
a(g107
g7186
tp7191
as(g5
g2332
tp7192
(lp7193
(g1
g2332
tp7194
as(g99
S'banana'
p7195
tp7196
(lp7197
(g103
g7195
tp7198
a(g105
g7195
tp7199
a(g107
g7195
tp7200
as(g141
g5277
tp7201
(lp7202
(g145
g5277
tp7203
a(g147
g5277
tp7204
a(g149
g5277
tp7205
as(g274
g1307
tp7206
(lp7207
(g278
g1307
tp7208
as(g17
g1217
tp7209
(lp7210
(g13
g1217
tp7211
as(g7
g1553
tp7212
(lp7213
(g11
g1553
tp7214
as(g193
S'sniper'
p7215
tp7216
(lp7217
(g197
g7215
tp7218
a(g199
g7215
tp7219
as(S'substantive'
p7220
S'burger'
p7221
tp7222
(lp7223
(S'adjective'
p7224
g7221
tp7225
as(g13
g5001
tp7226
(lp7227
(g17
g5001
tp7228
as(g577
g5769
tp7229
(lp7230
(g31
g5769
tp7231
as(g7
g4748
tp7232
(lp7233
(g11
g4748
tp7234
as(g374
g1131
tp7235
(lp7236
(g378
g1131
tp7237
as(g193
g2589
tp7238
(lp7239
(g197
g2589
tp7240
a(g199
g2589
tp7241
as(g2446
S'prosthesis'
p7242
tp7243
(lp7244
(g2450
g7242
tp7245
a(g2452
g7242
tp7246
a(g1537
g7242
tp7247
as(g361
g72
tp7248
(lp7249
(g353
g72
tp7250
as(g723
S'doctor'
p7251
tp7252
(lp7253
(g727
g7251
tp7254
as(g378
S'unicycle'
p7255
tp7256
(lp7257
(g374
g7255
tp7258
as(g63
g5226
tp7259
(lp7260
(g59
g5226
tp7261
as(g7
g306
tp7262
(lp7263
(g11
g306
tp7264
as(g290
g862
tp7265
(lp7266
(g294
g862
tp7267
a(g296
g862
tp7268
a(g298
g862
tp7269
a(g300
g862
tp7270
a(g302
g862
tp7271
a(g304
g862
tp7272
as(g124
g5492
tp7273
(lp7274
(g128
g5492
tp7275
as(g33
g2279
tp7276
(lp7277
(g37
g2279
tp7278
a(g39
g2279
tp7279
as(g400
g4097
tp7280
(lp7281
(g396
g4097
tp7282
as(g147
S'shag_rug'
p7283
tp7284
(lp7285
(g141
g7283
tp7286
a(g457
g7283
tp7287
a(g459
g7283
tp7288
a(g461
g7283
tp7289
a(g463
g7283
tp7290
as(g141
g495
tp7291
(lp7292
(g145
g495
tp7293
a(g147
g495
tp7294
a(g149
g495
tp7295
as(g2634
g125
tp7296
(lp7297
(g2638
g125
tp7298
as(g99
g3255
tp7299
(lp7300
(g103
g3255
tp7301
a(g105
g3255
tp7302
a(g107
g3255
tp7303
as(g304
S'dormouse'
p7304
tp7305
(lp7306
(g290
g7304
tp7307
as(g201
S'string'
p7308
tp7309
(lp7310
(g205
g7308
tp7311
a(g207
g7308
tp7312
as(g374
g1849
tp7313
(lp7314
(g378
g1849
tp7315
as(g577
g5834
tp7316
(lp7317
(g31
g5834
tp7318
as(g553
g5085
tp7319
(lp7320
(g557
g5085
tp7321
a(g559
g5085
tp7322
as(g134
S'watch'
p7323
tp7324
(lp7325
(g130
g7323
tp7326
as(g353
S'swiss_cheese'
p7327
tp7328
(lp7329
(g357
g7327
tp7330
a(g359
g7327
tp7331
a(g361
g7327
tp7332
as(g71
S'louse'
p7333
tp7334
(lp7335
(g75
g7333
tp7336
as(g400
g4944
tp7337
(lp7338
(g396
g4944
tp7339
as(g201
S'slipper'
p7340
tp7341
(lp7342
(g205
g7340
tp7343
a(g207
g7340
tp7344
as(g13
g6627
tp7345
(lp7346
(g17
g6627
tp7347
as(g968
g1318
tp7348
(lp7349
(g972
g1318
tp7350
as(g478
g2547
tp7351
(lp7352
(g482
g2547
tp7353
as(g266
S'poem'
p7354
tp7355
(lp7356
(g270
g7354
tp7357
a(g272
g7354
tp7358
as(g94
S'berry'
p7359
tp7360
(lp7361
(g97
g7359
tp7362
as(g7161
S'newborn'
p7363
tp7364
(lp7365
(g7164
g7363
tp7366
as(g1793
S'honeycomb'
p7367
tp7368
(lp7369
(g1797
g7367
tp7370
as(g278
g936
tp7371
(lp7372
(g274
g936
tp7373
a(g546
g936
tp7374
as(g59
g2345
tp7375
(lp7376
(g63
g2345
tp7377
a(g65
g2345
tp7378
a(g67
g2345
tp7379
a(g69
g2345
tp7380
as(g565
g3916
tp7381
(lp7382
(g569
g3916
tp7383
as(g374
g674
tp7384
(lp7385
(g378
g674
tp7386
as(g374
g963
tp7387
(lp7388
(g378
g963
tp7389
as(g251
S'metronome'
p7390
tp7391
(lp7392
(g255
g7390
tp7393
as(g472
g8
tp7394
(lp7395
(g476
g8
tp7396
as(g25
g1579
tp7397
(lp7398
(g29
g1579
tp7399
a(g31
g1579
tp7400
as(g147
g3916
tp7401
(lp7402
(g141
g3916
tp7403
a(g457
g3916
tp7404
a(g459
g3916
tp7405
a(g461
g3916
tp7406
a(g463
g3916
tp7407
as(g396
S'sandbag'
p7408
tp7409
(lp7410
(g400
g7408
tp7411
a(g45
g7408
tp7412
as(g278
g2607
tp7413
(lp7414
(g274
g2607
tp7415
a(g546
g2607
tp7416
as(g41
S'monk'
p7417
tp7418
(lp7419
(g45
g7417
tp7420
a(g47
g7417
tp7421
as(g1533
S'anchovy'
p7422
tp7423
(lp7424
(g1537
g7422
tp7425
as(g577
g8
tp7426
(lp7427
(g31
g8
tp7428
as(g215
S'tissue'
p7429
tp7430
(lp7431
(g219
g7429
tp7432
as(g994
S'boy'
p7433
tp7434
(lp7435
(g998
g7433
tp7436
as(g1154
S'earthworm'
p7437
tp7438
(lp7439
(g1157
g7437
tp7440
as(g151
S'cement_mixer'
p7441
tp7442
(lp7443
(g155
g7441
tp7444
a(g157
g7441
tp7445
as(g25
g824
tp7446
(lp7447
(g29
g824
tp7448
a(g31
g824
tp7449
as(g82
g958
tp7450
(lp7451
(g86
g958
tp7452
a(g88
g958
tp7453
as(g49
g7359
tp7454
(lp7455
(g53
g7359
tp7456
a(g55
g7359
tp7457
a(g57
g7359
tp7458
as(g526
S'mackerel'
p7459
tp7460
(lp7461
(g530
g7459
tp7462
a(g532
g7459
tp7463
as(g759
S'monolith'
p7464
tp7465
(lp7466
(g762
g7464
tp7467
as(g82
g286
tp7468
(lp7469
(g86
g286
tp7470
a(g88
g286
tp7471
as(g141
S'steel_plate'
p7472
tp7473
(lp7474
(g145
g7472
tp7475
a(g147
g7472
tp7476
a(g149
g7472
tp7477
as(g3804
S'exhaust_pipe'
p7478
tp7479
(lp7480
(g3807
g7478
tp7481
as(g151
g2126
tp7482
(lp7483
(g155
g2126
tp7484
a(g157
g2126
tp7485
as(g59
S'gun_barrel'
p7486
tp7487
(lp7488
(g63
g7486
tp7489
a(g65
g7486
tp7490
a(g67
g7486
tp7491
a(g69
g7486
tp7492
as(g177
g2589
tp7493
(lp7494
(g181
g2589
tp7495
as(g193
S'crypt'
p7496
tp7497
(lp7498
(g197
g7496
tp7499
a(g199
g7496
tp7500
as(g219
g339
tp7501
(lp7502
(g215
g339
tp7503
a(g602
g339
tp7504
as(g59
g7097
tp7505
(lp7506
(g63
g7097
tp7507
a(g65
g7097
tp7508
a(g67
g7097
tp7509
a(g69
g7097
tp7510
as(g304
S'doormat'
p7511
tp7512
(lp7513
(g290
g7511
tp7514
as(g99
g3421
tp7515
(lp7516
(g103
g3421
tp7517
a(g105
g3421
tp7518
a(g107
g3421
tp7519
as(g219
S'jeep'
p7520
tp7521
(lp7522
(g215
g7520
tp7523
a(g602
g7520
tp7524
as(g71
S'pug'
p7525
tp7526
(lp7527
(g75
g7525
tp7528
as(g553
g824
tp7529
(lp7530
(g557
g824
tp7531
a(g559
g824
tp7532
as(g1425
S'sportsman'
p7533
tp7534
(lp7535
(g1428
g7533
tp7536
as(g17
S'cripple'
p7537
tp7538
(lp7539
(g13
g7537
tp7540
as(g7
g1229
tp7541
(lp7542
(g11
g1229
tp7543
as(g99
S'spatula'
p7544
tp7545
(lp7546
(g103
g7544
tp7547
a(g105
g7544
tp7548
a(g107
g7544
tp7549
as(g59
g5230
tp7550
(lp7551
(g63
g5230
tp7552
a(g65
g5230
tp7553
a(g67
g5230
tp7554
a(g69
g5230
tp7555
as(g374
g909
tp7556
(lp7557
(g378
g909
tp7558
as(g353
g1122
tp7559
(lp7560
(g357
g1122
tp7561
a(g359
g1122
tp7562
a(g361
g1122
tp7563
as(g2446
S'documentary'
p7564
tp7565
(lp7566
(g2450
g7564
tp7567
a(g2452
g7564
tp7568
a(g1537
g7564
tp7569
as(g37
S'doornail'
p7570
tp7571
(lp7572
(g33
g7570
tp7573
a(g1063
g7570
tp7574
as(g49
g5690
tp7575
(lp7576
(g53
g5690
tp7577
a(g55
g5690
tp7578
a(g57
g5690
tp7579
as(g233
S'swine'
p7580
tp7581
(lp7582
(g237
g7580
tp7583
as(g107
S'songbird'
p7584
tp7585
(lp7586
(g655
g7584
tp7587
a(g657
g7584
tp7588
a(g659
g7584
tp7589
a(g105
g7584
tp7590
a(g99
g7584
tp7591
as(g396
S'harvest_moon'
p7592
tp7593
(lp7594
(g400
g7592
tp7595
a(g45
g7592
tp7596
as(g3688
S'tumor'
p7597
tp7598
(lp7599
(g3692
g7597
tp7600
as(g124
g1869
tp7601
(lp7602
(g128
g1869
tp7603
as(g856
g1251
tp7604
(lp7605
(g860
g1251
tp7606
as(g124
g2178
tp7607
(lp7608
(g128
g2178
tp7609
as(g4003
g3220
tp7610
(lp7611
(g4007
g3220
tp7612
as(g29
g3681
tp7613
(lp7614
(g25
g3681
tp7615
as(g124
g1446
tp7616
(lp7617
(g128
g1446
tp7618
as(g82
S'barnacle'
p7619
tp7620
(lp7621
(g86
g7619
tp7622
a(g88
g7619
tp7623
as(g274
g6108
tp7624
(lp7625
(g278
g6108
tp7626
as(g124
g702
tp7627
(lp7628
(g128
g702
tp7629
as(g1425
g2021
tp7630
(lp7631
(g1428
g2021
tp7632
as(g227
g419
tp7633
(lp7634
(g231
g419
tp7635
as(S'homogenous'
p7636
g473
tp7637
(lp7638
(g819
g473
tp7639
as(g7
S'cell_wall'
p7640
tp7641
(lp7642
(g11
g7640
tp7643
as(g25
S'bomb_shelter'
p7644
tp7645
(lp7646
(g29
g7644
tp7647
a(g31
g7644
tp7648
as(g134
g2652
tp7649
(lp7650
(g130
g2652
tp7651
as(g1402
S'boy_scout'
p7652
tp7653
(lp7654
(g1406
g7652
tp7655
as(g361
S'jackolantern'
p7656
tp7657
(lp7658
(g353
g7656
tp7659
as(g124
g4687
tp7660
(lp7661
(g128
g4687
tp7662
as(g1036
g2324
tp7663
(lp7664
(g1040
g2324
tp7665
as(g124
g403
tp7666
(lp7667
(g128
g403
tp7668
as(g2497
g1197
tp7669
(lp7670
(g2501
g1197
tp7671
a(g2503
g1197
tp7672
as(g25
S'mountaineer'
p7673
tp7674
(lp7675
(g29
g7673
tp7676
a(g31
g7673
tp7677
as(g17
g1318
tp7678
(lp7679
(g13
g1318
tp7680
as(g134
g34
tp7681
(lp7682
(g130
g34
tp7683
as(g13
g5064
tp7684
(lp7685
(g17
g5064
tp7686
as(g209
g1794
tp7687
(lp7688
(g213
g1794
tp7689
as(g227
S'marsh'
p7690
tp7691
(lp7692
(g231
g7690
tp7693
as(g2142
g5615
tp7694
(lp7695
(g2146
g5615
tp7696
a(g2148
g5615
tp7697
as(g71
S'mud'
p7698
tp7699
(lp7700
(g75
g7698
tp7701
as(g201
g403
tp7702
(lp7703
(g205
g403
tp7704
a(g207
g403
tp7705
as(g201
S'hairpin'
p7706
tp7707
(lp7708
(g205
g7706
tp7709
a(g207
g7706
tp7710
as(g2744
S'artisan'
p7711
tp7712
(lp7713
(g2748
g7711
tp7714
as(g215
g1705
tp7715
(lp7716
(g219
g1705
tp7717
as(g25
g5347
tp7718
(lp7719
(g29
g5347
tp7720
a(g31
g5347
tp7721
as(g71
g2170
tp7722
(lp7723
(g75
g2170
tp7724
as(g1610
S'typhoon'
p7725
tp7726
(lp7727
(g1614
g7725
tp7728
as(g400
g4440
tp7729
(lp7730
(g396
g4440
tp7731
as(g25
S'atom_bomb'
p7732
tp7733
(lp7734
(g29
g7732
tp7735
a(g31
g7732
tp7736
as(g134
g8
tp7737
(lp7738
(g130
g8
tp7739
as(g968
S'centipede'
p7740
tp7741
(lp7742
(g972
g7740
tp7743
as(g631
S'fiddler'
p7744
tp7745
(lp7746
(g103
g7744
tp7747
as(g5
g2455
tp7748
(lp7749
(g1
g2455
tp7750
as(g526
S'mullet'
p7751
tp7752
(lp7753
(g530
g7751
tp7754
a(g532
g7751
tp7755
as(g7220
g4814
tp7756
(lp7757
(g7224
g4814
tp7758
as(g759
g160
tp7759
(lp7760
(g762
g160
tp7761
as(g478
S'library_catalog'
p7762
tp7763
(lp7764
(g482
g7762
tp7765
as(g374
g1390
tp7766
(lp7767
(g378
g1390
tp7768
as(g201
g6764
tp7769
(lp7770
(g205
g6764
tp7771
a(g207
g6764
tp7772
as(g25
g7725
tp7773
(lp7774
(g29
g7725
tp7775
a(g31
g7725
tp7776
as(g13
g3873
tp7777
(lp7778
(g17
g3873
tp7779
as(g59
S'chopstick'
p7780
tp7781
(lp7782
(g63
g7780
tp7783
a(g65
g7780
tp7784
a(g67
g7780
tp7785
a(g69
g7780
tp7786
as(g695
g691
tp7787
(lp7788
(g699
g691
tp7789
as(g147
g2410
tp7790
(lp7791
(g141
g2410
tp7792
a(g457
g2410
tp7793
a(g459
g2410
tp7794
a(g461
g2410
tp7795
a(g463
g2410
tp7796
as(S'ill'
p7797
g2279
tp7798
(lp7799
(g1619
g2279
tp7800
as(g856
g7644
tp7801
(lp7802
(g860
g7644
tp7803
as(g124
g2930
tp7804
(lp7805
(g128
g2930
tp7806
as(g82
g160
tp7807
(lp7808
(g86
g160
tp7809
a(g88
g160
tp7810
as(g33
g3795
tp7811
(lp7812
(g37
g3795
tp7813
a(g39
g3795
tp7814
as(g2744
S'artist'
p7815
tp7816
(lp7817
(g2748
g7815
tp7818
as(g215
g3194
tp7819
(lp7820
(g219
g3194
tp7821
as(g227
S'sop'
p7822
tp7823
(lp7824
(g231
g7822
tp7825
as(g7
S'logic_diagram'
p7826
tp7827
(lp7828
(g11
g7826
tp7829
as(g59
g2025
tp7830
(lp7831
(g63
g2025
tp7832
a(g65
g2025
tp7833
a(g67
g2025
tp7834
a(g69
g2025
tp7835
as(g209
g2432
tp7836
(lp7837
(g213
g2432
tp7838
as(g274
S'destroyer'
p7839
tp7840
(lp7841
(g278
g7839
tp7842
as(g657
g800
tp7843
(lp7844
(g107
g800
tp7845
as(g7
S'tax_form'
p7846
tp7847
(lp7848
(g11
g7846
tp7849
as(g361
g954
tp7850
(lp7851
(g353
g954
tp7852
as(g2258
g7195
tp7853
(lp7854
(g2262
g7195
tp7855
a(g2264
g7195
tp7856
as(g278
S'pebble'
p7857
tp7858
(lp7859
(g274
g7857
tp7860
a(g546
g7857
tp7861
as(g526
g3338
tp7862
(lp7863
(g530
g3338
tp7864
a(g532
g3338
tp7865
as(g1616
g3382
tp7866
(lp7867
(g1619
g3382
tp7868
as(g13
S'comet'
p7869
tp7870
(lp7871
(g17
g7869
tp7872
as(g3503
S'snowman'
p7873
tp7874
(lp7875
(g3506
g7873
tp7876
as(g526
S'dictionary'
p7877
tp7878
(lp7879
(g530
g7877
tp7880
a(g532
g7877
tp7881
as(g7
S'clamp'
p7882
tp7883
(lp7884
(g11
g7882
tp7885
as(g25
g746
tp7886
(lp7887
(g29
g746
tp7888
a(g31
g746
tp7889
as(g99
S'dart'
p7890
tp7891
(lp7892
(g103
g7890
tp7893
a(g105
g7890
tp7894
a(g107
g7890
tp7895
as(g99
S'razorblade'
p7896
tp7897
(lp7898
(g103
g7896
tp7899
a(g105
g7896
tp7900
a(g107
g7896
tp7901
as(g71
g4631
tp7902
(lp7903
(g75
g4631
tp7904
as(g274
g4484
tp7905
(lp7906
(g278
g4484
tp7907
as(g577
g663
tp7908
(lp7909
(g31
g663
tp7910
as(g274
g2319
tp7911
(lp7912
(g278
g2319
tp7913
as(g400
S'ghost_town'
p7914
tp7915
(lp7916
(g396
g7914
tp7917
as(g374
g1684
tp7918
(lp7919
(g378
g1684
tp7920
as(g1802
S'megaton_bomb'
p7921
tp7922
(lp7923
(g1806
g7921
tp7924
as(g278
g5320
tp7925
(lp7926
(g274
g5320
tp7927
a(g546
g5320
tp7928
as(g705
S'queen_bee'
p7929
tp7930
(lp7931
(g701
g7929
tp7932
as(g163
g275
tp7933
(lp7934
(g159
g275
tp7935
as(g1773
S'kudzu_vine'
p7936
tp7937
(lp7938
(g1777
g7936
tp7939
as(g25
g306
tp7940
(lp7941
(g29
g306
tp7942
a(g31
g306
tp7943
as(g565
S'pike'
p7944
tp7945
(lp7946
(g569
g7944
tp7947
as(g29
g2547
tp7948
(lp7949
(g25
g2547
tp7950
as(g59
S'arrow'
p7951
tp7952
(lp7953
(g63
g7951
tp7954
a(g65
g7951
tp7955
a(g67
g7951
tp7956
a(g69
g7951
tp7957
as(g5
g963
tp7958
(lp7959
(g1
g963
tp7960
as(g631
S'nightingale'
p7961
tp7962
(lp7963
(g103
g7961
tp7964
as(g1450
g3086
tp7965
(lp7966
(g1454
g3086
tp7967
as(g5460
S'trickle'
p7968
tp7969
(lp7970
(g5463
g7968
tp7971
a(g5465
g7968
tp7972
as(g147
g3215
tp7973
(lp7974
(g141
g3215
tp7975
a(g457
g3215
tp7976
a(g459
g3215
tp7977
a(g461
g3215
tp7978
a(g463
g3215
tp7979
as(g553
g636
tp7980
(lp7981
(g557
g636
tp7982
a(g559
g636
tp7983
as(g290
S'monkey'
p7984
tp7985
(lp7986
(g294
g7984
tp7987
a(g296
g7984
tp7988
a(g298
g7984
tp7989
a(g300
g7984
tp7990
a(g302
g7984
tp7991
a(g304
g7984
tp7992
as(g141
g1283
tp7993
(lp7994
(g145
g1283
tp7995
a(g147
g1283
tp7996
a(g149
g1283
tp7997
as(g1793
S'stampede'
p7998
tp7999
(lp8000
(g1797
g7998
tp8001
as(g723
g7597
tp8002
(lp8003
(g727
g7597
tp8004
as(g124
g8
tp8005
(lp8006
(g128
g8
tp8007
as(g25
S'daisy_cutter'
p8008
tp8009
(lp8010
(g29
g8008
tp8011
a(g31
g8008
tp8012
as(g1
S'worker_bee'
p8013
tp8014
(lp8015
(g5
g8013
tp8016
as(g25
g1054
tp8017
(lp8018
(g29
g1054
tp8019
a(g31
g1054
tp8020
as(g1332
g1446
tp8021
(lp8022
(g1335
g1446
tp8023
as(g107
S'toupee'
p8024
tp8025
(lp8026
(g655
g8024
tp8027
a(g657
g8024
tp8028
a(g659
g8024
tp8029
a(g105
g8024
tp8030
a(g99
g8024
tp8031
as(g215
g5090
tp8032
(lp8033
(g219
g5090
tp8034
as(g25
g811
tp8035
(lp8036
(g29
g811
tp8037
a(g31
g811
tp8038
as(g163
g1209
tp8039
(lp8040
(g159
g1209
tp8041
as(g2744
g3086
tp8042
(lp8043
(g2748
g3086
tp8044
as(g723
S'bra'
p8045
tp8046
(lp8047
(g727
g8045
tp8048
as(g141
g4801
tp8049
(lp8050
(g145
g4801
tp8051
a(g147
g4801
tp8052
a(g149
g4801
tp8053
as(g274
g2607
tp8054
(lp8055
(g278
g2607
tp8056
as(g41
g5214
tp8057
(lp8058
(g45
g5214
tp8059
a(g47
g5214
tp8060
as(g99
g403
tp8061
(lp8062
(g103
g403
tp8063
a(g105
g403
tp8064
a(g107
g403
tp8065
as(g82
g2410
tp8066
(lp8067
(g86
g2410
tp8068
a(g88
g2410
tp8069
as(g553
g2652
tp8070
(lp8071
(g557
g2652
tp8072
a(g559
g2652
tp8073
as(g215
g3255
tp8074
(lp8075
(g219
g3255
tp8076
as(g25
g909
tp8077
(lp8078
(g29
g909
tp8079
a(g31
g909
tp8080
as(g2634
g542
tp8081
(lp8082
(g2638
g542
tp8083
as(g353
g245
tp8084
(lp8085
(g357
g245
tp8086
a(g359
g245
tp8087
a(g361
g245
tp8088
as(g82
g397
tp8089
(lp8090
(g86
g397
tp8091
a(g88
g397
tp8092
as(g99
g6990
tp8093
(lp8094
(g103
g6990
tp8095
a(g105
g6990
tp8096
a(g107
g6990
tp8097
as(g13
S'puma'
p8098
tp8099
(lp8100
(g17
g8098
tp8101
as(g25
S'wild_boar'
p8102
tp8103
(lp8104
(g29
g8102
tp8105
a(g31
g8102
tp8106
as(g1425
g1600
tp8107
(lp8108
(g1428
g1600
tp8109
as(g526
g691
tp8110
(lp8111
(g530
g691
tp8112
a(g532
g691
tp8113
as(g233
S'sewer_rat'
p8114
tp8115
(lp8116
(g237
g8114
tp8117
as(g82
S'tennis_racquet'
p8118
tp8119
(lp8120
(g86
g8118
tp8121
a(g88
g8118
tp8122
as(g736
g3293
tp8123
(lp8124
(g740
g3293
tp8125
as(g215
S'neurosurgeon'
p8126
tp8127
(lp8128
(g219
g8126
tp8129
as(g478
g5049
tp8130
(lp8131
(g482
g5049
tp8132
as(g577
S'hardtop'
p8133
tp8134
(lp8135
(g31
g8133
tp8136
as(g478
g5615
tp8137
(lp8138
(g482
g5615
tp8139
as(g124
g281
tp8140
(lp8141
(g128
g281
tp8142
as(g2300
S'tightrope'
p8143
tp8144
(lp8145
(g2304
g8143
tp8146
a(g2306
g8143
tp8147
as(g13
g1015
tp8148
(lp8149
(g17
g1015
tp8150
as(g141
g3198
tp8151
(lp8152
(g145
g3198
tp8153
a(g147
g3198
tp8154
a(g149
g3198
tp8155
as(g215
g5519
tp8156
(lp8157
(g219
g5519
tp8158
as(g280
g1307
tp8159
(lp8160
(g284
g1307
tp8161
as(g378
g391
tp8162
(lp8163
(g374
g391
tp8164
as(g29
S'willow_tree'
p8165
tp8166
(lp8167
(g25
g8165
tp8168
as(g577
g604
tp8169
(lp8170
(g31
g604
tp8171
as(g6289
S'rumor'
p8172
tp8173
(lp8174
(g6292
g8172
tp8175
as(g6593
S'birth'
p8176
tp8177
(lp8178
(g6597
g8176
tp8179
as(g2634
S'sigh'
p8180
tp8181
(lp8182
(g2638
g8180
tp8183
as(g278
S'grasshopper'
p8184
tp8185
(lp8186
(g274
g8184
tp8187
a(g546
g8184
tp8188
as(g25
g4791
tp8189
(lp8190
(g29
g4791
tp8191
a(g31
g4791
tp8192
as(g5257
g5750
tp8193
(lp8194
(g5261
g5750
tp8195
as(g17
g3139
tp8196
(lp8197
(g13
g3139
tp8198
as(g71
g3664
tp8199
(lp8200
(g75
g3664
tp8201
as(g49
g1059
tp8202
(lp8203
(g53
g1059
tp8204
a(g55
g1059
tp8205
a(g57
g1059
tp8206
as(g1773
g2778
tp8207
(lp8208
(g1777
g2778
tp8209
as(g526
S'stomach_pump'
p8210
tp8211
(lp8212
(g530
g8210
tp8213
a(g532
g8210
tp8214
as(g374
g4604
tp8215
(lp8216
(g378
g4604
tp8217
as(g59
g437
tp8218
(lp8219
(g63
g437
tp8220
a(g65
g437
tp8221
a(g67
g437
tp8222
a(g69
g437
tp8223
as(g25
g1514
tp8224
(lp8225
(g29
g1514
tp8226
a(g31
g1514
tp8227
as(g1046
S'manicure'
p8228
tp8229
(lp8230
(g1050
g8228
tp8231
a(g1052
g8228
tp8232
as(g29
g364
tp8233
(lp8234
(g25
g364
tp8235
as(g353
g3595
tp8236
(lp8237
(g357
g3595
tp8238
a(g359
g3595
tp8239
a(g361
g3595
tp8240
as(g13
S'missile'
p8241
tp8242
(lp8243
(g17
g8241
tp8244
as(g274
S'artillery_shell'
p8245
tp8246
(lp8247
(g278
g8245
tp8248
as(g124
g844
tp8249
(lp8250
(g128
g844
tp8251
as(g1425
g2982
tp8252
(lp8253
(g1428
g2982
tp8254
as(g577
g2218
tp8255
(lp8256
(g31
g2218
tp8257
as(g478
S'root_canal'
p8258
tp8259
(lp8260
(g482
g8258
tp8261
as(g71
g234
tp8262
(lp8263
(g75
g234
tp8264
as(g37
g2555
tp8265
(lp8266
(g33
g2555
tp8267
a(g1063
g2555
tp8268
as(g526
S'hairball'
p8269
tp8270
(lp8271
(g530
g8269
tp8272
a(g532
g8269
tp8273
as(g193
g2370
tp8274
(lp8275
(g197
g2370
tp8276
a(g199
g2370
tp8277
as(g1793
S'lattice'
p8278
tp8279
(lp8280
(g1797
g8278
tp8281
as(g215
g2455
tp8282
(lp8283
(g219
g2455
tp8284
as(g163
g3701
tp8285
(lp8286
(g159
g3701
tp8287
as(g374
g1728
tp8288
(lp8289
(g378
g1728
tp8290
as(g565
S'pentagon'
p8291
tp8292
(lp8293
(g569
g8291
tp8294
as(g515
S'sport'
p8295
tp8296
(lp8297
(g518
g8295
tp8298
as(g141
S'tire_iron'
p8299
tp8300
(lp8301
(g145
g8299
tp8302
a(g147
g8299
tp8303
a(g149
g8299
tp8304
as(g7220
g4192
tp8305
(lp8306
(g7224
g4192
tp8307
as(g17
S'hearse'
p8308
tp8309
(lp8310
(g13
g8308
tp8311
as(g41
S'ballpoint_pen'
p8312
tp8313
(lp8314
(g45
g8312
tp8315
a(g47
g8312
tp8316
as(g124
g2991
tp8317
(lp8318
(g128
g2991
tp8319
as(g205
g4056
tp8320
(lp8321
(g201
g4056
tp8322
a(g181
g4056
tp8323
as(g1699
S'grapefruit'
p8324
tp8325
(lp8326
(g1703
g8324
tp8327
as(g29
S'pygmy'
p8328
tp8329
(lp8330
(g25
g8328
tp8331
as(g13
g3902
tp8332
(lp8333
(g17
g3902
tp8334
as(g565
g5781
tp8335
(lp8336
(g569
g5781
tp8337
as(g82
g1509
tp8338
(lp8339
(g86
g1509
tp8340
a(g88
g1509
tp8341
as(g25
S'striker'
p8342
tp8343
(lp8344
(g29
g8342
tp8345
a(g31
g8342
tp8346
as(g3688
S'tapeworm'
p8347
tp8348
(lp8349
(g3692
g8347
tp8350
as(g237
S'nun'
p8351
tp8352
(lp8353
(g233
g8351
tp8354
a(g243
g8351
tp8355
as(g124
g1481
tp8356
(lp8357
(g128
g1481
tp8358
as(g994
S'girdle'
p8359
tp8360
(lp8361
(g998
g8359
tp8362
as(g359
S'money_market'
p8363
tp8364
(lp8365
(g357
g8363
tp8366
a(g353
g8363
tp8367
a(g489
g8363
tp8368
as(g25
S'superman'
p8369
tp8370
(lp8371
(g29
g8369
tp8372
a(g31
g8369
tp8373
as(g124
g354
tp8374
(lp8375
(g128
g354
tp8376
as(g968
g3873
tp8377
(lp8378
(g972
g3873
tp8379
as(g5
g1181
tp8380
(lp8381
(g1
g1181
tp8382
as(g553
g1374
tp8383
(lp8384
(g557
g1374
tp8385
a(g559
g1374
tp8386
as(g59
S'rake'
p8387
tp8388
(lp8389
(g63
g8387
tp8390
a(g65
g8387
tp8391
a(g67
g8387
tp8392
a(g69
g8387
tp8393
as(g177
g737
tp8394
(lp8395
(g181
g737
tp8396
as(g17
S'granny'
p8397
tp8398
(lp8399
(g13
g8397
tp8400
as(g227
g8114
tp8401
(lp8402
(g231
g8114
tp8403
as(g33
g1303
tp8404
(lp8405
(g37
g1303
tp8406
a(g39
g1303
tp8407
as(g856
g3759
tp8408
(lp8409
(g860
g3759
tp8410
as(g71
S'tiger_shark'
p8411
tp8412
(lp8413
(g75
g8411
tp8414
as(g396
S'tick'
p8415
tp8416
(lp8417
(g400
g8415
tp8418
a(g45
g8415
tp8419
as(g124
g3954
tp8420
(lp8421
(g128
g3954
tp8422
as(g99
S'cudgel'
p8423
tp8424
(lp8425
(g103
g8423
tp8426
a(g105
g8423
tp8427
a(g107
g8423
tp8428
as(g99
g6545
tp8429
(lp8430
(g103
g6545
tp8431
a(g105
g6545
tp8432
a(g107
g6545
tp8433
as(g3663
g3491
tp8434
(lp8435
(g3667
g3491
tp8436
as(g124
S'matron'
p8437
tp8438
(lp8439
(g128
g8437
tp8440
as(g856
g281
tp8441
(lp8442
(g860
g281
tp8443
as(g201
S'yogi'
p8444
tp8445
(lp8446
(g205
g8444
tp8447
a(g207
g8444
tp8448
as(g278
g2761
tp8449
(lp8450
(g274
g2761
tp8451
a(g546
g2761
tp8452
as(g201
S'noodle'
p8453
tp8454
(lp8455
(g205
g8453
tp8456
a(g207
g8453
tp8457
as(g71
S'harp_seal'
p8458
tp8459
(lp8460
(g75
g8458
tp8461
as(g353
g1188
tp8462
(lp8463
(g357
g1188
tp8464
a(g359
g1188
tp8465
a(g361
g1188
tp8466
as(g82
g8359
tp8467
(lp8468
(g86
g8359
tp8469
a(g88
g8359
tp8470
as(g274
S'bus'
p8471
tp8472
(lp8473
(g278
g8471
tp8474
as(g41
g1863
tp8475
(lp8476
(g45
g1863
tp8477
a(g47
g1863
tp8478
as(g353
g2712
tp8479
(lp8480
(g357
g2712
tp8481
a(g359
g2712
tp8482
a(g361
g2712
tp8483
as(g577
g6409
tp8484
(lp8485
(g31
g6409
tp8486
as(g445
S'goldfish_bowl'
p8487
tp8488
(lp8489
(g449
g8487
tp8490
a(g451
g8487
tp8491
as(g151
g1996
tp8492
(lp8493
(g155
g1996
tp8494
a(g157
g1996
tp8495
as(g25
g844
tp8496
(lp8497
(g29
g844
tp8498
a(g31
g844
tp8499
as(g2446
g2635
tp8500
(lp8501
(g2450
g2635
tp8502
a(g2452
g2635
tp8503
a(g1537
g2635
tp8504
as(g478
g804
tp8505
(lp8506
(g482
g804
tp8507
as(g25
S'twister'
p8508
tp8509
(lp8510
(g29
g8508
tp8511
a(g31
g8508
tp8512
as(g7
g6152
tp8513
(lp8514
(g11
g6152
tp8515
as(g515
g1322
tp8516
(lp8517
(g518
g1322
tp8518
as(g390
g6447
tp8519
(lp8520
(g394
g6447
tp8521
as(g994
S'girl'
p8522
tp8523
(lp8524
(g998
g8522
tp8525
as(g163
g1149
tp8526
(lp8527
(g159
g1149
tp8528
as(g2142
S'jelly_bean'
p8529
tp8530
(lp8531
(g2146
g8529
tp8532
a(g2148
g8529
tp8533
as(g856
g2607
tp8534
(lp8535
(g860
g2607
tp8536
as(g3688
g3372
tp8537
(lp8538
(g3692
g3372
tp8539
as(g577
g8387
tp8540
(lp8541
(g31
g8387
tp8542
as(g59
g6172
tp8543
(lp8544
(g63
g6172
tp8545
a(g65
g6172
tp8546
a(g67
g6172
tp8547
a(g69
g6172
tp8548
as(g4003
S'richelieu'
p8549
tp8550
(lp8551
(g4007
g8549
tp8552
as(g374
g3220
tp8553
(lp8554
(g378
g3220
tp8555
as(g151
S'lady'
p8556
tp8557
(lp8558
(g155
g8556
tp8559
a(g157
g8556
tp8560
as(g59
g4664
tp8561
(lp8562
(g63
g4664
tp8563
a(g65
g4664
tp8564
a(g67
g4664
tp8565
a(g69
g4664
tp8566
as(g59
g2522
tp8567
(lp8568
(g63
g2522
tp8569
a(g65
g2522
tp8570
a(g67
g2522
tp8571
a(g69
g2522
tp8572
as(g1699
g7195
tp8573
(lp8574
(g1703
g7195
tp8575
as(g41
g34
tp8576
(lp8577
(g45
g34
tp8578
a(g47
g34
tp8579
as(g37
g8
tp8580
(lp8581
(g33
g8
tp8582
a(g1063
g8
tp8583
as(g577
S'crutch'
p8584
tp8585
(lp8586
(g31
g8584
tp8587
as(g107
S'bowel_movement'
p8588
tp8589
(lp8590
(g655
g8588
tp8591
a(g657
g8588
tp8592
a(g659
g8588
tp8593
a(g105
g8588
tp8594
a(g99
g8588
tp8595
as(g94
g2618
tp8596
(lp8597
(g97
g2618
tp8598
as(g2142
g3873
tp8599
(lp8600
(g2146
g3873
tp8601
a(g2148
g3873
tp8602
as(g478
S'supercomputer'
p8603
tp8604
(lp8605
(g482
g8603
tp8606
as(g659
S'grace'
p8607
tp8608
(lp8609
(g107
g8607
tp8610
as(g274
g6627
tp8611
(lp8612
(g278
g6627
tp8613
as(g374
S'antelope'
p8614
tp8615
(lp8616
(g378
g8614
tp8617
as(g290
g620
tp8618
(lp8619
(g294
g620
tp8620
a(g296
g620
tp8621
a(g298
g620
tp8622
a(g300
g620
tp8623
a(g302
g620
tp8624
a(g304
g620
tp8625
as(g374
g5214
tp8626
(lp8627
(g378
g5214
tp8628
as(g13
g5277
tp8629
(lp8630
(g17
g5277
tp8631
as(g2258
S'fishing_worm'
p8632
tp8633
(lp8634
(g2262
g8632
tp8635
a(g2264
g8632
tp8636
as(g215
S'blossom'
p8637
tp8638
(lp8639
(g219
g8637
tp8640
as(g237
S'truck_stop'
p8641
tp8642
(lp8643
(g233
g8641
tp8644
a(g243
g8641
tp8645
as(g478
S'fusion_reactor'
p8646
tp8647
(lp8648
(g482
g8646
tp8649
as(g147
g3746
tp8650
(lp8651
(g141
g3746
tp8652
a(g457
g3746
tp8653
a(g459
g3746
tp8654
a(g461
g3746
tp8655
a(g463
g3746
tp8656
as(g353
g3198
tp8657
(lp8658
(g357
g3198
tp8659
a(g359
g3198
tp8660
a(g361
g3198
tp8661
as(g124
S'cape_buffalo'
p8662
tp8663
(lp8664
(g128
g8662
tp8665
as(g659
S'miracle'
p8666
tp8667
(lp8668
(g107
g8666
tp8669
as(g2446
g2102
tp8670
(lp8671
(g2450
g2102
tp8672
a(g2452
g2102
tp8673
a(g1537
g2102
tp8674
as(g1046
g3603
tp8675
(lp8676
(g1050
g3603
tp8677
a(g1052
g3603
tp8678
as(g526
S'cruise_missile'
p8679
tp8680
(lp8681
(g530
g8679
tp8682
a(g532
g8679
tp8683
as(g695
S'broiler'
p8684
tp8685
(lp8686
(g699
g8684
tp8687
as(g33
g3139
tp8688
(lp8689
(g37
g3139
tp8690
a(g39
g3139
tp8691
as(g147
S'ear_lobe'
p8692
tp8693
(lp8694
(g141
g8692
tp8695
a(g457
g8692
tp8696
a(g459
g8692
tp8697
a(g461
g8692
tp8698
a(g463
g8692
tp8699
as(g290
S'squirrel'
p8700
tp8701
(lp8702
(g294
g8700
tp8703
a(g296
g8700
tp8704
a(g298
g8700
tp8705
a(g300
g8700
tp8706
a(g302
g8700
tp8707
a(g304
g8700
tp8708
as(g177
g3701
tp8709
(lp8710
(g181
g3701
tp8711
as(g3503
g1217
tp8712
(lp8713
(g3506
g1217
tp8714
as(g577
S'broomstick'
p8715
tp8716
(lp8717
(g31
g8715
tp8718
as(g219
g7441
tp8719
(lp8720
(g215
g7441
tp8721
a(g602
g7441
tp8722
as(g353
g3759
tp8723
(lp8724
(g357
g3759
tp8725
a(g359
g3759
tp8726
a(g361
g3759
tp8727
as(g59
S'chimney'
p8728
tp8729
(lp8730
(g63
g8728
tp8731
a(g65
g8728
tp8732
a(g67
g8728
tp8733
a(g69
g8728
tp8734
as(g29
g542
tp8735
(lp8736
(g25
g542
tp8737
as(g19
g425
tp8738
(lp8739
(g23
g425
tp8740
as(g13
S'bobsled'
p8741
tp8742
(lp8743
(g17
g8741
tp8744
as(g41
S'suckling_pig'
p8745
tp8746
(lp8747
(g45
g8745
tp8748
a(g47
g8745
tp8749
as(g59
g2583
tp8750
(lp8751
(g63
g2583
tp8752
a(g65
g2583
tp8753
a(g67
g2583
tp8754
a(g69
g2583
tp8755
as(g215
g5690
tp8756
(lp8757
(g219
g5690
tp8758
as(g99
g3215
tp8759
(lp8760
(g103
g3215
tp8761
a(g105
g3215
tp8762
a(g107
g3215
tp8763
as(g723
S'wife'
p8764
tp8765
(lp8766
(g727
g8764
tp8767
as(g99
S'awl'
p8768
tp8769
(lp8770
(g103
g8768
tp8771
a(g105
g8768
tp8772
a(g107
g8768
tp8773
as(g29
g4963
tp8774
(lp8775
(g25
g4963
tp8776
as(g526
S'chick'
p8777
tp8778
(lp8779
(g530
g8777
tp8780
a(g532
g8777
tp8781
as(g856
g4045
tp8782
(lp8783
(g860
g4045
tp8784
as(g233
S'ditch_digger'
p8785
tp8786
(lp8787
(g237
g8785
tp8788
as(g1533
S'entree'
p8789
tp8790
(lp8791
(g1537
g8789
tp8792
as(g374
S'ballet_dancer'
p8793
tp8794
(lp8795
(g378
g8793
tp8796
as(g99
g1149
tp8797
(lp8798
(g103
g1149
tp8799
a(g105
g1149
tp8800
a(g107
g1149
tp8801
as(g353
S'shield'
p8802
tp8803
(lp8804
(g357
g8802
tp8805
a(g359
g8802
tp8806
a(g361
g8802
tp8807
as(g49
S'rose'
p8808
tp8809
(lp8810
(g53
g8808
tp8811
a(g55
g8808
tp8812
a(g57
g8808
tp8813
as(g374
g3243
tp8814
(lp8815
(g378
g3243
tp8816
as(g723
g5438
tp8817
(lp8818
(g727
g5438
tp8819
as(g565
g6545
tp8820
(lp8821
(g569
g6545
tp8822
as(g99
g4260
tp8823
(lp8824
(g103
g4260
tp8825
a(g105
g4260
tp8826
a(g107
g4260
tp8827
as(g227
g7155
tp8828
(lp8829
(g231
g7155
tp8830
as(g141
g2345
tp8831
(lp8832
(g145
g2345
tp8833
a(g147
g2345
tp8834
a(g149
g2345
tp8835
as(g705
g891
tp8836
(lp8837
(g701
g891
tp8838
as(g695
S'pumpkin_seed'
p8839
tp8840
(lp8841
(g699
g8839
tp8842
as(g237
g2547
tp8843
(lp8844
(g233
g2547
tp8845
a(g243
g2547
tp8846
as(g374
S'swordsman'
p8847
tp8848
(lp8849
(g378
g8847
tp8850
as(g201
g2354
tp8851
(lp8852
(g205
g2354
tp8853
a(g207
g2354
tp8854
as(g163
g1104
tp8855
(lp8856
(g159
g1104
tp8857
as(g274
g5885
tp8858
(lp8859
(g278
g5885
tp8860
as(g577
g3954
tp8861
(lp8862
(g31
g3954
tp8863
as(g41
g746
tp8864
(lp8865
(g45
g746
tp8866
a(g47
g746
tp8867
as(g2744
g1627
tp8868
(lp8869
(g2748
g1627
tp8870
as(g59
g7890
tp8871
(lp8872
(g63
g7890
tp8873
a(g65
g7890
tp8874
a(g67
g7890
tp8875
a(g69
g7890
tp8876
as(g130
g8
tp8877
(lp8878
(g134
g8
tp8879
as(g577
g3139
tp8880
(lp8881
(g31
g3139
tp8882
as(g577
S'broom'
p8883
tp8884
(lp8885
(g31
g8883
tp8886
as(g17
g6046
tp8887
(lp8888
(g13
g6046
tp8889
as(g134
S'mountie'
p8890
tp8891
(lp8892
(g130
g8890
tp8893
as(g280
S'wheat_germ'
p8894
tp8895
(lp8896
(g284
g8894
tp8897
as(g2634
S'glider'
p8898
tp8899
(lp8900
(g2638
g8898
tp8901
as(g41
g5001
tp8902
(lp8903
(g45
g5001
tp8904
a(g47
g5001
tp8905
as(g163
g1131
tp8906
(lp8907
(g159
g1131
tp8908
as(g19
S'curse'
p8909
tp8910
(lp8911
(g23
g8909
tp8912
as(g353
g899
tp8913
(lp8914
(g357
g899
tp8915
a(g359
g899
tp8916
a(g361
g899
tp8917
as(g526
S'thong'
p8918
tp8919
(lp8920
(g530
g8918
tp8921
a(g532
g8918
tp8922
as(g7128
g2170
tp8923
(lp8924
(g7131
g2170
tp8925
as(g1773
S'chinese_puzzle'
p8926
tp8927
(lp8928
(g1777
g8926
tp8929
as(g2996
g6375
tp8930
(lp8931
(g3000
g6375
tp8932
a(g3002
g6375
tp8933
a(g94
g6375
tp8934
a(g3005
g6375
tp8935
as(g227
S'lake'
p8936
tp8937
(lp8938
(g231
g8936
tp8939
as(g657
g4977
tp8940
(lp8941
(g107
g4977
tp8942
as(g280
S'junk_food'
p8943
tp8944
(lp8945
(g284
g8943
tp8946
as(g7
g1414
tp8947
(lp8948
(g11
g1414
tp8949
as(g82
S'leotard'
p8950
tp8951
(lp8952
(g86
g8950
tp8953
a(g88
g8950
tp8954
as(g227
g275
tp8955
(lp8956
(g231
g275
tp8957
as(g6289
g267
tp8958
(lp8959
(g6292
g267
tp8960
as(g99
g6764
tp8961
(lp8962
(g103
g6764
tp8963
a(g105
g6764
tp8964
a(g107
g6764
tp8965
as(g19
g3869
tp8966
(lp8967
(g23
g3869
tp8968
as(g25
g2589
tp8969
(lp8970
(g29
g2589
tp8971
a(g31
g2589
tp8972
as(g361
S'cave'
p8973
tp8974
(lp8975
(g353
g8973
tp8976
as(g141
g6756
tp8977
(lp8978
(g145
g6756
tp8979
a(g147
g6756
tp8980
a(g149
g6756
tp8981
as(g219
g26
tp8982
(lp8983
(g215
g26
tp8984
a(g602
g26
tp8985
as(g17
g2332
tp8986
(lp8987
(g13
g2332
tp8988
as(g193
S'picture'
p8989
tp8990
(lp8991
(g197
g8989
tp8992
a(g199
g8989
tp8993
as(g13
g1307
tp8994
(lp8995
(g17
g1307
tp8996
as(g99
g1337
tp8997
(lp8998
(g103
g1337
tp8999
a(g105
g1337
tp9000
a(g107
g1337
tp9001
as(g124
g714
tp9002
(lp9003
(g128
g714
tp9004
as(g3868
g2522
tp9005
(lp9006
(g141
g2522
tp9007
as(g353
g8
tp9008
(lp9009
(g357
g8
tp9010
a(g359
g8
tp9011
a(g361
g8
tp9012
as(g1196
g742
tp9013
(lp9014
(g1200
g742
tp9015
as(g49
S'maggot'
p9016
tp9017
(lp9018
(g53
g9016
tp9019
a(g55
g9016
tp9020
a(g57
g9016
tp9021
as(g2996
S'schoolboy'
p9022
tp9023
(lp9024
(g3000
g9022
tp9025
a(g3002
g9022
tp9026
a(g94
g9022
tp9027
a(g3005
g9022
tp9028
as(g177
g714
tp9029
(lp9030
(g181
g714
tp9031
as(g1802
S'meteor_shower'
p9032
tp9033
(lp9034
(g1806
g9032
tp9035
as(g374
g2455
tp9036
(lp9037
(g378
g2455
tp9038
as(g968
g862
tp9039
(lp9040
(g972
g862
tp9041
as(g577
g2872
tp9042
(lp9043
(g31
g2872
tp9044
as(g124
S'pirate'
p9045
tp9046
(lp9047
(g128
g9045
tp9048
as(g3242
g5514
tp9049
(lp9050
(g3246
g5514
tp9051
as(g29
g1755
tp9052
(lp9053
(g25
g1755
tp9054
as(g1610
S'judge'
p9055
tp9056
(lp9057
(g1614
g9055
tp9058
as(g209
g160
tp9059
(lp9060
(g213
g160
tp9061
as(g856
g571
tp9062
(lp9063
(g860
g571
tp9064
as(g25
g453
tp9065
(lp9066
(g29
g453
tp9067
a(g31
g453
tp9068
as(g7
S'fatwah'
p9069
tp9070
(lp9071
(g11
g9069
tp9072
as(g71
g3338
tp9073
(lp9074
(g75
g3338
tp9075
as(g41
g2178
tp9076
(lp9077
(g45
g2178
tp9078
a(g47
g2178
tp9079
as(g695
S'sirloin'
p9080
tp9081
(lp9082
(g699
g9080
tp9083
as(g41
g1509
tp9084
(lp9085
(g45
g1509
tp9086
a(g47
g1509
tp9087
as(g361
S'drain'
p9088
tp9089
(lp9090
(g353
g9088
tp9091
as(g3663
S'cliche'
p9092
tp9093
(lp9094
(g3667
g9092
tp9095
as(g1793
g3588
tp9096
(lp9097
(g1797
g3588
tp9098
as(g13
S'blink'
p9099
tp9100
(lp9101
(g17
g9099
tp9102
as(g237
S'palace'
p9103
tp9104
(lp9105
(g233
g9103
tp9106
a(g243
g9103
tp9107
as(g759
g8
tp9108
(lp9109
(g762
g8
tp9110
as(g141
S'mike_tyson'
p9111
tp9112
(lp9113
(g145
g9111
tp9114
a(g147
g9111
tp9115
a(g149
g9111
tp9116
as(g63
g6884
tp9117
(lp9118
(g59
g6884
tp9119
as(g1430
S'field_mouse'
p9120
tp9121
(lp9122
(g1433
g9120
tp9123
as(g353
g5825
tp9124
(lp9125
(g357
g5825
tp9126
a(g359
g5825
tp9127
a(g361
g5825
tp9128
as(g1773
g8269
tp9129
(lp9130
(g1777
g8269
tp9131
as(g13
g714
tp9132
(lp9133
(g17
g714
tp9134
as(g63
S'water_moccasin'
p9135
tp9136
(lp9137
(g59
g9135
tp9138
as(g25
g702
tp9139
(lp9140
(g29
g702
tp9141
a(g31
g702
tp9142
as(g59
g3342
tp9143
(lp9144
(g63
g3342
tp9145
a(g65
g3342
tp9146
a(g67
g3342
tp9147
a(g69
g3342
tp9148
as(g59
g1181
tp9149
(lp9150
(g63
g1181
tp9151
a(g65
g1181
tp9152
a(g67
g1181
tp9153
a(g69
g1181
tp9154
as(g41
S'finger'
p9155
tp9156
(lp9157
(g45
g9155
tp9158
a(g47
g9155
tp9159
as(g82
S'vise'
p9160
tp9161
(lp9162
(g86
g9160
tp9163
a(g88
g9160
tp9164
as(g25
S'chipmunk'
p9165
tp9166
(lp9167
(g29
g9165
tp9168
a(g31
g9165
tp9169
as(g71
S'fart'
p9170
tp9171
(lp9172
(g75
g9170
tp9173
as(g374
g7093
tp9174
(lp9175
(g378
g7093
tp9176
as(g278
g1644
tp9177
(lp9178
(g274
g1644
tp9179
a(g546
g1644
tp9180
as(g7
g5045
tp9181
(lp9182
(g11
g5045
tp9183
as(g151
S'grater'
p9184
tp9185
(lp9186
(g155
g9184
tp9187
a(g157
g9184
tp9188
as(g7
S'telegraph_post'
p9189
tp9190
(lp9191
(g11
g9189
tp9192
as(g147
S'roadside'
p9193
tp9194
(lp9195
(g141
g9193
tp9196
a(g457
g9193
tp9197
a(g459
g9193
tp9198
a(g461
g9193
tp9199
a(g463
g9193
tp9200
as(g400
g8973
tp9201
(lp9202
(g396
g8973
tp9203
as(g141
S'flint'
p9204
tp9205
(lp9206
(g145
g9204
tp9207
a(g147
g9204
tp9208
a(g149
g9204
tp9209
as(g2446
g8
tp9210
(lp9211
(g2450
g8
tp9212
a(g2452
g8
tp9213
a(g1537
g8
tp9214
as(g983
S'fate'
p9215
tp9216
(lp9217
(g987
g9215
tp9218
as(g1793
g3307
tp9219
(lp9220
(g1797
g3307
tp9221
as(g25
g554
tp9222
(lp9223
(g29
g554
tp9224
a(g31
g554
tp9225
as(g13
g6325
tp9226
(lp9227
(g17
g6325
tp9228
as(g278
g3022
tp9229
(lp9230
(g274
g3022
tp9231
a(g546
g3022
tp9232
as(g274
S'neutron_star'
p9233
tp9234
(lp9235
(g278
g9233
tp9236
as(g478
S'aircraft_engine'
p9237
tp9238
(lp9239
(g482
g9237
tp9240
as(g124
g2868
tp9241
(lp9242
(g128
g2868
tp9243
as(g968
g1233
tp9244
(lp9245
(g972
g1233
tp9246
as(g209
g7644
tp9247
(lp9248
(g213
g7644
tp9249
as(g266
S'concept'
p9250
tp9251
(lp9252
(g270
g9250
tp9253
a(g272
g9250
tp9254
as(g1425
S'swimmer'
p9255
tp9256
(lp9257
(g1428
g9255
tp9258
as(g1699
g2898
tp9259
(lp9260
(g1703
g2898
tp9261
as(g278
g291
tp9262
(lp9263
(g274
g291
tp9264
a(g546
g291
tp9265
as(g99
S'machete'
p9266
tp9267
(lp9268
(g103
g9266
tp9269
a(g105
g9266
tp9270
a(g107
g9266
tp9271
as(g396
g286
tp9272
(lp9273
(g400
g286
tp9274
a(g45
g286
tp9275
as(g99
S'vixen'
p9276
tp9277
(lp9278
(g103
g9276
tp9279
a(g105
g9276
tp9280
a(g107
g9276
tp9281
as(g657
S'fairy_tale'
p9282
tp9283
(lp9284
(g107
g9282
tp9285
as(g141
S'sock'
p9286
tp9287
(lp9288
(g145
g9286
tp9289
a(g147
g9286
tp9290
a(g149
g9286
tp9291
as(g219
S'lumberjack'
p9292
tp9293
(lp9294
(g215
g9292
tp9295
a(g602
g9292
tp9296
as(g99
g2135
tp9297
(lp9298
(g103
g2135
tp9299
a(g105
g2135
tp9300
a(g107
g2135
tp9301
as(g3503
g245
tp9302
(lp9303
(g3506
g245
tp9304
as(g233
S'stable'
p9305
tp9306
(lp9307
(g237
g9305
tp9308
as(g274
g746
tp9309
(lp9310
(g278
g746
tp9311
as(g17
g3783
tp9312
(lp9313
(g13
g3783
tp9314
as(g1793
S'golf_course'
p9315
tp9316
(lp9317
(g1797
g9315
tp9318
as(g124
g6655
tp9319
(lp9320
(g128
g6655
tp9321
as(g13
S'supernova'
p9322
tp9323
(lp9324
(g17
g9322
tp9325
as(g114
S'treatise'
p9326
tp9327
(lp9328
(g118
g9326
tp9329
as(g147
S'chamois_cloth'
p9330
tp9331
(lp9332
(g141
g9330
tp9333
a(g457
g9330
tp9334
a(g459
g9330
tp9335
a(g461
g9330
tp9336
a(g463
g9330
tp9337
as(g548
g3902
tp9338
(lp9339
(g31
g3902
tp9340
as(g1196
g1118
tp9341
(lp9342
(g1200
g1118
tp9343
as(g227
S'river'
p9344
tp9345
(lp9346
(g231
g9344
tp9347
as(g147
g1600
tp9348
(lp9349
(g141
g1600
tp9350
a(g457
g1600
tp9351
a(g459
g1600
tp9352
a(g461
g1600
tp9353
a(g463
g1600
tp9354
as(g99
S'armpit'
p9355
tp9356
(lp9357
(g103
g9355
tp9358
a(g105
g9355
tp9359
a(g107
g9355
tp9360
as(g13
g3139
tp9361
(lp9362
(g17
g3139
tp9363
as(g526
S'file_cabinet'
p9364
tp9365
(lp9366
(g530
g9364
tp9367
a(g532
g9364
tp9368
as(g201
g4424
tp9369
(lp9370
(g205
g4424
tp9371
a(g207
g4424
tp9372
as(g1430
g2514
tp9373
(lp9374
(g1433
g2514
tp9375
as(g7220
g453
tp9376
(lp9377
(g7224
g453
tp9378
as(g478
S'mainframe_computer'
p9379
tp9380
(lp9381
(g482
g9379
tp9382
as(g151
S'squall'
p9383
tp9384
(lp9385
(g155
g9383
tp9386
a(g157
g9383
tp9387
as(g163
S'beggar'
p9388
tp9389
(lp9390
(g159
g9388
tp9391
as(g177
g542
tp9392
(lp9393
(g181
g542
tp9394
as(g151
S'file'
p9395
tp9396
(lp9397
(g155
g9395
tp9398
a(g157
g9395
tp9399
as(g1196
g403
tp9400
(lp9401
(g1200
g403
tp9402
as(g107
S'plant'
p9403
tp9404
(lp9405
(g655
g9403
tp9406
a(g657
g9403
tp9407
a(g659
g9403
tp9408
a(g105
g9403
tp9409
a(g99
g9403
tp9410
as(g400
S'wasteland'
p9411
tp9412
(lp9413
(g396
g9411
tp9414
as(g201
S'spaghetti'
p9415
tp9416
(lp9417
(g205
g9415
tp9418
a(g207
g9415
tp9419
as(g7
g3139
tp9420
(lp9421
(g11
g3139
tp9422
as(g41
g194
tp9423
(lp9424
(g45
g194
tp9425
a(g47
g194
tp9426
as(g151
g2982
tp9427
(lp9428
(g155
g2982
tp9429
a(g157
g2982
tp9430
as(g353
S'tin_can'
p9431
tp9432
(lp9433
(g357
g9431
tp9434
a(g359
g9431
tp9435
a(g361
g9431
tp9436
as(g983
g844
tp9437
(lp9438
(g987
g844
tp9439
as(g59
S'sidewinder'
p9440
tp9441
(lp9442
(g63
g9440
tp9443
a(g65
g9440
tp9444
a(g67
g9440
tp9445
a(g69
g9440
tp9446
as(g278
g216
tp9447
(lp9448
(g274
g216
tp9449
a(g546
g216
tp9450
as(g159
g1314
tp9451
(lp9452
(g163
g1314
tp9453
as(g2744
S'wizard'
p9454
tp9455
(lp9456
(g2748
g9454
tp9457
as(g71
S'blister'
p9458
tp9459
(lp9460
(g75
g9458
tp9461
as(g278
S'membrane'
p9462
tp9463
(lp9464
(g274
g9462
tp9465
a(g546
g9462
tp9466
as(g177
S'plow_horse'
p9467
tp9468
(lp9469
(g181
g9467
tp9470
as(g361
S'clay_pipe'
p9471
tp9472
(lp9473
(g353
g9471
tp9474
as(g2000
g2493
tp9475
(lp9476
(g2004
g2493
tp9477
as(g278
g7093
tp9478
(lp9479
(g274
g7093
tp9480
a(g546
g7093
tp9481
as(g1616
S'parrot'
p9482
tp9483
(lp9484
(g1619
g9482
tp9485
as(g13
S'meteor'
p9486
tp9487
(lp9488
(g17
g9486
tp9489
as(g363
S'skull'
p9490
tp9491
(lp9492
(g367
g9490
tp9493
as(g29
S'fruit_fly'
p9494
tp9495
(lp9496
(g25
g9494
tp9497
as(g723
g1900
tp9498
(lp9499
(g727
g1900
tp9500
as(g99
S'serpent'
p9501
tp9502
(lp9503
(g103
g9501
tp9504
a(g105
g9501
tp9505
a(g107
g9501
tp9506
as(g77
g1670
tp9507
(lp9508
(g31
g1670
tp9509
as(g49
g8936
tp9510
(lp9511
(g53
g8936
tp9512
a(g55
g8936
tp9513
a(g57
g8936
tp9514
as(g13
S'microwave'
p9515
tp9516
(lp9517
(g17
g9515
tp9518
as(g29
g6375
tp9519
(lp9520
(g25
g6375
tp9521
as(g219
S'cabin'
p9522
tp9523
(lp9524
(g215
g9522
tp9525
a(g602
g9522
tp9526
as(g353
g1606
tp9527
(lp9528
(g357
g1606
tp9529
a(g359
g1606
tp9530
a(g361
g1606
tp9531
as(g1425
g5001
tp9532
(lp9533
(g1428
g5001
tp9534
as(g13
g4157
tp9535
(lp9536
(g17
g4157
tp9537
as(g1425
g5270
tp9538
(lp9539
(g1428
g5270
tp9540
as(g4178
S'marathon'
p9541
tp9542
(lp9543
(g4181
g9541
tp9544
as(g82
S'suture'
p9545
tp9546
(lp9547
(g86
g9545
tp9548
a(g88
g9545
tp9549
as(g478
S'zoo'
p9550
tp9551
(lp9552
(g482
g9550
tp9553
as(g1980
S'shrug'
p9554
tp9555
(lp9556
(g1984
g9554
tp9557
as(g124
g6627
tp9558
(lp9559
(g128
g6627
tp9560
as(g374
S'bride'
p9561
tp9562
(lp9563
(g378
g9561
tp9564
as(g577
S'superstructure'
p9565
tp9566
(lp9567
(g31
g9565
tp9568
as(g177
S'bridge'
p9569
tp9570
(lp9571
(g181
g9569
tp9572
as(g17
S'oil_tanker'
p9573
tp9574
(lp9575
(g13
g9573
tp9576
as(g994
g2973
tp9577
(lp9578
(g998
g2973
tp9579
as(S'wrinkly'
p9580
g4967
tp9581
(lp9582
(g2146
g4967
tp9583
as(g577
g1553
tp9584
(lp9585
(g31
g1553
tp9586
as(g1533
S'sitcom'
p9587
tp9588
(lp9589
(g1537
g9587
tp9590
as(g205
g8
tp9591
(lp9592
(g201
g8
tp9593
a(g181
g8
tp9594
as(g565
g2135
tp9595
(lp9596
(g569
g2135
tp9597
as(g41
S'ham'
p9598
tp9599
(lp9600
(g45
g9598
tp9601
a(g47
g9598
tp9602
as(g1430
S'wimp'
p9603
tp9604
(lp9605
(g1433
g9603
tp9606
as(g209
S'password'
p9607
tp9608
(lp9609
(g213
g9607
tp9610
as(g99
g2118
tp9611
(lp9612
(g103
g2118
tp9613
a(g105
g2118
tp9614
a(g107
g2118
tp9615
as(g141
g3215
tp9616
(lp9617
(g145
g3215
tp9618
a(g147
g3215
tp9619
a(g149
g3215
tp9620
as(g124
S'navy_seal'
p9621
tp9622
(lp9623
(g128
g9621
tp9624
as(g99
S'rapier'
p9625
tp9626
(lp9627
(g103
g9625
tp9628
a(g105
g9625
tp9629
a(g107
g9625
tp9630
as(g553
S'paperclip'
p9631
tp9632
(lp9633
(g557
g9631
tp9634
a(g559
g9631
tp9635
as(g215
g5757
tp9636
(lp9637
(g219
g5757
tp9638
as(g177
g3759
tp9639
(lp9640
(g181
g3759
tp9641
as(S'filled'
p9642
g4364
tp9643
(lp9644
(S'unfilled'
p9645
g4364
tp9646
as(g5257
g8883
tp9647
(lp9648
(g5261
g8883
tp9649
as(g9642
g1509
tp9650
(lp9651
(g9645
g1509
tp9652
as(g13
S'roadrunner'
p9653
tp9654
(lp9655
(g17
g9653
tp9656
as(g374
g257
tp9657
(lp9658
(g378
g257
tp9659
as(g445
g1188
tp9660
(lp9661
(g449
g1188
tp9662
a(g451
g1188
tp9663
as(g736
g4301
tp9664
(lp9665
(g740
g4301
tp9666
as(g378
g3491
tp9667
(lp9668
(g374
g3491
tp9669
as(g124
g3359
tp9670
(lp9671
(g128
g3359
tp9672
as(g353
g2319
tp9673
(lp9674
(g357
g2319
tp9675
a(g359
g2319
tp9676
a(g361
g2319
tp9677
as(g25
g1188
tp9678
(lp9679
(g29
g1188
tp9680
a(g31
g1188
tp9681
as(g124
S'sofa_bed'
p9682
tp9683
(lp9684
(g128
g9682
tp9685
as(g526
S'engine_block'
p9686
tp9687
(lp9688
(g530
g9686
tp9689
a(g532
g9686
tp9690
as(g151
g4088
tp9691
(lp9692
(g155
g4088
tp9693
a(g157
g4088
tp9694
as(g59
g2946
tp9695
(lp9696
(g63
g2946
tp9697
a(g65
g2946
tp9698
a(g67
g2946
tp9699
a(g69
g2946
tp9700
as(g526
g3783
tp9701
(lp9702
(g530
g3783
tp9703
a(g532
g3783
tp9704
as(g59
S'ruler'
p9705
tp9706
(lp9707
(g63
g9705
tp9708
a(g65
g9705
tp9709
a(g67
g9705
tp9710
a(g69
g9705
tp9711
as(g5257
S'housefly'
p9712
tp9713
(lp9714
(g5261
g9712
tp9715
as(g17
S'turtle'
p9716
tp9717
(lp9718
(g13
g9716
tp9719
as(g1793
S'polka_dot'
p9720
tp9721
(lp9722
(g1797
g9720
tp9723
as(g177
S'axe_handle'
p9724
tp9725
(lp9726
(g181
g9724
tp9727
as(g1196
g6357
tp9728
(lp9729
(g1200
g6357
tp9730
as(g526
S'tease'
p9731
tp9732
(lp9733
(g530
g9731
tp9734
a(g532
g9731
tp9735
as(g577
g2564
tp9736
(lp9737
(g31
g2564
tp9738
as(g94
g7002
tp9739
(lp9740
(g97
g7002
tp9741
as(g1802
g9322
tp9742
(lp9743
(g1806
g9322
tp9744
as(g37
S'possum'
p9745
tp9746
(lp9747
(g33
g9745
tp9748
a(g1063
g9745
tp9749
as(g856
S'forklift'
p9750
tp9751
(lp9752
(g860
g9750
tp9753
as(g124
g6077
tp9754
(lp9755
(g128
g6077
tp9756
as(g2634
g852
tp9757
(lp9758
(g2638
g852
tp9759
as(g278
g2547
tp9760
(lp9761
(g274
g2547
tp9762
a(g546
g2547
tp9763
as(g526
S'peacock'
p9764
tp9765
(lp9766
(g530
g9764
tp9767
a(g532
g9764
tp9768
as(g99
g3408
tp9769
(lp9770
(g103
g3408
tp9771
a(g105
g3408
tp9772
a(g107
g3408
tp9773
as(g655
S'steroid'
p9774
tp9775
(lp9776
(g107
g9774
tp9777
a(g1167
g9774
tp9778
a(g1169
g9774
tp9779
as(g565
S'ice_pick'
p9780
tp9781
(lp9782
(g569
g9780
tp9783
as(g736
S'doorpost'
p9784
tp9785
(lp9786
(g740
g9784
tp9787
as(g82
g954
tp9788
(lp9789
(g86
g954
tp9790
a(g88
g954
tp9791
as(g378
g7537
tp9792
(lp9793
(g374
g7537
tp9794
as(g82
S'locker'
p9795
tp9796
(lp9797
(g86
g9795
tp9798
a(g88
g9795
tp9799
as(g99
g78
tp9800
(lp9801
(g103
g78
tp9802
a(g105
g78
tp9803
a(g107
g78
tp9804
as(g29
g5320
tp9805
(lp9806
(g25
g5320
tp9807
as(g353
g339
tp9808
(lp9809
(g357
g339
tp9810
a(g359
g339
tp9811
a(g361
g339
tp9812
as(g274
g3198
tp9813
(lp9814
(g278
g3198
tp9815
as(g631
g3220
tp9816
(lp9817
(g103
g3220
tp9818
as(g25
g5885
tp9819
(lp9820
(g29
g5885
tp9821
a(g31
g5885
tp9822
as(g1699
g42
tp9823
(lp9824
(g1703
g42
tp9825
as.