(dp0
(S'robust'
p1
S'trooper'
p2
tp3
(lp4
(S'frail'
p5
g2
tp6
as(S'rigid'
p7
S'rock'
p8
tp9
(lp10
(S'nonrigid'
p11
g8
tp12
as(S'intangible'
p13
S'idea'
p14
tp15
(lp16
(S'tangible'
p17
g14
tp18
as(S'strong'
p19
S'hurricane'
p20
tp21
(lp22
(S'weak'
p23
g20
tp24
a(S'impotent'
p25
g20
tp26
as(S'alive'
p27
S'oak_tree'
p28
tp29
(lp30
(S'dead'
p31
g28
tp32
a(S'unanimated'
p33
g28
tp34
as(S'fat'
p35
S'watermelon'
p36
tp37
(lp38
(S'thin'
p39
g36
tp40
a(S'nonfat'
p41
g36
tp42
as(S'unbreakable'
p43
S'hammer'
p44
tp45
(lp46
(S'breakable'
p47
g44
tp48
as(S'straight'
p49
S'rail_fence'
p50
tp51
(lp52
(S'crooked'
p53
g50
tp54
a(S'curly'
p55
g50
tp56
a(S'coiled'
p57
g50
tp58
a(S'curved'
p59
g50
tp60
as(S'ugly'
p61
S'scarecrow'
p62
tp63
(lp64
(S'beautiful'
p65
g62
tp66
as(S'potent'
p67
S'bee_sting'
p68
tp69
(lp70
(g25
g68
tp71
as(S'tight'
p72
S'tourniquet'
p73
tp74
(lp75
(S'loose'
p76
g73
tp77
a(S'leaky'
p78
g73
tp79
as(g61
S'hippopotamus'
p80
tp81
(lp82
(g65
g80
tp83
as(S'ripe'
p84
g36
tp85
(lp86
(S'green'
p87
g36
tp88
as(S'inactive'
p89
S'stone'
p90
tp91
(lp92
(S'active'
p93
g90
tp94
a(S'operational'
p95
g90
tp96
as(g19
S'mosquito_bite'
p97
tp98
(lp99
(g23
g97
tp100
a(g25
g97
tp101
as(S'complete'
p102
S'blueprint'
p103
tp104
(lp105
(S'incomplete'
p106
g103
tp107
as(S'fast'
p108
S'donkey_cart'
p109
tp110
(lp111
(S'slow'
p112
g109
tp113
as(S'tough'
p114
S'cirrus_cloud'
p115
tp116
(lp117
(S'tender'
p118
g115
tp119
as(S'immobile'
p120
S'house'
p121
tp122
(lp123
(S'mobile'
p124
g121
tp125
as(g72
S'life_preserver'
p126
tp127
(lp128
(g76
g126
tp129
a(g78
g126
tp130
as(S'hard'
p131
S'milk_tooth'
p132
tp133
(lp134
(S'easy'
p135
g132
tp136
a(S'soft'
p137
g132
tp138
a(S'voiced'
p139
g132
tp140
as(S'rough'
p141
S'rasp'
p142
tp143
(lp144
(S'smooth'
p145
g142
tp146
a(S'cut'
p147
g142
tp148
as(S'stiff'
p149
S'broom_handle'
p150
tp151
(lp152
(g25
g150
tp153
as(g49
S'lamppost'
p154
tp155
(lp156
(g53
g154
tp157
a(g55
g154
tp158
a(g57
g154
tp159
a(g59
g154
tp160
as(g35
S'dumpling'
p161
tp162
(lp163
(g39
g161
tp164
a(g41
g161
tp165
as(S'sturdy'
p166
S'trunk'
p167
tp168
(lp169
(S'compromising'
p170
g167
tp171
as(g23
S'mosquito'
p172
tp173
(lp174
(g19
g172
tp175
as(S'sharp'
p176
S'blade'
p177
tp178
(lp179
(S'dull'
p180
g177
tp181
a(S'flat'
p182
g177
tp183
a(S'natural'
p184
g177
tp185
as(S'still'
p186
S'tree_trunk'
p187
tp188
(lp189
(S'moving'
p190
g187
tp191
a(S'sparkling'
p192
g187
tp193
as(S'flexible'
p194
S'pretzel'
p195
tp196
(lp197
(S'inflexible'
p198
g195
tp199
a(S'uncompromising'
p200
g195
tp201
as(S'secure'
p202
S'prison'
p203
tp204
(lp205
(S'insecure'
p206
g203
tp207
as(S'delicate'
p208
S'soap_bubble'
p209
tp210
(lp211
(S'rugged'
p212
g209
tp213
as(S'toxic'
p214
S'jellyfish'
p215
tp216
(lp217
(S'nontoxic'
p218
g215
tp219
as(S'wet'
p220
S'pool'
p221
tp222
(lp223
(S'dry'
p224
g221
tp225
as(S'dirty'
p226
S'warthog'
p227
tp228
(lp229
(S'clean'
p230
g227
tp231
as(g230
S'snowball'
p232
tp233
(lp234
(g226
g232
tp235
a(S'unclean'
p236
g232
tp237
as(S'unsexy'
p238
S'wicker'
p239
tp240
(lp241
(S'sexy'
p242
g239
tp243
as(S'perfect'
p244
S'metronome'
p245
tp246
(lp247
(S'imperfect'
p248
g245
tp249
as(g244
S'ballerina'
p250
tp251
(lp252
(g248
g250
tp253
as(g35
S'walrus'
p254
tp255
(lp256
(g39
g254
tp257
a(g41
g254
tp258
as(g112
S'wombat'
p259
tp260
(lp261
(g108
g259
tp262
as(S'immaterial'
p263
S'ghost'
p264
tp265
(lp266
(S'material'
p267
g264
tp268
a(S'corporeal'
p269
g264
tp270
as(S'heavy'
p271
S'whale'
p272
tp273
(lp274
(S'light'
p275
g272
tp276
as(S'healthy'
p277
S'bull'
p278
tp279
(lp280
(S'unhealthy'
p281
g278
tp282
as(g208
S'egg'
p283
tp284
(lp285
(g212
g283
tp286
as(g93
S'bee'
p287
tp288
(lp289
(g89
g287
tp290
a(S'passive'
p291
g287
tp292
a(S'quiet'
p293
g287
tp294
a(S'stative'
p295
g287
tp296
a(S'extinct'
p297
g287
tp298
a(S'dormant'
p299
g287
tp300
as(g166
S'tank'
p301
tp302
(lp303
(g170
g301
tp304
as(g176
S'automaton'
p305
tp306
(lp307
(g180
g305
tp308
a(g182
g305
tp309
a(g184
g305
tp310
as(g271
S'lineman'
p311
tp312
(lp313
(g275
g311
tp314
as(S'impervious'
p315
S'chocolate_bar'
p316
tp317
(lp318
(S'pervious'
p319
g316
tp320
as(g141
S'rattlesnake'
p321
tp322
(lp323
(g145
g321
tp324
a(g147
g321
tp325
as(S'substantial'
p326
S'rainbow'
p327
tp328
(lp329
(S'insubstantial'
p330
g327
tp331
as(g208
S'john_deere'
p332
tp333
(lp334
(g212
g332
tp335
as(g271
S'mountain'
p336
tp337
(lp338
(g275
g336
tp339
as(g242
S'hairball'
p340
tp341
(lp342
(g238
g340
tp343
a(S'anaphrodisiac'
p344
g340
tp345
as(g271
S'hammock'
p346
tp347
(lp348
(g275
g346
tp349
as(g275
S'bird'
p350
tp351
(lp352
(g271
g350
tp353
a(S'dark'
p354
g350
tp355
as(S'hairless'
p356
S'baby'
p357
tp358
(lp359
(S'hairy'
p360
g357
tp361
as(g19
S'searchlight'
p362
tp363
(lp364
(g23
g362
tp365
a(g25
g362
tp366
as(S'graceful'
p367
S'cat'
p368
tp369
(lp370
(S'awkward'
p371
g368
tp372
as(g230
S'choirboy'
p373
tp374
(lp375
(g226
g373
tp376
a(g236
g373
tp377
as(g19
S'paper_bag'
p378
tp379
(lp380
(g23
g378
tp381
a(g25
g378
tp382
as(S'pregnant'
p383
S'cow'
p384
tp385
(lp386
(S'nonpregnant'
p387
g384
tp388
as(S'full'
p389
S'leech'
p390
tp391
(lp392
(S'empty'
p393
g390
tp394
a(g39
g390
tp395
as(g131
S'brick'
p396
tp397
(lp398
(g135
g396
tp399
a(g137
g396
tp400
a(g139
g396
tp401
as(g7
S'headstone'
p402
tp403
(lp404
(g11
g402
tp405
as(S'solid'
p406
S'fighter'
p407
tp408
(lp409
(S'gaseous'
p410
g407
tp411
a(S'liquid'
p412
g407
tp413
a(S'hollow'
p414
g407
tp415
as(g230
g177
tp416
(lp417
(g226
g177
tp418
a(g236
g177
tp419
as(g263
S'shadow'
p420
tp421
(lp422
(g267
g420
tp423
a(g269
g420
tp424
as(g208
g250
tp425
(lp426
(g212
g250
tp427
as(g124
S'laptop'
p428
tp429
(lp430
(g120
g428
tp431
as(g166
S'paper_clip'
p432
tp433
(lp434
(g170
g432
tp435
as(g208
S'wisp'
p436
tp437
(lp438
(g212
g436
tp439
as(S'safe'
p440
S'hand_grenade'
p441
tp442
(lp443
(S'dangerous'
p444
g441
tp445
a(S'out'
p446
g441
tp447
as(g137
S'marshmallow'
p448
tp449
(lp450
(g131
g448
tp451
a(S'loud'
p452
g448
tp453
a(S'unvoiced'
p454
g448
tp455
a(S'hardened'
p456
g448
tp457
a(S'forte'
p458
g448
tp459
as(g1
g428
tp460
(lp461
(g5
g428
tp462
as(g166
S'workhorse'
p463
tp464
(lp465
(g170
g463
tp466
as(S'talentless'
p467
S'potato'
p468
tp469
(lp470
(S'talented'
p471
g468
tp472
as(S'complex'
p473
S'spaceship'
p474
tp475
(lp476
(S'simple'
p477
g474
tp478
as(g412
S'government_bond'
p479
tp480
(lp481
(g410
g479
tp482
a(g406
g479
tp483
a(S'unmelted'
p484
g479
tp485
as(g108
S'cheetah'
p486
tp487
(lp488
(g112
g486
tp489
as(g176
S'cutlass'
p490
tp491
(lp492
(g180
g490
tp493
a(g182
g490
tp494
a(g184
g490
tp495
as(S'pointed'
p496
S'pentagon'
p497
tp498
(lp499
(S'pointless'
p500
g497
tp501
as(g414
S'church_bell'
p502
tp503
(lp504
(g406
g502
tp505
as(S'physical'
p506
g8
tp507
(lp508
(S'mental'
p509
g8
tp510
as(S'fresh'
p511
S'cowslip'
p512
tp513
(lp514
(S'stale'
p515
g512
tp516
a(S'preserved'
p517
g512
tp518
a(S'salty'
p519
g512
tp520
as(g242
S'ball_bearing'
p521
tp522
(lp523
(g238
g521
tp524
a(g344
g521
tp525
as(g114
S'bunny_rabbit'
p526
tp527
(lp528
(g118
g526
tp529
as(g166
S'barn'
p530
tp531
(lp532
(g170
g530
tp533
as(g275
S'feather'
p534
tp535
(lp536
(g271
g534
tp537
a(g354
g534
tp538
as(S'virile'
p539
S'goat'
p540
tp541
(lp542
(g25
g540
tp543
as(S'muscular'
p544
S'bodybuilder'
p545
tp546
(lp547
(S'ectomorphic'
p548
g545
tp549
a(S'endomorphic'
p550
g545
tp551
as(g23
S'thread'
p552
tp553
(lp554
(g19
g552
tp555
as(g496
S'black_vulture'
p556
tp557
(lp558
(g500
g556
tp559
as(g131
S'freight_train'
p560
tp561
(lp562
(g135
g560
tp563
a(g137
g560
tp564
a(g139
g560
tp565
as(g149
S'pipe'
p566
tp567
(lp568
(g25
g566
tp569
as(g72
S'choker'
p570
tp571
(lp572
(g76
g570
tp573
a(g78
g570
tp574
as(g271
S'anchor'
p575
tp576
(lp577
(g275
g575
tp578
as(g226
S'tinker'
p579
tp580
(lp581
(g230
g579
tp582
as(g208
S'french_pastry'
p583
tp584
(lp585
(g212
g583
tp586
as(g212
g301
tp587
(lp588
(g208
g301
tp589
a(S'unfurrowed'
p590
g301
tp591
as(g176
S'spear'
p592
tp593
(lp594
(g180
g592
tp595
a(g182
g592
tp596
a(g184
g592
tp597
as(g208
S'seashell'
p598
tp599
(lp600
(g212
g598
tp601
as(S'substantive'
p602
S'sandwich'
p603
tp604
(lp605
(S'adjective'
p606
g603
tp607
as(g19
S'tornado'
p608
tp609
(lp610
(g23
g608
tp611
a(g25
g608
tp612
as(g89
S'catalyst'
p613
tp614
(lp615
(g93
g613
tp616
a(g95
g613
tp617
as(g176
S'pocket_knife'
p618
tp619
(lp620
(g180
g618
tp621
a(g182
g618
tp622
a(g184
g618
tp623
as(S'lively'
p624
S'kitten'
p625
tp626
(lp627
(g180
g625
tp628
as(g114
S'bear'
p629
tp630
(lp631
(g118
g629
tp632
as(g61
S'reptile'
p633
tp634
(lp635
(g65
g633
tp636
as(g473
S'microprocessor'
p637
tp638
(lp639
(g477
g637
tp640
as(g61
S'rhino'
p641
tp642
(lp643
(g65
g641
tp644
as(g184
S'fish'
p645
tp646
(lp647
(S'unnatural'
p648
g645
tp649
a(S'artificial'
p650
g645
tp651
a(S'supernatural'
p652
g645
tp653
a(g182
g645
tp654
a(g176
g645
tp655
as(g49
S'ramrod'
p656
tp657
(lp658
(g53
g656
tp659
a(g55
g656
tp660
a(g57
g656
tp661
a(g59
g656
tp662
as(g61
S'witch'
p663
tp664
(lp665
(g65
g663
tp666
as(g544
S'leopard'
p667
tp668
(lp669
(g548
g667
tp670
a(g550
g667
tp671
as(g176
S'butter_knife'
p672
tp673
(lp674
(g180
g672
tp675
a(g182
g672
tp676
a(g184
g672
tp677
as(S'thirsty'
p678
S'horse'
p679
tp680
(lp681
(S'hungry'
p682
g679
tp683
as(g624
S'skeleton'
p684
tp685
(lp686
(g180
g684
tp687
as(S'meaty'
p688
S'meat_pie'
p689
tp690
(lp691
(S'meatless'
p692
g689
tp693
as(S'sterile'
p694
S'mule'
p695
tp696
(lp697
(S'fertile'
p698
g695
tp699
as(g149
g28
tp700
(lp701
(g25
g28
tp702
as(g208
S'rosebush'
p703
tp704
(lp705
(g212
g703
tp706
as(g19
S'tractor'
p707
tp708
(lp709
(g23
g707
tp710
a(g25
g707
tp711
as(g208
S'flute'
p712
tp713
(lp714
(g212
g712
tp715
as(S'supportive'
p716
S'mother'
p717
tp718
(lp719
(S'unsupportive'
p720
g717
tp721
as(g13
S'curse'
p722
tp723
(lp724
(g17
g722
tp725
as(g149
g396
tp726
(lp727
(g25
g396
tp728
as(g214
S'poison'
p729
tp730
(lp731
(g218
g729
tp732
as(S'deaf'
p733
S'post'
p734
tp735
(lp736
(S'hearing'
p737
g734
tp738
as(g7
S'totem_pole'
p739
tp740
(lp741
(g11
g739
tp742
as(g371
S'sumo_wrestler'
p743
tp744
(lp745
(g367
g743
tp746
as(g271
g187
tp747
(lp748
(g275
g187
tp749
as(S'restless'
p750
S'hyena'
p751
tp752
(lp753
(S'restful'
p754
g751
tp755
as(S'impenetrable'
p756
g301
tp757
(lp758
(S'penetrable'
p759
g301
tp760
as(g224
S'frog'
p761
tp762
(lp763
(g220
g761
tp764
a(S'sweet'
p765
g761
tp766
a(S'phlegmy'
p767
g761
tp768
as(g166
S'warship'
p769
tp770
(lp771
(g170
g769
tp772
as(g35
g272
tp773
(lp774
(g39
g272
tp775
a(g41
g272
tp776
as(g393
S'mausoleum'
p777
tp778
(lp779
(g389
g777
tp780
as(g166
S'oak'
p781
tp782
(lp783
(g170
g781
tp784
as(g242
S'head_cold'
p785
tp786
(lp787
(g238
g785
tp788
a(g344
g785
tp789
as(g137
g534
tp790
(lp791
(g131
g534
tp792
a(g452
g534
tp793
a(g454
g534
tp794
a(g456
g534
tp795
a(g458
g534
tp796
as(g149
S'drum'
p797
tp798
(lp799
(g25
g797
tp800
as(g149
S'mannequin'
p801
tp802
(lp803
(g25
g801
tp804
as(g180
S'spoon'
p805
tp806
(lp807
(g624
g805
tp808
a(S'bright'
p809
g805
tp810
a(g176
g805
tp811
as(g149
S'rail'
p812
tp813
(lp814
(g25
g812
tp815
as(S'homogeneous'
p816
S'snowbank'
p817
tp818
(lp819
(S'heterogeneous'
p820
g817
tp821
as(g367
g486
tp822
(lp823
(g371
g486
tp824
as(g367
S'panther'
p825
tp826
(lp827
(g371
g825
tp828
as(g49
S'telephone_pole'
p829
tp830
(lp831
(g53
g829
tp832
a(g55
g829
tp833
a(g57
g829
tp834
a(g59
g829
tp835
as(g72
S'jar'
p836
tp837
(lp838
(g76
g836
tp839
a(g78
g836
tp840
as(g5
S'reed'
p841
tp842
(lp843
(g1
g841
tp844
as(g271
S'log'
p845
tp846
(lp847
(g275
g845
tp848
as(S'concentrated'
p849
S'diamond'
p850
tp851
(lp852
(S'distributed'
p853
g850
tp854
a(g137
g850
tp855
a(S'unsaturated'
p856
g850
tp857
as(g393
S'bubble'
p858
tp859
(lp860
(g389
g858
tp861
as(S'malignant'
p862
S'tapeworm'
p863
tp864
(lp865
(S'benign'
p866
g863
tp867
as(g108
S'slug'
p868
tp869
(lp870
(g112
g868
tp871
as(g202
S'fortress'
p872
tp873
(lp874
(g206
g872
tp875
as(g275
g250
tp876
(lp877
(g271
g250
tp878
a(g354
g250
tp879
as(g23
S'worm'
p880
tp881
(lp882
(g19
g880
tp883
as(g84
S'pumpkin'
p884
tp885
(lp886
(g87
g884
tp887
as(g13
S'feeling'
p888
tp889
(lp890
(g17
g888
tp891
as(g406
S'block'
p892
tp893
(lp894
(g410
g892
tp895
a(g412
g892
tp896
a(g414
g892
tp897
as(g137
S'sidewalk'
p898
tp899
(lp900
(g131
g898
tp901
a(g452
g898
tp902
a(g454
g898
tp903
a(g456
g898
tp904
a(g458
g898
tp905
as(g412
S'soup'
p906
tp907
(lp908
(g410
g906
tp909
a(g406
g906
tp910
a(g484
g906
tp911
as(g61
S'sun'
p912
tp913
(lp914
(g65
g912
tp915
as(g114
S'gymnast'
p916
tp917
(lp918
(g118
g916
tp919
as(g176
S'tack'
p920
tp921
(lp922
(g180
g920
tp923
a(g182
g920
tp924
a(g184
g920
tp925
as(g226
S'coal_miner'
p926
tp927
(lp928
(g230
g926
tp929
as(g367
S'butterfly'
p930
tp931
(lp932
(g371
g930
tp933
as(g208
S'daddy_longlegs'
p934
tp935
(lp936
(g212
g934
tp937
as(g19
S'cappuccino'
p938
tp939
(lp940
(g23
g938
tp941
a(g25
g938
tp942
as(S'developed'
p943
S'quarter_horse'
p944
tp945
(lp946
(S'undeveloped'
p947
g944
tp948
as(g141
S'hedge'
p949
tp950
(lp951
(g145
g949
tp952
a(g147
g949
tp953
as(g176
S'doorknob'
p954
tp955
(lp956
(g180
g954
tp957
a(g182
g954
tp958
a(g184
g954
tp959
as(g186
S'clam'
p960
tp961
(lp962
(g190
g960
tp963
a(g192
g960
tp964
as(g275
S'sparrow'
p965
tp966
(lp967
(g271
g965
tp968
a(g354
g965
tp969
as(S'energetic'
p970
S'sprite'
p971
tp972
(lp973
(S'lethargic'
p974
g971
tp975
as(g5
S"willo'thewisp"
p976
tp977
(lp978
(g1
g976
tp979
as(g141
S'slaver'
p980
tp981
(lp982
(g145
g980
tp983
a(g147
g980
tp984
as(S'immutable'
p985
S'papal_bull'
p986
tp987
(lp988
(S'mutable'
p989
g986
tp990
as(g212
S'fashion_model'
p991
tp992
(lp993
(g208
g991
tp994
a(g590
g991
tp995
as(g141
S'gale'
p996
tp997
(lp998
(g145
g996
tp999
a(g147
g996
tp1000
as(g176
S'viper'
p1001
tp1002
(lp1003
(g180
g1001
tp1004
a(g182
g1001
tp1005
a(g184
g1001
tp1006
as(S'orderly'
p1007
S'fire_drill'
p1008
tp1009
(lp1010
(S'disorderly'
p1011
g1008
tp1012
as(g367
S'dolphin'
p1013
tp1014
(lp1015
(g371
g1013
tp1016
as(g53
g195
tp1017
(lp1018
(g49
g195
tp1019
as(g271
g534
tp1020
(lp1021
(g275
g534
tp1022
as(g166
g336
tp1023
(lp1024
(g170
g336
tp1025
as(g698
S'field'
p1026
tp1027
(lp1028
(g694
g1026
tp1029
as(g698
g396
tp1030
(lp1031
(g694
g396
tp1032
as(S'permanent'
p1033
S'skin_graft'
p1034
tp1035
(lp1036
(S'impermanent'
p1037
g1034
tp1038
as(g208
S'wind_chime'
p1039
tp1040
(lp1041
(g212
g1039
tp1042
as(S'masculine'
p1043
S'skirt'
p1044
tp1045
(lp1046
(S'feminine'
p1047
g1044
tp1048
a(S'neuter'
p1049
g1044
tp1050
as(g89
S'couch_potato'
p1051
tp1052
(lp1053
(g93
g1051
tp1054
a(g95
g1051
tp1055
as(g31
S'mummy'
p1056
tp1057
(lp1058
(g27
g1056
tp1059
a(S'live'
p1060
g1056
tp1061
as(g277
S'hamburger'
p1062
tp1063
(lp1064
(g281
g1062
tp1065
as(g511
S'shamrock'
p1066
tp1067
(lp1068
(g515
g1066
tp1069
a(g517
g1066
tp1070
a(g519
g1066
tp1071
as(g108
S'cobra'
p1072
tp1073
(lp1074
(g112
g1072
tp1075
as(g35
g80
tp1076
(lp1077
(g39
g80
tp1078
a(g41
g80
tp1079
as(g141
S'burlap_bag'
p1080
tp1081
(lp1082
(g145
g1080
tp1083
a(g147
g1080
tp1084
as(g166
g8
tp1085
(lp1086
(g170
g8
tp1087
as(g19
S'jackhammer'
p1088
tp1089
(lp1090
(g23
g1088
tp1091
a(g25
g1088
tp1092
as(g23
S'shirley_temple'
p1093
tp1094
(lp1095
(g19
g1093
tp1096
as(g208
S'breath'
p1097
tp1098
(lp1099
(g212
g1097
tp1100
as(g19
S'python'
p1101
tp1102
(lp1103
(g23
g1101
tp1104
a(g25
g1101
tp1105
as(g389
S'hog'
p1106
tp1107
(lp1108
(g393
g1106
tp1109
a(g39
g1106
tp1110
as(g242
S'lioness'
p1111
tp1112
(lp1113
(g238
g1111
tp1114
a(g344
g1111
tp1115
as(g114
S'castle'
p1116
tp1117
(lp1118
(g118
g1116
tp1119
as(g166
S'refrigerator'
p1120
tp1121
(lp1122
(g170
g1120
tp1123
as(g271
S'paperweight'
p1124
tp1125
(lp1126
(g275
g1124
tp1127
as(g406
g396
tp1128
(lp1129
(g410
g396
tp1130
a(g412
g396
tp1131
a(g414
g396
tp1132
as(g5
S'supermodel'
p1133
tp1134
(lp1135
(g1
g1133
tp1136
as(g974
S'tree_sloth'
p1137
tp1138
(lp1139
(g970
g1137
tp1140
as(g114
S'steak'
p1141
tp1142
(lp1143
(g118
g1141
tp1144
as(g456
S'new_york'
p1145
tp1146
(lp1147
(S'untempered'
p1148
g1145
tp1149
a(g137
g1145
tp1150
as(g212
S'shark'
p1151
tp1152
(lp1153
(g208
g1151
tp1154
a(g590
g1151
tp1155
as(S'toothless'
p1156
g215
tp1157
(lp1158
(S'toothed'
p1159
g215
tp1160
as(g7
S'clockwork'
p1161
tp1162
(lp1163
(g11
g1161
tp1164
as(g648
S'graveyard_shift'
p1165
tp1166
(lp1167
(g184
g1165
tp1168
a(S'normal'
p1169
g1165
tp1170
a(S'unaffected'
p1171
g1165
tp1172
as(g114
g1111
tp1173
(lp1174
(g118
g1111
tp1175
as(g496
S'beach_ball'
p1176
tp1177
(lp1178
(g500
g1176
tp1179
as(g120
g1056
tp1180
(lp1181
(g124
g1056
tp1182
as(g414
g841
tp1183
(lp1184
(g406
g841
tp1185
as(g114
g407
tp1186
(lp1187
(g118
g407
tp1188
as(g315
S'bank_vault'
p1189
tp1190
(lp1191
(g319
g1189
tp1192
as(g277
S'cookie'
p1193
tp1194
(lp1195
(g281
g1193
tp1196
as(S'inanimate'
p1197
S'tree'
p1198
tp1199
(lp1200
(S'animate'
p1201
g1198
tp1202
as(g49
S'telegraph_pole'
p1203
tp1204
(lp1205
(g53
g1203
tp1206
a(g55
g1203
tp1207
a(g57
g1203
tp1208
a(g59
g1203
tp1209
as(g61
S'crocodile'
p1210
tp1211
(lp1212
(g65
g1210
tp1213
as(g383
S'milk_cow'
p1214
tp1215
(lp1216
(g387
g1214
tp1217
as(g756
S'glacier'
p1218
tp1219
(lp1220
(g759
g1218
tp1221
as(g23
S'toddler'
p1222
tp1223
(lp1224
(g19
g1222
tp1225
as(g5
S'potato_chip'
p1226
tp1227
(lp1228
(g1
g1226
tp1229
as(g149
S'rod'
p1230
tp1231
(lp1232
(g25
g1230
tp1233
as(g371
S'pup'
p1234
tp1235
(lp1236
(g367
g1234
tp1237
as(g176
g448
tp1238
(lp1239
(g180
g448
tp1240
a(g182
g448
tp1241
a(g184
g448
tp1242
as(g89
S'sea_anemone'
p1243
tp1244
(lp1245
(g93
g1243
tp1246
a(g95
g1243
tp1247
as(g220
S'sink'
p1248
tp1249
(lp1250
(g224
g1248
tp1251
as(g114
S'truck'
p1252
tp1253
(lp1254
(g118
g1252
tp1255
as(g93
S'adventure'
p1256
tp1257
(lp1258
(g89
g1256
tp1259
a(g291
g1256
tp1260
a(g293
g1256
tp1261
a(g295
g1256
tp1262
a(g297
g1256
tp1263
a(g299
g1256
tp1264
as(S'seamless'
p1265
g209
tp1266
(lp1267
(S'seamed'
p1268
g209
tp1269
as(g108
S'cyclone'
p1270
tp1271
(lp1272
(g112
g1270
tp1273
as(g19
S'slayer'
p1274
tp1275
(lp1276
(g23
g1274
tp1277
a(g25
g1274
tp1278
as(g230
S'temple'
p1279
tp1280
(lp1281
(g226
g1279
tp1282
a(g236
g1279
tp1283
as(g271
S'cannon_ball'
p1284
tp1285
(lp1286
(g275
g1284
tp1287
as(g7
S'fossil'
p1288
tp1289
(lp1290
(g11
g1288
tp1291
as(g176
S'vixen'
p1292
tp1293
(lp1294
(g180
g1292
tp1295
a(g182
g1292
tp1296
a(g184
g1292
tp1297
as(g19
g1111
tp1298
(lp1299
(g23
g1111
tp1300
a(g25
g1111
tp1301
as(g473
S'cpu'
p1302
tp1303
(lp1304
(g477
g1302
tp1305
as(g120
S'monument'
p1306
tp1307
(lp1308
(g124
g1306
tp1309
as(g13
S'soul'
p1310
tp1311
(lp1312
(g17
g1310
tp1313
as(g114
g679
tp1314
(lp1315
(g118
g679
tp1316
as(g124
g743
tp1317
(lp1318
(g120
g743
tp1319
as(g371
S'camel'
p1320
tp1321
(lp1322
(g367
g1320
tp1323
as(g108
S'ant'
p1324
tp1325
(lp1326
(g112
g1324
tp1327
as(g17
S'toothache'
p1328
tp1329
(lp1330
(g13
g1328
tp1331
a(S'impalpable'
p1332
g1328
tp1333
as(g102
S'encyclopedia'
p1334
tp1335
(lp1336
(g106
g1334
tp1337
as(S'invulnerable'
p1338
g301
tp1339
(lp1340
(S'vulnerable'
p1341
g301
tp1342
as(g496
S'sword'
p1343
tp1344
(lp1345
(g500
g1343
tp1346
as(g406
g1116
tp1347
(lp1348
(g410
g1116
tp1349
a(g412
g1116
tp1350
a(g414
g1116
tp1351
as(g473
S'encyclopaedia'
p1352
tp1353
(lp1354
(g477
g1352
tp1355
as(g19
S'viking'
p1356
tp1357
(lp1358
(g23
g1356
tp1359
a(g25
g1356
tp1360
as(g271
S'airplane'
p1361
tp1362
(lp1363
(g275
g1361
tp1364
as(g406
S'jailhouse'
p1365
tp1366
(lp1367
(g410
g1365
tp1368
a(g412
g1365
tp1369
a(g414
g1365
tp1370
as(g19
S'onion'
p1371
tp1372
(lp1373
(g23
g1371
tp1374
a(g25
g1371
tp1375
as(g226
S'pigpen'
p1376
tp1377
(lp1378
(g230
g1376
tp1379
as(g19
S'gorilla'
p1380
tp1381
(lp1382
(g23
g1380
tp1383
a(g25
g1380
tp1384
as(g511
g912
tp1385
(lp1386
(g515
g912
tp1387
a(g517
g912
tp1388
a(g519
g912
tp1389
as(g176
S'scythe'
p1390
tp1391
(lp1392
(g180
g1390
tp1393
a(g182
g1390
tp1394
a(g184
g1390
tp1395
as(g194
S'giraffe'
p1396
tp1397
(lp1398
(g198
g1396
tp1399
a(g200
g1396
tp1400
as(g124
g187
tp1401
(lp1402
(g120
g187
tp1403
as(g539
S'vicar'
p1404
tp1405
(lp1406
(g25
g1404
tp1407
as(S'wholesome'
p1408
S'quilting_bee'
p1409
tp1410
(lp1411
(S'unwholesome'
p1412
g1409
tp1413
as(g176
S'scimitar'
p1414
tp1415
(lp1416
(g180
g1414
tp1417
a(g182
g1414
tp1418
a(g184
g1414
tp1419
as(g49
S'poker'
p1420
tp1421
(lp1422
(g53
g1420
tp1423
a(g55
g1420
tp1424
a(g57
g1420
tp1425
a(g59
g1420
tp1426
as(g202
S'jail_cell'
p1427
tp1428
(lp1429
(g206
g1427
tp1430
as(S'fit'
p1431
g250
tp1432
(lp1433
(S'unfit'
p1434
g250
tp1435
as(g511
S'herb_garden'
p1436
tp1437
(lp1438
(g515
g1436
tp1439
a(g517
g1436
tp1440
a(g519
g1436
tp1441
as(g112
g1056
tp1442
(lp1443
(g108
g1056
tp1444
as(g716
S'teammate'
p1445
tp1446
(lp1447
(g720
g1445
tp1448
as(g61
S'sin'
p1449
tp1450
(lp1451
(g65
g1449
tp1452
as(g108
S'armadillo'
p1453
tp1454
(lp1455
(g112
g1453
tp1456
as(S'blind'
p1457
S'mole'
p1458
tp1459
(lp1460
(S'sighted'
p1461
g1458
tp1462
as(g61
S'sea_slug'
p1463
tp1464
(lp1465
(g65
g1463
tp1466
as(g539
S'hercules'
p1467
tp1468
(lp1469
(g25
g1467
tp1470
as(g473
S'mainframe'
p1471
tp1472
(lp1473
(g477
g1471
tp1474
as(g23
S'lamb'
p1475
tp1476
(lp1477
(g19
g1475
tp1478
as(S'stable'
p1479
g1116
tp1480
(lp1481
(S'unstable'
p1482
g1116
tp1483
as(g406
S'dumbbell'
p1484
tp1485
(lp1486
(g410
g1484
tp1487
a(g412
g1484
tp1488
a(g414
g1484
tp1489
as(g277
S'marathon_runner'
p1490
tp1491
(lp1492
(g281
g1490
tp1493
as(g19
S'water_buffalo'
p1494
tp1495
(lp1496
(g23
g1494
tp1497
a(g25
g1494
tp1498
as(S'integrated'
p1499
S'computer_circuit'
p1500
tp1501
(lp1502
(S'nonintegrated'
p1503
g1500
tp1504
a(S'segregated'
p1505
g1500
tp1506
as(g108
S'raptor'
p1507
tp1508
(lp1509
(g112
g1507
tp1510
as(g511
S'lark'
p1511
tp1512
(lp1513
(g515
g1511
tp1514
a(g517
g1511
tp1515
a(g519
g1511
tp1516
as(S'elastic'
p1517
S'balloon'
p1518
tp1519
(lp1520
(S'inelastic'
p1521
g1518
tp1522
as(g544
S'blacksmith'
p1523
tp1524
(lp1525
(g548
g1523
tp1526
a(g550
g1523
tp1527
as(g72
S'yoke'
p1528
tp1529
(lp1530
(g76
g1528
tp1531
a(g78
g1528
tp1532
as(g970
S'dishrag'
p1533
tp1534
(lp1535
(g974
g1533
tp1536
as(g35
S'barrel'
p1537
tp1538
(lp1539
(g39
g1537
tp1540
a(g41
g1537
tp1541
as(g326
S'meringue'
p1542
tp1543
(lp1544
(g330
g1542
tp1545
as(g13
g264
tp1546
(lp1547
(g17
g264
tp1548
as(g67
g278
tp1549
(lp1550
(g25
g278
tp1551
as(g137
S'caress'
p1552
tp1553
(lp1554
(g131
g1552
tp1555
a(g452
g1552
tp1556
a(g454
g1552
tp1557
a(g456
g1552
tp1558
a(g458
g1552
tp1559
as(g120
S'corpse'
p1560
tp1561
(lp1562
(g124
g1560
tp1563
as(g194
S'rope'
p1564
tp1565
(lp1566
(g198
g1564
tp1567
a(g200
g1564
tp1568
as(g23
S'waft'
p1569
tp1570
(lp1571
(g19
g1569
tp1572
as(g72
S'garter_belt'
p1573
tp1574
(lp1575
(g76
g1573
tp1576
a(g78
g1573
tp1577
as(g23
S'rag_doll'
p1578
tp1579
(lp1580
(g19
g1578
tp1581
as(g367
S'sheep'
p1582
tp1583
(lp1584
(g371
g1582
tp1585
as(g141
S'thunderstorm'
p1586
tp1587
(lp1588
(g145
g1586
tp1589
a(g147
g1586
tp1590
as(g176
S'whip'
p1591
tp1592
(lp1593
(g180
g1591
tp1594
a(g182
g1591
tp1595
a(g184
g1591
tp1596
as(g511
S'flower_bud'
p1597
tp1598
(lp1599
(g515
g1597
tp1600
a(g517
g1597
tp1601
a(g519
g1597
tp1602
as(g277
S'dessert'
p1603
tp1604
(lp1605
(g281
g1603
tp1606
as(g406
S'boxer'
p1607
tp1608
(lp1609
(g410
g1607
tp1610
a(g412
g1607
tp1611
a(g414
g1607
tp1612
as(g114
S'granite'
p1613
tp1614
(lp1615
(g118
g1613
tp1616
as(S'capable'
p1617
S'penguin'
p1618
tp1619
(lp1620
(S'incapable'
p1621
g1618
tp1622
as(S'sick'
p1623
g868
tp1624
(lp1625
(S'well'
p1626
g868
tp1627
as(g131
S'heavyweight'
p1628
tp1629
(lp1630
(g135
g1628
tp1631
a(g137
g1628
tp1632
a(g139
g1628
tp1633
as(g19
S'knight'
p1634
tp1635
(lp1636
(g23
g1634
tp1637
a(g25
g1634
tp1638
as(g124
S'vehicle'
p1639
tp1640
(lp1641
(g120
g1639
tp1642
as(g414
S'bone'
p1643
tp1644
(lp1645
(g406
g1643
tp1646
as(g406
g44
tp1647
(lp1648
(g410
g44
tp1649
a(g412
g44
tp1650
a(g414
g44
tp1651
as(g367
S'gazelle'
p1652
tp1653
(lp1654
(g371
g1652
tp1655
as(g862
S'toaster'
p1656
tp1657
(lp1658
(g866
g1656
tp1659
as(g1431
g679
tp1660
(lp1661
(g1434
g679
tp1662
as(g224
S'biscuit'
p1663
tp1664
(lp1665
(g220
g1663
tp1666
a(g765
g1663
tp1667
a(g767
g1663
tp1668
as(g271
g912
tp1669
(lp1670
(g275
g912
tp1671
as(g389
S'drunk'
p1672
tp1673
(lp1674
(g393
g1672
tp1675
a(g39
g1672
tp1676
as(g131
S'bullet'
p1677
tp1678
(lp1679
(g135
g1677
tp1680
a(g137
g1677
tp1681
a(g139
g1677
tp1682
as(g1408
S'hymn'
p1683
tp1684
(lp1685
(g1412
g1683
tp1686
as(g108
S'rambler'
p1687
tp1688
(lp1689
(g112
g1687
tp1690
as(g406
g872
tp1691
(lp1692
(g410
g872
tp1693
a(g412
g872
tp1694
a(g414
g872
tp1695
as(g72
S'miser'
p1696
tp1697
(lp1698
(g76
g1696
tp1699
a(g78
g1696
tp1700
as(g176
S'pin'
p1701
tp1702
(lp1703
(g180
g1701
tp1704
a(g182
g1701
tp1705
a(g184
g1701
tp1706
as(S'juicy'
p1707
S'nectarine'
p1708
tp1709
(lp1710
(S'juiceless'
p1711
g1708
tp1712
as(g19
S'dandelion'
p1713
tp1714
(lp1715
(g23
g1713
tp1716
a(g25
g1713
tp1717
as(g511
S'ingenue'
p1718
tp1719
(lp1720
(g515
g1718
tp1721
a(g517
g1718
tp1722
a(g519
g1718
tp1723
as(g208
g1542
tp1724
(lp1725
(g212
g1542
tp1726
as(g440
S'womb'
p1727
tp1728
(lp1729
(g444
g1727
tp1730
a(g446
g1727
tp1731
as(g716
S'family'
p1732
tp1733
(lp1734
(g720
g1732
tp1735
as(g108
S'eagle'
p1736
tp1737
(lp1738
(g112
g1736
tp1739
as(g367
g1252
tp1740
(lp1741
(g371
g1252
tp1742
as(g1431
g695
tp1743
(lp1744
(g1434
g695
tp1745
as(g1457
S'bat'
p1746
tp1747
(lp1748
(g1461
g1746
tp1749
as(g19
g8
tp1750
(lp1751
(g23
g8
tp1752
a(g25
g8
tp1753
as(g61
S'toad'
p1754
tp1755
(lp1756
(g65
g1754
tp1757
as(g648
g305
tp1758
(lp1759
(g184
g305
tp1760
a(g1169
g305
tp1761
a(g1171
g305
tp1762
as(g19
S'twig'
p1763
tp1764
(lp1765
(g23
g1763
tp1766
a(g25
g1763
tp1767
as(g678
g645
tp1768
(lp1769
(g682
g645
tp1770
as(g108
g825
tp1771
(lp1772
(g112
g825
tp1773
as(g17
S'statue'
p1774
tp1775
(lp1776
(g13
g1774
tp1777
a(g1332
g1774
tp1778
as(S'tangled'
p1779
S'soap_opera'
p1780
tp1781
(lp1782
(S'untangled'
p1783
g1780
tp1784
as(g137
S'poodle'
p1785
tp1786
(lp1787
(g131
g1785
tp1788
a(g452
g1785
tp1789
a(g454
g1785
tp1790
a(g456
g1785
tp1791
a(g458
g1785
tp1792
as(g176
S'teaspoon'
p1793
tp1794
(lp1795
(g180
g1793
tp1796
a(g182
g1793
tp1797
a(g184
g1793
tp1798
as(g1007
S'bank'
p1799
tp1800
(lp1801
(g1011
g1799
tp1802
as(g473
g1193
tp1803
(lp1804
(g477
g1193
tp1805
as(g756
S'rain_forest'
p1806
tp1807
(lp1808
(g759
g1806
tp1809
as(g371
S'hound_dog'
p1810
tp1811
(lp1812
(g367
g1810
tp1813
as(g166
g695
tp1814
(lp1815
(g170
g695
tp1816
as(S'tense'
p1817
S'sunday_school'
p1818
tp1819
(lp1820
(S'relaxed'
p1821
g1818
tp1822
a(S'lax'
p1823
g1818
tp1824
as(g141
S'pumice_stone'
p1825
tp1826
(lp1827
(g145
g1825
tp1828
a(g147
g1825
tp1829
as(g716
S'parent'
p1830
tp1831
(lp1832
(g720
g1830
tp1833
as(g496
S'syringe'
p1834
tp1835
(lp1836
(g500
g1834
tp1837
as(g242
S'bomber'
p1838
tp1839
(lp1840
(g238
g1838
tp1841
a(g344
g1838
tp1842
as(g112
g868
tp1843
(lp1844
(g108
g868
tp1845
as(g277
S'donut'
p1846
tp1847
(lp1848
(g281
g1846
tp1849
as(g624
S'beehive'
p1850
tp1851
(lp1852
(g180
g1850
tp1853
as(g19
S'bulldozer'
p1854
tp1855
(lp1856
(g23
g1854
tp1857
a(g25
g1854
tp1858
as(g275
S'salad'
p1859
tp1860
(lp1861
(g271
g1859
tp1862
a(g354
g1859
tp1863
as(g544
g916
tp1864
(lp1865
(g548
g916
tp1866
a(g550
g916
tp1867
as(g406
S'bowling_ball'
p1868
tp1869
(lp1870
(g410
g1868
tp1871
a(g412
g1868
tp1872
a(g414
g1868
tp1873
as(g141
S'cactus'
p1874
tp1875
(lp1876
(g145
g1874
tp1877
a(g147
g1874
tp1878
as(g1408
S'apple_pie'
p1879
tp1880
(lp1881
(g1412
g1879
tp1882
as(g93
g1850
tp1883
(lp1884
(g89
g1850
tp1885
a(g291
g1850
tp1886
a(g293
g1850
tp1887
a(g295
g1850
tp1888
a(g297
g1850
tp1889
a(g299
g1850
tp1890
as(S'woody'
p1891
S'shrub'
p1892
tp1893
(lp1894
(S'nonwoody'
p1895
g1892
tp1896
as(S'manly'
p1897
S'razor'
p1898
tp1899
(lp1900
(S'unmanly'
p1901
g1898
tp1902
as(g114
S'hickory_tree'
p1903
tp1904
(lp1905
(g118
g1903
tp1906
as(g137
S'mattress'
p1907
tp1908
(lp1909
(g131
g1907
tp1910
a(g452
g1907
tp1911
a(g454
g1907
tp1912
a(g456
g1907
tp1913
a(g458
g1907
tp1914
as(g1707
S'lychee'
p1915
tp1916
(lp1917
(g1711
g1915
tp1918
as(g67
S'truth_serum'
p1919
tp1920
(lp1921
(g25
g1919
tp1922
as(g19
S'dump_truck'
p1923
tp1924
(lp1925
(g23
g1923
tp1926
a(g25
g1923
tp1927
as(g440
S'hospital'
p1928
tp1929
(lp1930
(g444
g1928
tp1931
a(g446
g1928
tp1932
as(g506
S'spirit'
p1933
tp1934
(lp1935
(g509
g1933
tp1936
as(g440
g121
tp1937
(lp1938
(g444
g121
tp1939
a(g446
g121
tp1940
as(g1707
S'porterhouse_steak'
p1941
tp1942
(lp1943
(g1711
g1941
tp1944
as(g539
g278
tp1945
(lp1946
(g25
g278
tp1947
as(g72
S'marriage'
p1948
tp1949
(lp1950
(g76
g1948
tp1951
a(g78
g1948
tp1952
as(g114
S'chinook'
p1953
tp1954
(lp1955
(g118
g1953
tp1956
as(g974
g1560
tp1957
(lp1958
(g970
g1560
tp1959
as(g184
S'storm'
p1960
tp1961
(lp1962
(g648
g1960
tp1963
a(g650
g1960
tp1964
a(g652
g1960
tp1965
a(g182
g1960
tp1966
a(g176
g1960
tp1967
as(g186
g1774
tp1968
(lp1969
(g190
g1774
tp1970
a(g192
g1774
tp1971
as(g816
S'culture_medium'
p1972
tp1973
(lp1974
(g820
g1972
tp1975
as(g624
S'cocktail_party'
p1976
tp1977
(lp1978
(g180
g1976
tp1979
as(g23
S'chicken'
p1980
tp1981
(lp1982
(g19
g1980
tp1983
as(g1479
S'earthquake'
p1984
tp1985
(lp1986
(g1482
g1984
tp1987
as(S'effortless'
p1988
S'prima_ballerina'
p1989
tp1990
(lp1991
(S'effortful'
p1992
g1989
tp1993
as(g208
g743
tp1994
(lp1995
(g212
g743
tp1996
as(g756
S'mirror'
p1997
tp1998
(lp1999
(g759
g1997
tp2000
as(g7
g592
tp2001
(lp2002
(g11
g592
tp2003
as(g624
S'convent'
p2004
tp2005
(lp2006
(g180
g2004
tp2007
as(S'ineffective'
p2008
S'pea_shooter'
p2009
tp2010
(lp2011
(S'effective'
p2012
g2009
tp2013
as(g149
g850
tp2014
(lp2015
(g25
g850
tp2016
as(g137
g625
tp2017
(lp2018
(g131
g625
tp2019
a(g452
g625
tp2020
a(g454
g625
tp2021
a(g456
g625
tp2022
a(g458
g625
tp2023
as(g698
S'stapler'
p2024
tp2025
(lp2026
(g694
g2024
tp2027
as(g166
S'flea'
p2028
tp2029
(lp2030
(g170
g2028
tp2031
as(g114
S'nail'
p2032
tp2033
(lp2034
(g118
g2032
tp2035
as(g61
g2028
tp2036
(lp2037
(g65
g2028
tp2038
as(g27
S'forest'
p2039
tp2040
(lp2041
(g31
g2039
tp2042
a(g33
g2039
tp2043
as(g137
S'fur_coat'
p2044
tp2045
(lp2046
(g131
g2044
tp2047
a(g452
g2044
tp2048
a(g454
g2044
tp2049
a(g456
g2044
tp2050
a(g458
g2044
tp2051
as(g186
S'painting'
p2052
tp2053
(lp2054
(g190
g2052
tp2055
a(g192
g2052
tp2056
as(S'explosive'
p2057
S'petrol_bomb'
p2058
tp2059
(lp2060
(S'nonexplosive'
p2061
g2058
tp2062
as(g7
S'amoeba'
p2063
tp2064
(lp2065
(g11
g2063
tp2066
as(g7
g1056
tp2067
(lp2068
(g11
g1056
tp2069
as(g849
S'torrent'
p2070
tp2071
(lp2072
(g853
g2070
tp2073
a(g137
g2070
tp2074
a(g856
g2070
tp2075
as(g750
S'willow'
p2076
tp2077
(lp2078
(g754
g2076
tp2079
as(g176
S'engraver'
p2080
tp2081
(lp2082
(g180
g2080
tp2083
a(g182
g2080
tp2084
a(g184
g2080
tp2085
as(g176
S'laser_printer'
p2086
tp2087
(lp2088
(g180
g2086
tp2089
a(g182
g2086
tp2090
a(g184
g2086
tp2091
as(g19
S'wolf'
p2092
tp2093
(lp2094
(g23
g2092
tp2095
a(g25
g2092
tp2096
as(g544
S'shire_horse'
p2097
tp2098
(lp2099
(g548
g2097
tp2100
a(g550
g2097
tp2101
as(g53
S'lawyer'
p2102
tp2103
(lp2104
(g49
g2102
tp2105
as(g27
S'heartbeat'
p2106
tp2107
(lp2108
(g31
g2106
tp2109
a(g33
g2106
tp2110
as(g208
S'mirage'
p2111
tp2112
(lp2113
(g212
g2111
tp2114
as(g19
S'espresso'
p2115
tp2116
(lp2117
(g23
g2115
tp2118
a(g25
g2115
tp2119
as(g202
g1189
tp2120
(lp2121
(g206
g1189
tp2122
as(g756
S'rainforest'
p2123
tp2124
(lp2125
(g759
g2123
tp2126
as(g61
S'vulture'
p2127
tp2128
(lp2129
(g65
g2127
tp2130
as(g694
S'brain_surgery'
p2131
tp2132
(lp2133
(g698
g2131
tp2134
as(g19
S'buffalo'
p2135
tp2136
(lp2137
(g23
g2135
tp2138
a(g25
g2135
tp2139
as(g149
S'stick'
p2140
tp2141
(lp2142
(g25
g2140
tp2143
as(g49
S'needle'
p2144
tp2145
(lp2146
(g53
g2144
tp2147
a(g55
g2144
tp2148
a(g57
g2144
tp2149
a(g59
g2144
tp2150
as(g1479
S'skyscraper'
p2151
tp2152
(lp2153
(g1482
g2151
tp2154
as(S'wrinkled'
p2155
S'raisin'
p2156
tp2157
(lp2158
(S'unwrinkled'
p2159
g2156
tp2160
a(S'ironed'
p2161
g2156
tp2162
as(g131
g1868
tp2163
(lp2164
(g135
g1868
tp2165
a(g137
g1868
tp2166
a(g139
g1868
tp2167
as(g277
g1859
tp2168
(lp2169
(g281
g1859
tp2170
as(g186
S'photograph'
p2171
tp2172
(lp2173
(g190
g2171
tp2174
a(g192
g2171
tp2175
as(g214
g1001
tp2176
(lp2177
(g218
g1001
tp2178
as(g53
S'politician'
p2179
tp2180
(lp2181
(g49
g2179
tp2182
as(g226
S'pig'
p2183
tp2184
(lp2185
(g230
g2183
tp2186
as(g166
S'weed'
p2187
tp2188
(lp2189
(g170
g2187
tp2190
as(g19
S'elephant'
p2191
tp2192
(lp2193
(g23
g2191
tp2194
a(g25
g2191
tp2195
as(g49
S'line'
p2196
tp2197
(lp2198
(g53
g2196
tp2199
a(g55
g2196
tp2200
a(g57
g2196
tp2201
a(g59
g2196
tp2202
as(g682
S'tiger'
p2203
tp2204
(lp2205
(g678
g2203
tp2206
as(g1431
S'alley_cat'
p2207
tp2208
(lp2209
(g1434
g2207
tp2210
as(g698
g2123
tp2211
(lp2212
(g694
g2123
tp2213
as(g19
S'cart_horse'
p2214
tp2215
(lp2216
(g23
g2214
tp2217
a(g25
g2214
tp2218
as(g176
S'tooth'
p2219
tp2220
(lp2221
(g180
g2219
tp2222
a(g182
g2219
tp2223
a(g184
g2219
tp2224
as(g176
S'butcher_knife'
p2225
tp2226
(lp2227
(g180
g2225
tp2228
a(g182
g2225
tp2229
a(g184
g2225
tp2230
as(g112
g695
tp2231
(lp2232
(g108
g695
tp2233
as(g367
S'stork'
p2234
tp2235
(lp2236
(g371
g2234
tp2237
as(g13
S'smell'
p2238
tp2239
(lp2240
(g17
g2238
tp2241
as(g1617
S'laptop_computer'
p2242
tp2243
(lp2244
(g1621
g2242
tp2245
as(g1779
g340
tp2246
(lp2247
(g1783
g340
tp2248
as(g970
S'coffee_bean'
p2249
tp2250
(lp2251
(g974
g2249
tp2252
as(g120
S'cathedral'
p2253
tp2254
(lp2255
(g124
g2253
tp2256
as(g275
S'pickup_truck'
p2257
tp2258
(lp2259
(g271
g2257
tp2260
a(g354
g2257
tp2261
as(g176
g1846
tp2262
(lp2263
(g180
g1846
tp2264
a(g182
g1846
tp2265
a(g184
g1846
tp2266
as(S'spineless'
p2267
S'chocolate_eclair'
p2268
tp2269
(lp2270
(S'vertebrate'
p2271
g2268
tp2272
a(S'spinous'
p2273
g2268
tp2274
as(g137
S'petal'
p2275
tp2276
(lp2277
(g131
g2275
tp2278
a(g452
g2275
tp2279
a(g454
g2275
tp2280
a(g456
g2275
tp2281
a(g458
g2275
tp2282
as(g131
g1542
tp2283
(lp2284
(g135
g1542
tp2285
a(g137
g1542
tp2286
a(g139
g1542
tp2287
as(g19
S'ape'
p2288
tp2289
(lp2290
(g23
g2288
tp2291
a(g25
g2288
tp2292
as(g31
S'dodo'
p2293
tp2294
(lp2295
(g27
g2293
tp2296
a(g1060
g2293
tp2297
as(g194
S'tortilla'
p2298
tp2299
(lp2300
(g198
g2298
tp2301
a(g200
g2298
tp2302
as(g27
S'jungle'
p2303
tp2304
(lp2305
(g31
g2303
tp2306
a(g33
g2303
tp2307
as(g224
S'sand_trap'
p2308
tp2309
(lp2310
(g220
g2308
tp2311
a(g765
g2308
tp2312
a(g767
g2308
tp2313
as(g1817
S'bow'
p2314
tp2315
(lp2316
(g1821
g2314
tp2317
a(g1823
g2314
tp2318
as(g131
g1613
tp2319
(lp2320
(g135
g1613
tp2321
a(g137
g1613
tp2322
a(g139
g1613
tp2323
as(g212
S'battleship'
p2324
tp2325
(lp2326
(g208
g2324
tp2327
a(g590
g2324
tp2328
as(g120
S'mountain_range'
p2329
tp2330
(lp2331
(g124
g2329
tp2332
as(g1
S'rocket'
p2333
tp2334
(lp2335
(g5
g2333
tp2336
as(g108
S'snail'
p2337
tp2338
(lp2339
(g112
g2337
tp2340
as(g275
S'duckling'
p2341
tp2342
(lp2343
(g271
g2341
tp2344
a(g354
g2341
tp2345
as(g688
S'whopper'
p2346
tp2347
(lp2348
(g692
g2346
tp2349
as(g19
S'crowbar'
p2350
tp2351
(lp2352
(g23
g2350
tp2353
a(g25
g2350
tp2354
as(g230
g1898
tp2355
(lp2356
(g226
g1898
tp2357
a(g236
g1898
tp2358
as(g149
S'spine'
p2359
tp2360
(lp2361
(g25
g2359
tp2362
as(g367
S'minuet'
p2363
tp2364
(lp2365
(g371
g2363
tp2366
as(g19
g1198
tp2367
(lp2368
(g23
g1198
tp2369
a(g25
g1198
tp2370
as(g624
S'market'
p2371
tp2372
(lp2373
(g180
g2371
tp2374
as(g31
S'cemetery'
p2375
tp2376
(lp2377
(g27
g2375
tp2378
a(g1060
g2375
tp2379
as(g108
S'ostrich'
p2380
tp2381
(lp2382
(g112
g2380
tp2383
as(g198
g2350
tp2384
(lp2385
(g194
g2350
tp2386
a(g170
g2350
tp2387
as(g149
g1343
tp2388
(lp2389
(g25
g1343
tp2390
as(g72
S'shroud'
p2391
tp2392
(lp2393
(g76
g2391
tp2394
a(g78
g2391
tp2395
as(g1617
g463
tp2396
(lp2397
(g1621
g463
tp2398
as(g440
g872
tp2399
(lp2400
(g444
g872
tp2401
a(g446
g872
tp2402
as(g19
S'dragon'
p2403
tp2404
(lp2405
(g23
g2403
tp2406
a(g25
g2403
tp2407
as(g694
S'gauze_bandage'
p2408
tp2409
(lp2410
(g698
g2408
tp2411
as(g970
g1578
tp2412
(lp2413
(g974
g1578
tp2414
as(g23
S'teddy_bear'
p2415
tp2416
(lp2417
(g19
g2415
tp2418
as(S'concrete'
p2419
g1420
tp2420
(lp2421
(S'abstract'
p2422
g1420
tp2423
as(g756
g872
tp2424
(lp2425
(g759
g872
tp2426
as(g1156
S'duck'
p2427
tp2428
(lp2429
(g1159
g2427
tp2430
as(g393
g1518
tp2431
(lp2432
(g389
g1518
tp2433
as(g61
S'halibut'
p2434
tp2435
(lp2436
(g65
g2434
tp2437
as(g970
S'puppy'
p2438
tp2439
(lp2440
(g974
g2438
tp2441
as(g393
S'prison_cell'
p2442
tp2443
(lp2444
(g389
g2442
tp2445
as(g137
g468
tp2446
(lp2447
(g131
g468
tp2448
a(g452
g468
tp2449
a(g454
g468
tp2450
a(g456
g468
tp2451
a(g458
g468
tp2452
as(g1338
g8
tp2453
(lp2454
(g1341
g8
tp2455
as(S'real'
p2456
S'puppet_show'
p2457
tp2458
(lp2459
(S'unreal'
p2460
g2457
tp2461
a(S'nominal'
p2462
g2457
tp2463
a(g330
g2457
tp2464
as(g716
S'fatwa'
p2465
tp2466
(lp2467
(g720
g2465
tp2468
as(g367
g1780
tp2469
(lp2470
(g371
g1780
tp2471
as(g1817
S'thriller'
p2472
tp2473
(lp2474
(g1821
g2472
tp2475
a(g1823
g2472
tp2476
as(g202
g1471
tp2477
(lp2478
(g206
g1471
tp2479
as(g2057
S'firecracker'
p2480
tp2481
(lp2482
(g2061
g2480
tp2483
as(g2267
g215
tp2484
(lp2485
(g2271
g215
tp2486
a(g2273
g215
tp2487
as(g72
S'tambourine'
p2488
tp2489
(lp2490
(g76
g2488
tp2491
a(g78
g2488
tp2492
as(g186
g850
tp2493
(lp2494
(g190
g850
tp2495
a(g192
g850
tp2496
as(g7
S'sponge'
p2497
tp2498
(lp2499
(g11
g2497
tp2500
as(S'organic'
p2501
S'dump'
p2502
tp2503
(lp2504
(S'inorganic'
p2505
g2502
tp2506
a(S'functional'
p2507
g2502
tp2508
as(g650
S'doll'
p2509
tp2510
(lp2511
(g184
g2509
tp2512
as(g511
S'beginner'
p2513
tp2514
(lp2515
(g515
g2513
tp2516
a(g517
g2513
tp2517
a(g519
g2513
tp2518
as(g220
S'seal'
p2519
tp2520
(lp2521
(g224
g2519
tp2522
as(g367
S'swallow'
p2523
tp2524
(lp2525
(g371
g2523
tp2526
as(g176
S'hawk'
p2527
tp2528
(lp2529
(g180
g2527
tp2530
a(g182
g2527
tp2531
a(g184
g2527
tp2532
as(g214
g321
tp2533
(lp2534
(g218
g321
tp2535
as(g1479
g336
tp2536
(lp2537
(g1482
g336
tp2538
as(g31
S'mutton'
p2539
tp2540
(lp2541
(g27
g2539
tp2542
a(g1060
g2539
tp2543
as(g176
g1542
tp2544
(lp2545
(g180
g1542
tp2546
a(g182
g1542
tp2547
a(g184
g1542
tp2548
as(g315
g850
tp2549
(lp2550
(g319
g850
tp2551
as(g184
S'snowflake'
p2552
tp2553
(lp2554
(g648
g2552
tp2555
a(g650
g2552
tp2556
a(g652
g2552
tp2557
a(g182
g2552
tp2558
a(g176
g2552
tp2559
as(g184
S'redwood'
p2560
tp2561
(lp2562
(g648
g2560
tp2563
a(g650
g2560
tp2564
a(g652
g2560
tp2565
a(g182
g2560
tp2566
a(g176
g2560
tp2567
as(g244
S'robot'
p2568
tp2569
(lp2570
(g248
g2568
tp2571
as(g473
S'microchip'
p2572
tp2573
(lp2574
(g477
g2572
tp2575
as(g208
g301
tp2576
(lp2577
(g212
g301
tp2578
as(g208
S'orchid'
p2579
tp2580
(lp2581
(g212
g2579
tp2582
as(g624
S'wax_figure'
p2583
tp2584
(lp2585
(g180
g2583
tp2586
as(g477
S'sunbeam'
p2587
tp2588
(lp2589
(g473
g2587
tp2590
a(S'compound'
p2591
g2587
tp2592
as(g131
g781
tp2593
(lp2594
(g135
g781
tp2595
a(g137
g781
tp2596
a(g139
g781
tp2597
as(S'tired'
p2598
g679
tp2599
(lp2600
(S'rested'
p2601
g679
tp2602
as(g112
S'garbage_truck'
p2603
tp2604
(lp2605
(g108
g2603
tp2606
as(g750
S'wind'
p2607
tp2608
(lp2609
(g754
g2607
tp2610
as(g166
g2151
tp2611
(lp2612
(g170
g2151
tp2613
as(g137
g2552
tp2614
(lp2615
(g131
g2552
tp2616
a(g452
g2552
tp2617
a(g454
g2552
tp2618
a(g456
g2552
tp2619
a(g458
g2552
tp2620
as(g2155
S'tortoise'
p2621
tp2622
(lp2623
(g2159
g2621
tp2624
a(g2161
g2621
tp2625
as(g27
S'volcano'
p2626
tp2627
(lp2628
(g31
g2626
tp2629
a(g33
g2626
tp2630
as(g406
g187
tp2631
(lp2632
(g410
g187
tp2633
a(g412
g187
tp2634
a(g414
g187
tp2635
as(S'weightless'
p2636
S'dream'
p2637
tp2638
(lp2639
(S'weighty'
p2640
g2637
tp2641
as(g624
g777
tp2642
(lp2643
(g180
g777
tp2644
as(g114
S'rancher'
p2645
tp2646
(lp2647
(g118
g2645
tp2648
as(g511
g1218
tp2649
(lp2650
(g515
g1218
tp2651
a(g517
g1218
tp2652
a(g519
g1218
tp2653
as(g19
g695
tp2654
(lp2655
(g23
g695
tp2656
a(g25
g695
tp2657
as(g1897
S'mustang'
p2658
tp2659
(lp2660
(g1901
g2658
tp2661
as(g242
S'cuckoo_clock'
p2662
tp2663
(lp2664
(g238
g2662
tp2665
a(g344
g2662
tp2666
as(g114
g28
tp2667
(lp2668
(g118
g28
tp2669
as(g242
S'tease'
p2670
tp2671
(lp2672
(g238
g2670
tp2673
a(g344
g2670
tp2674
as(g194
S'snake'
p2675
tp2676
(lp2677
(g198
g2675
tp2678
a(g200
g2675
tp2679
as(g106
S'manx_cat'
p2680
tp2681
(lp2682
(g102
g2680
tp2683
as(g1007
S'map'
p2684
tp2685
(lp2686
(g1011
g2684
tp2687
as(g544
S'football_player'
p2688
tp2689
(lp2690
(g548
g2688
tp2691
a(g550
g2688
tp2692
as(g72
S'pressure_cooker'
p2693
tp2694
(lp2695
(g76
g2693
tp2696
a(g78
g2693
tp2697
as(g473
S'chess_game'
p2698
tp2699
(lp2700
(g477
g2698
tp2701
as(g511
S'shower'
p2702
tp2703
(lp2704
(g515
g2702
tp2705
a(g517
g2702
tp2706
a(g519
g2702
tp2707
as(g114
g1634
tp2708
(lp2709
(g118
g1634
tp2710
as(g176
S'laser'
p2711
tp2712
(lp2713
(g180
g2711
tp2714
a(g182
g2711
tp2715
a(g184
g2711
tp2716
as(g1479
S'horse_barn'
p2717
tp2718
(lp2719
(g1482
g2717
tp2720
as(g176
g44
tp2721
(lp2722
(g180
g44
tp2723
a(g182
g44
tp2724
a(g184
g44
tp2725
as(g176
S'burr'
p2726
tp2727
(lp2728
(g180
g2726
tp2729
a(g182
g2726
tp2730
a(g184
g2726
tp2731
as(g970
g2203
tp2732
(lp2733
(g974
g2203
tp2734
as(g176
S'icicle'
p2735
tp2736
(lp2737
(g180
g2735
tp2738
a(g182
g2735
tp2739
a(g184
g2735
tp2740
as(g176
S'mud_pie'
p2741
tp2742
(lp2743
(g180
g2741
tp2744
a(g182
g2741
tp2745
a(g184
g2741
tp2746
as(g194
g2568
tp2747
(lp2748
(g198
g2568
tp2749
a(g200
g2568
tp2750
as(g23
g625
tp2751
(lp2752
(g19
g625
tp2753
as(S'skilled'
p2754
S'chef'
p2755
tp2756
(lp2757
(S'unskilled'
p2758
g2755
tp2759
as(S'flimsy'
p2760
g209
tp2761
(lp2762
(S'convincing'
p2763
g209
tp2764
as(g149
g187
tp2765
(lp2766
(g25
g187
tp2767
as(g244
g801
tp2768
(lp2769
(g248
g801
tp2770
as(g137
S'cloud'
p2771
tp2772
(lp2773
(g131
g2771
tp2774
a(g452
g2771
tp2775
a(g454
g2771
tp2776
a(g456
g2771
tp2777
a(g458
g2771
tp2778
as(S'mortal'
p2779
g1560
tp2780
(lp2781
(S'immortal'
p2782
g1560
tp2783
as(g367
S'mountain_lion'
p2784
tp2785
(lp2786
(g371
g2784
tp2787
as(g31
S'tumbleweed'
p2788
tp2789
(lp2790
(g27
g2788
tp2791
a(g1060
g2788
tp2792
as(g166
g1613
tp2793
(lp2794
(g170
g1613
tp2795
as(g367
g396
tp2796
(lp2797
(g371
g396
tp2798
as(g716
S'husband'
p2799
tp2800
(lp2801
(g720
g2799
tp2802
as(g141
S'cob'
p2803
tp2804
(lp2805
(g145
g2803
tp2806
a(g147
g2803
tp2807
as(g67
S'tragedy'
p2808
tp2809
(lp2810
(g25
g2808
tp2811
as(g72
S'corset'
p2812
tp2813
(lp2814
(g76
g2812
tp2815
a(g78
g2812
tp2816
as(g406
g575
tp2817
(lp2818
(g410
g575
tp2819
a(g412
g575
tp2820
a(g414
g575
tp2821
as(g208
g1868
tp2822
(lp2823
(g212
g1868
tp2824
as(g166
S'beer_can'
p2825
tp2826
(lp2827
(g170
g2825
tp2828
as(g35
g2415
tp2829
(lp2830
(g39
g2415
tp2831
a(g41
g2415
tp2832
as(g176
S'soup_spoon'
p2833
tp2834
(lp2835
(g180
g2833
tp2836
a(g182
g2833
tp2837
a(g184
g2833
tp2838
as(g406
S'steel'
p2839
tp2840
(lp2841
(g410
g2839
tp2842
a(g412
g2839
tp2843
a(g414
g2839
tp2844
as(g367
g1618
tp2845
(lp2846
(g371
g1618
tp2847
as(g19
S'goldfish'
p2848
tp2849
(lp2850
(g23
g2848
tp2851
a(g25
g2848
tp2852
as(g756
g2303
tp2853
(lp2854
(g759
g2303
tp2855
as(g149
S'hardwood'
p2856
tp2857
(lp2858
(g25
g2856
tp2859
as(g112
S'striptease'
p2860
tp2861
(lp2862
(g108
g2860
tp2863
as(g31
g1774
tp2864
(lp2865
(g27
g1774
tp2866
a(g1060
g1774
tp2867
as(g184
S'sunflower'
p2868
tp2869
(lp2870
(g648
g2868
tp2871
a(g650
g2868
tp2872
a(g652
g2868
tp2873
a(g182
g2868
tp2874
a(g176
g2868
tp2875
as(g414
S'coconut'
p2876
tp2877
(lp2878
(g406
g2876
tp2879
as(g7
S'ironing_board'
p2880
tp2881
(lp2882
(g11
g2880
tp2883
as(g230
S'whistle'
p2884
tp2885
(lp2886
(g226
g2884
tp2887
a(g236
g2884
tp2888
as(g220
S'diver'
p2889
tp2890
(lp2891
(g224
g2889
tp2892
as(g1707
S'peach'
p2893
tp2894
(lp2895
(g1711
g2893
tp2896
as(g2057
S'suicide_bomber'
p2897
tp2898
(lp2899
(g2061
g2897
tp2900
as(S'basic'
p2901
S'flashlight'
p2902
tp2903
(lp2904
(S'incidental'
p2905
g2902
tp2906
as(g84
S'melon'
p2907
tp2908
(lp2909
(g87
g2907
tp2910
as(g406
g301
tp2911
(lp2912
(g410
g301
tp2913
a(g412
g301
tp2914
a(g414
g301
tp2915
as(g1197
S'football'
p2916
tp2917
(lp2918
(g1201
g2916
tp2919
as(g242
S'dancer'
p2920
tp2921
(lp2922
(g238
g2920
tp2923
a(g344
g2920
tp2924
as(g124
g1774
tp2925
(lp2926
(g120
g1774
tp2927
as(g137
S'whisper'
p2928
tp2929
(lp2930
(g131
g2928
tp2931
a(g452
g2928
tp2932
a(g454
g2928
tp2933
a(g456
g2928
tp2934
a(g458
g2928
tp2935
as(g27
g1198
tp2936
(lp2937
(g31
g1198
tp2938
a(g33
g1198
tp2939
as(g131
S'pine_knot'
p2940
tp2941
(lp2942
(g135
g2940
tp2943
a(g137
g2940
tp2944
a(g139
g2940
tp2945
as(g2754
S'master'
p2946
tp2947
(lp2948
(g2758
g2946
tp2949
as(g114
S'plank'
p2950
tp2951
(lp2952
(g118
g2950
tp2953
as(g7
g1343
tp2954
(lp2955
(g11
g1343
tp2956
as(g226
S'gargoyle'
p2957
tp2958
(lp2959
(g230
g2957
tp2960
as(g186
g2509
tp2961
(lp2962
(g190
g2509
tp2963
a(g192
g2509
tp2964
as(g242
S'ham_sandwich'
p2965
tp2966
(lp2967
(g238
g2965
tp2968
a(g344
g2965
tp2969
as(g1479
g8
tp2970
(lp2971
(g1482
g8
tp2972
as(g19
S'gladiator'
p2973
tp2974
(lp2975
(g23
g2973
tp2976
a(g25
g2973
tp2977
as(g393
S'spam'
p2978
tp2979
(lp2980
(g389
g2978
tp2981
as(g19
S'wrestler'
p2982
tp2983
(lp2984
(g23
g2982
tp2985
a(g25
g2982
tp2986
as(g7
S'girder'
p2987
tp2988
(lp2989
(g11
g2987
tp2990
as(g19
S'predator'
p2991
tp2992
(lp2993
(g23
g2991
tp2994
a(g25
g2991
tp2995
as(S'immature'
p2996
S'kid'
p2997
tp2998
(lp2999
(S'mature'
p3000
g2997
tp3001
a(S'old'
p3002
g2997
tp3003
a(g84
g2997
tp3004
a(S'fledged'
p3005
g2997
tp3006
as(g624
S'colt'
p3007
tp3008
(lp3009
(g180
g3007
tp3010
as(g1817
S'fight'
p3011
tp3012
(lp3013
(g1821
g3011
tp3014
a(g1823
g3011
tp3015
as(g406
S'courthouse'
p3016
tp3017
(lp3018
(g410
g3016
tp3019
a(g412
g3016
tp3020
a(g414
g3016
tp3021
as(g176
S'meatball'
p3022
tp3023
(lp3024
(g180
g3022
tp3025
a(g182
g3022
tp3026
a(g184
g3022
tp3027
as(g694
S'eunuch'
p3028
tp3029
(lp3030
(g698
g3028
tp3031
as(g624
g1475
tp3032
(lp3033
(g180
g1475
tp3034
as(g678
S'dromedary'
p3035
tp3036
(lp3037
(g682
g3035
tp3038
as(g61
g1746
tp3039
(lp3040
(g65
g1746
tp3041
as(g1431
S'fiddle'
p3042
tp3043
(lp3044
(g1434
g3042
tp3045
as(g19
g2324
tp3046
(lp3047
(g23
g2324
tp3048
a(g25
g2324
tp3049
as(g131
g187
tp3050
(lp3051
(g135
g187
tp3052
a(g137
g187
tp3053
a(g139
g187
tp3054
as(g61
S'asshole'
p3055
tp3056
(lp3057
(g65
g3055
tp3058
as(g244
g850
tp3059
(lp3060
(g248
g850
tp3061
as(g244
g1279
tp3062
(lp3063
(g248
g1279
tp3064
as(g356
g1618
tp3065
(lp3066
(g360
g1618
tp3067
as(g208
g357
tp3068
(lp3069
(g212
g357
tp3070
as(S'addicted'
p3071
S'heroin_addict'
p3072
tp3073
(lp3074
(S'unaddicted'
p3075
g3072
tp3076
as(g7
S'tax_form'
p3077
tp3078
(lp3079
(g11
g3077
tp3080
as(g19
g1252
tp3081
(lp3082
(g23
g1252
tp3083
a(g25
g1252
tp3084
as(g49
S'basketball_hoop'
p3085
tp3086
(lp3087
(g53
g3085
tp3088
a(g55
g3085
tp3089
a(g57
g3085
tp3090
a(g59
g3085
tp3091
as(g682
g2527
tp3092
(lp3093
(g678
g2527
tp3094
as(g220
g227
tp3095
(lp3096
(g224
g227
tp3097
as(g72
g2314
tp3098
(lp3099
(g76
g2314
tp3100
a(g78
g2314
tp3101
as(g186
g336
tp3102
(lp3103
(g190
g336
tp3104
a(g192
g336
tp3105
as(g108
g1591
tp3106
(lp3107
(g112
g1591
tp3108
as(g208
g1597
tp3109
(lp3110
(g212
g1597
tp3111
as(g271
S'telephone_directory'
p3112
tp3113
(lp3114
(g275
g3112
tp3115
as(g2456
g1960
tp3116
(lp3117
(g2460
g1960
tp3118
a(g2462
g1960
tp3119
a(g330
g1960
tp3120
as(g367
S'poet'
p3121
tp3122
(lp3123
(g371
g3121
tp3124
as(g2267
S'mollusk'
p3125
tp3126
(lp3127
(g2271
g3125
tp3128
a(g2273
g3125
tp3129
as(g2760
S'screen_door'
p3130
tp3131
(lp3132
(g2763
g3130
tp3133
as(g2760
g534
tp3134
(lp3135
(g2763
g534
tp3136
as(g406
g868
tp3137
(lp3138
(g410
g868
tp3139
a(g412
g868
tp3140
a(g414
g868
tp3141
as(g624
S'zombie'
p3142
tp3143
(lp3144
(g180
g3142
tp3145
as(g212
S'cement_mixer'
p3146
tp3147
(lp3148
(g208
g3146
tp3149
a(g590
g3146
tp3150
as(g698
g2039
tp3151
(lp3152
(g694
g2039
tp3153
as(g35
S'burgher'
p3154
tp3155
(lp3156
(g39
g3154
tp3157
a(g41
g3154
tp3158
as(g985
g2329
tp3159
(lp3160
(g989
g2329
tp3161
as(g137
S'shipyard'
p3162
tp3163
(lp3164
(g131
g3162
tp3165
a(g452
g3162
tp3166
a(g454
g3162
tp3167
a(g456
g3162
tp3168
a(g458
g3162
tp3169
as(g682
g8
tp3170
(lp3171
(g678
g8
tp3172
as(g1479
g2324
tp3173
(lp3174
(g1482
g2324
tp3175
as(g149
S'plate'
p3176
tp3177
(lp3178
(g25
g3176
tp3179
as(g149
g2509
tp3180
(lp3181
(g25
g2509
tp3182
as(g1007
S'card_catalogue'
p3183
tp3184
(lp3185
(g1011
g3183
tp3186
as(g220
S'seashore'
p3187
tp3188
(lp3189
(g224
g3187
tp3190
as(g367
g250
tp3191
(lp3192
(g371
g250
tp3193
as(g688
S'tripledecker'
p3194
tp3195
(lp3196
(g692
g3194
tp3197
as(g120
S'boulder'
p3198
tp3199
(lp3200
(g124
g3198
tp3201
as(g212
S'anvil'
p3202
tp3203
(lp3204
(g208
g3202
tp3205
a(g590
g3202
tp3206
as(g124
g679
tp3207
(lp3208
(g120
g679
tp3209
as(g544
S'speed_skater'
p3210
tp3211
(lp3212
(g548
g3210
tp3213
a(g550
g3210
tp3214
as(g242
g2509
tp3215
(lp3216
(g238
g2509
tp3217
a(g344
g2509
tp3218
as(g275
S'pillow'
p3219
tp3220
(lp3221
(g271
g3219
tp3222
a(g354
g3219
tp3223
as(g49
S'chimney'
p3224
tp3225
(lp3226
(g53
g3224
tp3227
a(g55
g3224
tp3228
a(g57
g3224
tp3229
a(g59
g3224
tp3230
as(g49
g2880
tp3231
(lp3232
(g53
g2880
tp3233
a(g55
g2880
tp3234
a(g57
g2880
tp3235
a(g59
g2880
tp3236
as(g84
S'grape'
p3237
tp3238
(lp3239
(g87
g3237
tp3240
as(g1517
S'spring'
p3241
tp3242
(lp3243
(g1521
g3241
tp3244
as(g27
g1560
tp3245
(lp3246
(g31
g1560
tp3247
a(g33
g1560
tp3248
as(S'balanced'
p3249
S'tightrope_walker'
p3250
tp3251
(lp3252
(S'unbalanced'
p3253
g3250
tp3254
as(g184
g287
tp3255
(lp3256
(g648
g287
tp3257
a(g650
g287
tp3258
a(g652
g287
tp3259
a(g182
g287
tp3260
a(g176
g287
tp3261
as(g230
S'surgeon'
p3262
tp3263
(lp3264
(g226
g3262
tp3265
a(g236
g3262
tp3266
as(g406
S'train'
p3267
tp3268
(lp3269
(g410
g3267
tp3270
a(g412
g3267
tp3271
a(g414
g3267
tp3272
as(g186
S'coffin'
p3273
tp3274
(lp3275
(g190
g3273
tp3276
a(g192
g3273
tp3277
as(g176
g1518
tp3278
(lp3279
(g180
g1518
tp3280
a(g182
g1518
tp3281
a(g184
g1518
tp3282
as(g72
S'bathing_cap'
p3283
tp3284
(lp3285
(g76
g3283
tp3286
a(g78
g3283
tp3287
as(g137
S'chainsaw'
p3288
tp3289
(lp3290
(g131
g3288
tp3291
a(g452
g3288
tp3292
a(g454
g3288
tp3293
a(g456
g3288
tp3294
a(g458
g3288
tp3295
as(g1457
S'tree_stump'
p3296
tp3297
(lp3298
(g1461
g3296
tp3299
as(g131
S'rivet'
p3300
tp3301
(lp3302
(g135
g3300
tp3303
a(g137
g3300
tp3304
a(g139
g3300
tp3305
as(g511
S'queen'
p3306
tp3307
(lp3308
(g515
g3306
tp3309
a(g517
g3306
tp3310
a(g519
g3306
tp3311
as(g440
S'library'
p3312
tp3313
(lp3314
(g444
g3312
tp3315
a(g446
g3312
tp3316
as(g356
S'hotdog'
p3317
tp3318
(lp3319
(g360
g3317
tp3320
as(g1431
S'fullback'
p3321
tp3322
(lp3323
(g1434
g3321
tp3324
as(g61
g384
tp3325
(lp3326
(g65
g384
tp3327
as(g19
g667
tp3328
(lp3329
(g23
g667
tp3330
a(g25
g667
tp3331
as(g23
S'schoolgirl'
p3332
tp3333
(lp3334
(g19
g3332
tp3335
as(g149
S'mast'
p3336
tp3337
(lp3338
(g25
g3336
tp3339
as(g1197
g1774
tp3340
(lp3341
(g1201
g1774
tp3342
as(g733
S'stump'
p3343
tp3344
(lp3345
(g737
g3343
tp3346
as(g7
S'pole'
p3347
tp3348
(lp3349
(g11
g3347
tp3350
as(g230
g1928
tp3351
(lp3352
(g226
g1928
tp3353
a(g236
g1928
tp3354
as(g271
g1854
tp3355
(lp3356
(g275
g1854
tp3357
as(g114
g3219
tp3358
(lp3359
(g118
g3219
tp3360
as(g367
g80
tp3361
(lp3362
(g371
g80
tp3363
as(g1043
S'soldier'
p3364
tp3365
(lp3366
(g1047
g3364
tp3367
a(g1049
g3364
tp3368
as(g19
g3202
tp3369
(lp3370
(g23
g3202
tp3371
a(g25
g3202
tp3372
as(g67
S'latte'
p3373
tp3374
(lp3375
(g25
g3373
tp3376
as(g230
S'cesspool'
p3377
tp3378
(lp3379
(g226
g3377
tp3380
a(g236
g3377
tp3381
as(g406
S'sieve'
p3382
tp3383
(lp3384
(g410
g3382
tp3385
a(g412
g3382
tp3386
a(g414
g3382
tp3387
as(g61
S'turd'
p3388
tp3389
(lp3390
(g65
g3388
tp3391
as(g137
S'mink_coat'
p3392
tp3393
(lp3394
(g131
g3392
tp3395
a(g452
g3392
tp3396
a(g454
g3392
tp3397
a(g456
g3392
tp3398
a(g458
g3392
tp3399
as(g35
S'panda'
p3400
tp3401
(lp3402
(g39
g3400
tp3403
a(g41
g3400
tp3404
as(g61
S'ogre'
p3405
tp3406
(lp3407
(g65
g3405
tp3408
as(g72
S'dog_collar'
p3409
tp3410
(lp3411
(g76
g3409
tp3412
a(g78
g3409
tp3413
as(g496
S'quill'
p3414
tp3415
(lp3416
(g500
g3414
tp3417
as(g473
S'computer'
p3418
tp3419
(lp3420
(g477
g3418
tp3421
as(g406
g560
tp3422
(lp3423
(g410
g560
tp3424
a(g412
g560
tp3425
a(g414
g560
tp3426
as(g84
S'cucumber'
p3427
tp3428
(lp3429
(g87
g3427
tp3430
as(g1033
S'surgery'
p3431
tp3432
(lp3433
(g1037
g3431
tp3434
as(g53
S'hunchback'
p3435
tp3436
(lp3437
(g49
g3435
tp3438
as(g112
S'tea_ceremony'
p3439
tp3440
(lp3441
(g108
g3439
tp3442
as(g176
g36
tp3443
(lp3444
(g180
g36
tp3445
a(g182
g36
tp3446
a(g184
g36
tp3447
as(g49
g734
tp3448
(lp3449
(g53
g734
tp3450
a(g55
g734
tp3451
a(g57
g734
tp3452
a(g59
g734
tp3453
as(g511
S'citrus'
p3454
tp3455
(lp3456
(g515
g3454
tp3457
a(g517
g3454
tp3458
a(g519
g3454
tp3459
as(g1707
S'plum'
p3460
tp3461
(lp3462
(g1711
g3460
tp3463
as(g49
S'hoop'
p3464
tp3465
(lp3466
(g53
g3464
tp3467
a(g55
g3464
tp3468
a(g57
g3464
tp3469
a(g59
g3464
tp3470
as(g114
g641
tp3471
(lp3472
(g118
g641
tp3473
as(g84
g3460
tp3474
(lp3475
(g87
g3460
tp3476
as(g186
S'graveyard'
p3477
tp3478
(lp3479
(g190
g3477
tp3480
a(g192
g3477
tp3481
as(g5
g930
tp3482
(lp3483
(g1
g930
tp3484
as(g1457
S'referee'
p3485
tp3486
(lp3487
(g1461
g3485
tp3488
as(g27
g2123
tp3489
(lp3490
(g31
g2123
tp3491
a(g33
g2123
tp3492
as(g23
S'infant'
p3493
tp3494
(lp3495
(g19
g3493
tp3496
as(g974
S'sloth'
p3497
tp3498
(lp3499
(g970
g3497
tp3500
as(g220
S'swamp'
p3501
tp3502
(lp3503
(g224
g3501
tp3504
as(g248
S'failure'
p3505
tp3506
(lp3507
(g244
g3505
tp3508
as(S'frozen'
p3509
g1560
tp3510
(lp3511
(S'unfrozen'
p3512
g1560
tp3513
as(g131
S'axe'
p3514
tp3515
(lp3516
(g135
g3514
tp3517
a(g137
g3514
tp3518
a(g139
g3514
tp3519
as(g277
g2893
tp3520
(lp3521
(g281
g2893
tp3522
as(g226
S'pigsty'
p3523
tp3524
(lp3525
(g230
g3523
tp3526
as(g108
S'race_car'
p3527
tp3528
(lp3529
(g112
g3527
tp3530
as(g7
g396
tp3531
(lp3532
(g11
g396
tp3533
as(g176
g2497
tp3534
(lp3535
(g180
g2497
tp3536
a(g182
g2497
tp3537
a(g184
g2497
tp3538
as(g53
g321
tp3539
(lp3540
(g49
g321
tp3541
as(g17
S'prototype'
p3542
tp3543
(lp3544
(g13
g3542
tp3545
a(g1332
g3542
tp3546
as(g367
S'turkey'
p3547
tp3548
(lp3549
(g371
g3547
tp3550
as(g112
g3400
tp3551
(lp3552
(g108
g3400
tp3553
as(g13
S'memory'
p3554
tp3555
(lp3556
(g17
g3554
tp3557
as(g1431
g3364
tp3558
(lp3559
(g1434
g3364
tp3560
as(g202
g3130
tp3561
(lp3562
(g206
g3130
tp3563
as(g224
S'dust_devil'
p3564
tp3565
(lp3566
(g220
g3564
tp3567
a(g765
g3564
tp3568
a(g767
g3564
tp3569
as(g2760
S'spider_web'
p3570
tp3571
(lp3572
(g2763
g3570
tp3573
as(g131
g850
tp3574
(lp3575
(g135
g850
tp3576
a(g137
g850
tp3577
a(g139
g850
tp3578
as(g35
g3112
tp3579
(lp3580
(g39
g3112
tp3581
a(g41
g3112
tp3582
as(g114
g2688
tp3583
(lp3584
(g118
g2688
tp3585
as(g226
S'clock'
p3586
tp3587
(lp3588
(g230
g3586
tp3589
as(g326
S'entree'
p3590
tp3591
(lp3592
(g330
g3590
tp3593
as(g19
S'warrior'
p3594
tp3595
(lp3596
(g23
g3594
tp3597
a(g25
g3594
tp3598
as(g271
g396
tp3599
(lp3600
(g275
g396
tp3601
as(g1897
S'woman'
p3602
tp3603
(lp3604
(g1901
g3602
tp3605
as(g166
S'screw'
p3606
tp3607
(lp3608
(g170
g3606
tp3609
as(g93
g1222
tp3610
(lp3611
(g89
g1222
tp3612
a(g291
g1222
tp3613
a(g293
g1222
tp3614
a(g295
g1222
tp3615
a(g297
g1222
tp3616
a(g299
g1222
tp3617
as(g114
g301
tp3618
(lp3619
(g118
g301
tp3620
as(g1431
S'gym_rat'
p3621
tp3622
(lp3623
(g1434
g3621
tp3624
as(g682
S'alligator'
p3625
tp3626
(lp3627
(g678
g3625
tp3628
as(g1156
g2848
tp3629
(lp3630
(g1159
g2848
tp3631
as(g186
g8
tp3632
(lp3633
(g190
g8
tp3634
a(g192
g8
tp3635
as(g49
g781
tp3636
(lp3637
(g53
g781
tp3638
a(g55
g781
tp3639
a(g57
g781
tp3640
a(g59
g781
tp3641
as(g176
S'knife_edge'
p3642
tp3643
(lp3644
(g180
g3642
tp3645
a(g182
g3642
tp3646
a(g184
g3642
tp3647
as(g414
S'gourd'
p3648
tp3649
(lp3650
(g406
g3648
tp3651
as(g3249
S'cantilever_bridge'
p3652
tp3653
(lp3654
(g3253
g3652
tp3655
as(g2057
S'molotov'
p3656
tp3657
(lp3658
(g2061
g3656
tp3659
as(g511
g357
tp3660
(lp3661
(g515
g357
tp3662
a(g517
g357
tp3663
a(g519
g357
tp3664
as(g2598
S'dog'
p3665
tp3666
(lp3667
(g2601
g3665
tp3668
as(g271
S'electron'
p3669
tp3670
(lp3671
(g275
g3669
tp3672
as(g61
S'confrontation'
p3673
tp3674
(lp3675
(g65
g3673
tp3676
as(g186
g1560
tp3677
(lp3678
(g190
g1560
tp3679
a(g192
g1560
tp3680
as(g208
S'flower_petal'
p3681
tp3682
(lp3683
(g212
g3681
tp3684
as(g367
S'mermaid'
p3685
tp3686
(lp3687
(g371
g3685
tp3688
as(g862
S'dill_pickle'
p3689
tp3690
(lp3691
(g866
g3689
tp3692
as(g244
g1774
tp3693
(lp3694
(g248
g1774
tp3695
as(g208
S'goose_egg'
p3696
tp3697
(lp3698
(g212
g3696
tp3699
as(g19
S'lion'
p3700
tp3701
(lp3702
(g23
g3700
tp3703
a(g25
g3700
tp3704
as(g212
S'mountain_bike'
p3705
tp3706
(lp3707
(g208
g3705
tp3708
a(g590
g3705
tp3709
as(g149
g3347
tp3710
(lp3711
(g25
g3347
tp3712
as(g970
g2337
tp3713
(lp3714
(g974
g2337
tp3715
as(g61
S'spider'
p3716
tp3717
(lp3718
(g65
g3716
tp3719
as(g19
g679
tp3720
(lp3721
(g23
g679
tp3722
a(g25
g679
tp3723
as(g137
g2893
tp3724
(lp3725
(g131
g2893
tp3726
a(g452
g2893
tp3727
a(g454
g2893
tp3728
a(g456
g2893
tp3729
a(g458
g2893
tp3730
as(g176
g3514
tp3731
(lp3732
(g180
g3514
tp3733
a(g182
g3514
tp3734
a(g184
g3514
tp3735
as(g275
S'sponge_cake'
p3736
tp3737
(lp3738
(g271
g3736
tp3739
a(g354
g3736
tp3740
as(g275
g930
tp3741
(lp3742
(g271
g930
tp3743
a(g354
g930
tp3744
as(g275
S'glove'
p3745
tp3746
(lp3747
(g271
g3745
tp3748
a(g354
g3745
tp3749
as(g194
g250
tp3750
(lp3751
(g198
g250
tp3752
a(g200
g250
tp3753
as(g61
S'baboon'
p3754
tp3755
(lp3756
(g65
g3754
tp3757
as(g186
S'tripod'
p3758
tp3759
(lp3760
(g190
g3758
tp3761
a(g192
g3758
tp3762
as(g49
S'phone_cord'
p3763
tp3764
(lp3765
(g53
g3763
tp3766
a(g55
g3763
tp3767
a(g57
g3763
tp3768
a(g59
g3763
tp3769
as(g25
g448
tp3770
(lp3771
(g67
g448
tp3772
as(g1265
S'quilt'
p3773
tp3774
(lp3775
(g1268
g3773
tp3776
as(g230
S'crystal_ball'
p3777
tp3778
(lp3779
(g226
g3777
tp3780
a(g236
g3777
tp3781
as(g19
S'dinosaur'
p3782
tp3783
(lp3784
(g23
g3782
tp3785
a(g25
g3782
tp3786
as(g277
S'spring_chicken'
p3787
tp3788
(lp3789
(g281
g3787
tp3790
as(g1988
g250
tp3791
(lp3792
(g1992
g250
tp3793
as(g131
g1523
tp3794
(lp3795
(g135
g1523
tp3796
a(g137
g1523
tp3797
a(g139
g1523
tp3798
as(g688
S'pumpkin_seed'
p3799
tp3800
(lp3801
(g692
g3799
tp3802
as(S'exhausted'
p3803
g1490
tp3804
(lp3805
(S'unexhausted'
p3806
g1490
tp3807
as(g544
g278
tp3808
(lp3809
(g548
g278
tp3810
a(g550
g278
tp3811
as(g849
S'extract'
p3812
tp3813
(lp3814
(g853
g3812
tp3815
a(g137
g3812
tp3816
a(g856
g3812
tp3817
as(g2267
g880
tp3818
(lp3819
(g2271
g880
tp3820
a(g2273
g880
tp3821
as(g176
S'samurai'
p3822
tp3823
(lp3824
(g180
g3822
tp3825
a(g182
g3822
tp3826
a(g184
g3822
tp3827
as(g2057
S'molotov_cocktail'
p3828
tp3829
(lp3830
(g2061
g3828
tp3831
as(g1043
S'football_game'
p3832
tp3833
(lp3834
(g1047
g3832
tp3835
a(g1049
g3832
tp3836
as(g2456
S'movie'
p3837
tp3838
(lp3839
(g2460
g3837
tp3840
a(g2462
g3837
tp3841
a(g330
g3837
tp3842
as(g19
S'minotaur'
p3843
tp3844
(lp3845
(g23
g3843
tp3846
a(g25
g3843
tp3847
as(g271
S'sledge'
p3848
tp3849
(lp3850
(g275
g3848
tp3851
as(g220
S'monsoon'
p3852
tp3853
(lp3854
(g224
g3852
tp3855
as(g414
g1176
tp3856
(lp3857
(g406
g1176
tp3858
as(g27
g62
tp3859
(lp3860
(g31
g62
tp3861
a(g33
g62
tp3862
as(g624
S'turnip'
p3863
tp3864
(lp3865
(g180
g3863
tp3866
as(S'diffuse'
p3867
S'daydream'
p3868
tp3869
(lp3870
(g131
g3868
tp3871
as(g367
g2621
tp3872
(lp3873
(g371
g2621
tp3874
as(g2754
S'diplomat'
p3875
tp3876
(lp3877
(g2758
g3875
tp3878
as(g2057
S'sparkler'
p3879
tp3880
(lp3881
(g2061
g3879
tp3882
as(g61
g1874
tp3883
(lp3884
(g65
g1874
tp3885
as(g506
S'construction_worker'
p3886
tp3887
(lp3888
(g509
g3886
tp3889
as(g35
S'lentil'
p3890
tp3891
(lp3892
(g39
g3890
tp3893
a(g41
g3890
tp3894
as(g131
g1252
tp3895
(lp3896
(g135
g1252
tp3897
a(g137
g1252
tp3898
a(g139
g1252
tp3899
as(g698
S'rabbit'
p3900
tp3901
(lp3902
(g694
g3900
tp3903
as(g1617
g2111
tp3904
(lp3905
(g1621
g2111
tp3906
as(g112
g2621
tp3907
(lp3908
(g108
g2621
tp3909
as(g19
g1116
tp3910
(lp3911
(g23
g1116
tp3912
a(g25
g1116
tp3913
as(g176
S'dagger'
p3914
tp3915
(lp3916
(g180
g3914
tp3917
a(g182
g3914
tp3918
a(g184
g3914
tp3919
as(g5
S'daffodil'
p3920
tp3921
(lp3922
(g1
g3920
tp3923
as(g367
S'noel_coward'
p3924
tp3925
(lp3926
(g371
g3924
tp3927
as(g176
S'laser_beam'
p3928
tp3929
(lp3930
(g180
g3928
tp3931
a(g182
g3928
tp3932
a(g184
g3928
tp3933
as(g1037
S'sunset'
p3934
tp3935
(lp3936
(g1033
g3934
tp3937
as(g35
g743
tp3938
(lp3939
(g39
g743
tp3940
a(g41
g743
tp3941
as(g271
g3198
tp3942
(lp3943
(g275
g3198
tp3944
as(g49
g1677
tp3945
(lp3946
(g53
g1677
tp3947
a(g55
g1677
tp3948
a(g57
g1677
tp3949
a(g59
g1677
tp3950
as(g271
S'blimp'
p3951
tp3952
(lp3953
(g275
g3951
tp3954
as(g114
g3681
tp3955
(lp3956
(g118
g3681
tp3957
as(g244
S'angel'
p3958
tp3959
(lp3960
(g248
g3958
tp3961
as(g694
g1928
tp3962
(lp3963
(g698
g1928
tp3964
as(g72
S'condom'
p3965
tp3966
(lp3967
(g76
g3965
tp3968
a(g78
g3965
tp3969
as(g244
S'idol'
p3970
tp3971
(lp3972
(g248
g3970
tp3973
as(g176
S'bowie_knife'
p3974
tp3975
(lp3976
(g180
g3974
tp3977
a(g182
g3974
tp3978
a(g184
g3974
tp3979
as(g271
g44
tp3980
(lp3981
(g275
g44
tp3982
as(g124
S'dinner_table'
p3983
tp3984
(lp3985
(g120
g3983
tp3986
as(g166
g1116
tp3987
(lp3988
(g170
g1116
tp3989
as(g19
g187
tp3990
(lp3991
(g23
g187
tp3992
a(g25
g187
tp3993
as(S'adroit'
p3994
S'juggler'
p3995
tp3996
(lp3997
(S'maladroit'
p3998
g3995
tp3999
as(g114
g1189
tp4000
(lp4001
(g118
g1189
tp4002
as(g970
S'chess_match'
p4003
tp4004
(lp4005
(g974
g4003
tp4006
as(g414
S"jacko'lantern"
p4007
tp4008
(lp4009
(g406
g4007
tp4010
as(g114
g44
tp4011
(lp4012
(g118
g44
tp4013
as(g406
S'california_redwood'
p4014
tp4015
(lp4016
(g410
g4014
tp4017
a(g412
g4014
tp4018
a(g414
g4014
tp4019
as(g2760
S'mist'
p4020
tp4021
(lp4022
(g2763
g4020
tp4023
as(g176
S'falcon'
p4024
tp4025
(lp4026
(g180
g4024
tp4027
a(g182
g4024
tp4028
a(g184
g4024
tp4029
as(g208
g2275
tp4030
(lp4031
(g212
g2275
tp4032
as(g25
g3028
tp4033
(lp4034
(g67
g3028
tp4035
as(g473
g2552
tp4036
(lp4037
(g477
g2552
tp4038
as(g242
S'aircraft_carrier'
p4039
tp4040
(lp4041
(g238
g4039
tp4042
a(g344
g4039
tp4043
as(g849
S'perfume'
p4044
tp4045
(lp4046
(g853
g4044
tp4047
a(g137
g4044
tp4048
a(g856
g4044
tp4049
as(g19
S'cedar_tree'
p4050
tp4051
(lp4052
(g23
g4050
tp4053
a(g25
g4050
tp4054
as(g61
S'wart'
p4055
tp4056
(lp4057
(g65
g4055
tp4058
as(g114
g560
tp4059
(lp4060
(g118
g560
tp4061
as(g224
g645
tp4062
(lp4063
(g220
g645
tp4064
a(g765
g645
tp4065
a(g767
g645
tp4066
as(g756
S'briar'
p4067
tp4068
(lp4069
(g759
g4067
tp4070
as(g35
g2183
tp4071
(lp4072
(g39
g2183
tp4073
a(g41
g2183
tp4074
as(g624
g965
tp4075
(lp4076
(g180
g965
tp4077
as(g176
S'thorn'
p4078
tp4079
(lp4080
(g180
g4078
tp4081
a(g182
g4078
tp4082
a(g184
g4078
tp4083
as(g624
S'morgue'
p4084
tp4085
(lp4086
(g180
g4084
tp4087
as(g414
S'shell'
p4088
tp4089
(lp4090
(g406
g4088
tp4091
as(g275
g1542
tp4092
(lp4093
(g271
g1542
tp4094
a(g354
g1542
tp4095
as(g242
S'master_bedroom'
p4096
tp4097
(lp4098
(g238
g4096
tp4099
a(g344
g4096
tp4100
as(g19
S'calf'
p4101
tp4102
(lp4103
(g23
g4101
tp4104
a(g25
g4101
tp4105
as(g2008
g625
tp4106
(lp4107
(g2012
g625
tp4108
as(g114
S'girl_scout'
p4109
tp4110
(lp4111
(g118
g4109
tp4112
as(g1408
S'porn'
p4113
tp4114
(lp4115
(g1412
g4113
tp4116
as(g244
S'ass'
p4117
tp4118
(lp4119
(g248
g4117
tp4120
as(g19
g629
tp4121
(lp4122
(g23
g629
tp4123
a(g25
g629
tp4124
as(g19
g641
tp4125
(lp4126
(g23
g641
tp4127
a(g25
g641
tp4128
as(g186
S'portrait'
p4129
tp4130
(lp4131
(g190
g4129
tp4132
a(g192
g4129
tp4133
as(g19
g2203
tp4134
(lp4135
(g23
g2203
tp4136
a(g25
g2203
tp4137
as(g356
g3493
tp4138
(lp4139
(g360
g3493
tp4140
as(g496
S'steeple'
p4141
tp4142
(lp4143
(g500
g4141
tp4144
as(g176
S'jaguar'
p4145
tp4146
(lp4147
(g180
g4145
tp4148
a(g182
g4145
tp4149
a(g184
g4145
tp4150
as(g263
g327
tp4151
(lp4152
(g267
g327
tp4153
a(g269
g327
tp4154
as(g176
S'stiletto'
p4155
tp4156
(lp4157
(g180
g4155
tp4158
a(g182
g4155
tp4159
a(g184
g4155
tp4160
as(g275
g2275
tp4161
(lp4162
(g271
g2275
tp4163
a(g354
g2275
tp4164
as(g226
S'prostitute'
p4165
tp4166
(lp4167
(g230
g4165
tp4168
as(g72
S'noose'
p4169
tp4170
(lp4171
(g76
g4169
tp4172
a(g78
g4169
tp4173
as(g108
g603
tp4174
(lp4175
(g112
g603
tp4176
as(g624
g2375
tp4177
(lp4178
(g180
g2375
tp4179
as(g1617
S'leader'
p4180
tp4181
(lp4182
(g1621
g4180
tp4183
as(g108
g1284
tp4184
(lp4185
(g112
g1284
tp4186
as(g406
S'ice_cube'
p4187
tp4188
(lp4189
(g410
g4187
tp4190
a(g412
g4187
tp4191
a(g414
g4187
tp4192
as(g2636
S'glider'
p4193
tp4194
(lp4195
(g2640
g4193
tp4196
as(g202
S'password'
p4197
tp4198
(lp4199
(g206
g4197
tp4200
as(g49
g592
tp4201
(lp4202
(g53
g592
tp4203
a(g55
g592
tp4204
a(g57
g592
tp4205
a(g59
g592
tp4206
as(g2636
g2771
tp4207
(lp4208
(g2640
g2771
tp4209
as(g19
g1960
tp4210
(lp4211
(g23
g1960
tp4212
a(g25
g1960
tp4213
as(g120
g960
tp4214
(lp4215
(g124
g960
tp4216
as(g108
S'whippet'
p4217
tp4218
(lp4219
(g112
g4217
tp4220
as(g1043
S'pants_suit'
p4221
tp4222
(lp4223
(g1047
g4221
tp4224
a(g1049
g4221
tp4225
as(g1033
S'tattoo'
p4226
tp4227
(lp4228
(g1037
g4226
tp4229
as(g114
S'knot'
p4230
tp4231
(lp4232
(g118
g4230
tp4233
as(g176
S'knife'
p4234
tp4235
(lp4236
(g180
g4234
tp4237
a(g182
g4234
tp4238
a(g184
g4234
tp4239
as(g2501
S'nose_job'
p4240
tp4241
(lp4242
(g2505
g4240
tp4243
a(g2507
g4240
tp4244
as(g367
S'deer'
p4245
tp4246
(lp4247
(g371
g4245
tp4248
as(g2754
g3262
tp4249
(lp4250
(g2758
g3262
tp4251
as(g5
g534
tp4252
(lp4253
(g1
g534
tp4254
as(g112
S'milk_float'
p4255
tp4256
(lp4257
(g108
g4255
tp4258
as(g242
g468
tp4259
(lp4260
(g238
g468
tp4261
a(g344
g468
tp4262
as(g970
S'terrier'
p4263
tp4264
(lp4265
(g974
g4263
tp4266
as(g271
g560
tp4267
(lp4268
(g275
g560
tp4269
as(g108
S'racing_car'
p4270
tp4271
(lp4272
(g112
g4270
tp4273
as(g688
S'sirloin_steak'
p4274
tp4275
(lp4276
(g692
g4274
tp4277
as(g137
S'cushion'
p4278
tp4279
(lp4280
(g131
g4278
tp4281
a(g452
g4278
tp4282
a(g454
g4278
tp4283
a(g456
g4278
tp4284
a(g458
g4278
tp4285
as(g406
S'tombstone'
p4286
tp4287
(lp4288
(g410
g4286
tp4289
a(g412
g4286
tp4290
a(g414
g4286
tp4291
as(g5
S'mayfly'
p4292
tp4293
(lp4294
(g1
g4292
tp4295
as(g242
g3863
tp4296
(lp4297
(g238
g3863
tp4298
a(g344
g3863
tp4299
as(g2754
S'ninja'
p4300
tp4301
(lp4302
(g2758
g4300
tp4303
as(g7
S'tuning_fork'
p4304
tp4305
(lp4306
(g11
g4304
tp4307
as(g166
g121
tp4308
(lp4309
(g170
g121
tp4310
as(g13
S'scent'
p4311
tp4312
(lp4313
(g17
g4311
tp4314
as(g149
g1198
tp4315
(lp4316
(g25
g1198
tp4317
as(g114
S'twobyfour'
p4318
tp4319
(lp4320
(g118
g4318
tp4321
as(g19
g3267
tp4322
(lp4323
(g23
g3267
tp4324
a(g25
g3267
tp4325
as(g1779
S'kudzu'
p4326
tp4327
(lp4328
(g1783
g4326
tp4329
as(g5
g1578
tp4330
(lp4331
(g1
g1578
tp4332
as(g1457
S'moth'
p4333
tp4334
(lp4335
(g1461
g4333
tp4336
as(g477
g8
tp4337
(lp4338
(g473
g8
tp4339
a(g2591
g8
tp4340
as(g242
S'date_rape'
p4341
tp4342
(lp4343
(g238
g4341
tp4344
a(g344
g4341
tp4345
as(g389
S'christmas_stocking'
p4346
tp4347
(lp4348
(g393
g4346
tp4349
a(g39
g4346
tp4350
as(g208
S'lotus'
p4351
tp4352
(lp4353
(g212
g4351
tp4354
as(g176
g468
tp4355
(lp4356
(g180
g468
tp4357
a(g182
g468
tp4358
a(g184
g468
tp4359
as(g862
S'melanoma'
p4360
tp4361
(lp4362
(g866
g4360
tp4363
as(g2008
S'drunkard'
p4364
tp4365
(lp4366
(g2012
g4364
tp4367
as(g7
g1420
tp4368
(lp4369
(g11
g1420
tp4370
as(g186
g777
tp4371
(lp4372
(g190
g777
tp4373
a(g192
g777
tp4374
as(g13
S'brand'
p4375
tp4376
(lp4377
(g17
g4375
tp4378
as(g698
g1806
tp4379
(lp4380
(g694
g1806
tp4381
as(g678
g2497
tp4382
(lp4383
(g682
g2497
tp4384
as(g271
S'gravestone'
p4385
tp4386
(lp4387
(g275
g4385
tp4388
as(g61
g2502
tp4389
(lp4390
(g65
g2502
tp4391
as(g733
g954
tp4392
(lp4393
(g737
g954
tp4394
as(S'drained'
p4395
S'puppet'
p4396
tp4397
(lp4398
(S'undrained'
p4399
g4396
tp4400
as(g184
S'tree_branch'
p4401
tp4402
(lp4403
(g648
g4401
tp4404
a(g650
g4401
tp4405
a(g652
g4401
tp4406
a(g182
g4401
tp4407
a(g176
g4401
tp4408
as(g412
g1868
tp4409
(lp4410
(g410
g1868
tp4411
a(g406
g1868
tp4412
a(g484
g1868
tp4413
as(g166
g2324
tp4414
(lp4415
(g170
g2324
tp4416
as(g271
S'neutron_star'
p4417
tp4418
(lp4419
(g275
g4417
tp4420
as(g186
S'tomb'
p4421
tp4422
(lp4423
(g190
g4421
tp4424
a(g192
g4421
tp4425
as(g1431
S'track_star'
p4426
tp4427
(lp4428
(g1434
g4426
tp4429
as(g2267
S'shrimp'
p4430
tp4431
(lp4432
(g2271
g4430
tp4433
a(g2273
g4430
tp4434
as(g114
g311
tp4435
(lp4436
(g118
g311
tp4437
as(g35
S'candle'
p4438
tp4439
(lp4440
(g39
g4438
tp4441
a(g41
g4438
tp4442
as(g112
g880
tp4443
(lp4444
(g108
g880
tp4445
as(g53
g2675
tp4446
(lp4447
(g49
g2675
tp4448
as(g114
S'cheerleader'
p4449
tp4450
(lp4451
(g118
g4449
tp4452
as(g19
S'soda_cracker'
p4453
tp4454
(lp4455
(g23
g4453
tp4456
a(g25
g4453
tp4457
as(g84
S'lover'
p4458
tp4459
(lp4460
(g87
g4458
tp4461
as(g440
g2375
tp4462
(lp4463
(g444
g2375
tp4464
a(g446
g2375
tp4465
as(g212
S'hummer'
p4466
tp4467
(lp4468
(g208
g4466
tp4469
a(g590
g4466
tp4470
as(g141
S'gang'
p4471
tp4472
(lp4473
(g145
g4471
tp4474
a(g147
g4471
tp4475
as(g108
g2203
tp4476
(lp4477
(g112
g2203
tp4478
as(g1479
S'life_raft'
p4479
tp4480
(lp4481
(g1482
g4479
tp4482
as(g141
S'scrubbing_brush'
p4483
tp4484
(lp4485
(g145
g4483
tp4486
a(g147
g4483
tp4487
as(g19
S'hero'
p4488
tp4489
(lp4490
(g23
g4488
tp4491
a(g25
g4488
tp4492
as(g112
g2333
tp4493
(lp4494
(g108
g2333
tp4495
as(g84
S'kumquat'
p4496
tp4497
(lp4498
(g87
g4496
tp4499
as(g1408
S'baseball_game'
p4500
tp4501
(lp4502
(g1412
g4500
tp4503
as(g19
g3198
tp4504
(lp4505
(g23
g3198
tp4506
a(g25
g3198
tp4507
as(g224
S'sauvignon_blanc'
p4508
tp4509
(lp4510
(g220
g4508
tp4511
a(g765
g4508
tp4512
a(g767
g4508
tp4513
as(g3509
S'mask'
p4514
tp4515
(lp4516
(g3512
g4514
tp4517
as(g214
S'cigarette'
p4518
tp4519
(lp4520
(g218
g4518
tp4521
as(g1156
g1754
tp4522
(lp4523
(g1159
g1754
tp4524
as(g35
g1106
tp4525
(lp4526
(g39
g1106
tp4527
a(g41
g1106
tp4528
as(g19
g3405
tp4529
(lp4530
(g23
g3405
tp4531
a(g25
g3405
tp4532
as(g186
g4351
tp4533
(lp4534
(g190
g4351
tp4535
a(g192
g4351
tp4536
as(g263
S'specter'
p4537
tp4538
(lp4539
(g267
g4537
tp4540
a(g269
g4537
tp4541
as(g149
g1056
tp4542
(lp4543
(g25
g1056
tp4544
as(g1817
S'fist'
p4545
tp4546
(lp4547
(g1821
g4545
tp4548
a(g1823
g4545
tp4549
as(g698
S'garden'
p4550
tp4551
(lp4552
(g694
g4550
tp4553
as(g367
S'lame_duck'
p4554
tp4555
(lp4556
(g371
g4554
tp4557
as(g149
S'surfboard'
p4558
tp4559
(lp4560
(g25
g4558
tp4561
as(g84
S'berry'
p4562
tp4563
(lp4564
(g87
g4562
tp4565
as(g440
S'vault'
p4566
tp4567
(lp4568
(g444
g4566
tp4569
a(g446
g4566
tp4570
as(g750
S'cossack'
p4571
tp4572
(lp4573
(g754
g4571
tp4574
as(g496
S'knitting_needle'
p4575
tp4576
(lp4577
(g500
g4575
tp4578
as(g141
g8
tp4579
(lp4580
(g145
g8
tp4581
a(g147
g8
tp4582
as(g19
S'beast'
p4583
tp4584
(lp4585
(g23
g4583
tp4586
a(g25
g4583
tp4587
as(g648
S'swan'
p4588
tp4589
(lp4590
(g184
g4588
tp4591
a(g1169
g4588
tp4592
a(g1171
g4588
tp4593
as(g102
S'core_dump'
p4594
tp4595
(lp4596
(g106
g4594
tp4597
as(g61
g4583
tp4598
(lp4599
(g65
g4583
tp4600
as(g114
g2839
tp4601
(lp4602
(g118
g2839
tp4603
as(g49
S'tire'
p4604
tp4605
(lp4606
(g53
g4604
tp4607
a(g55
g4604
tp4608
a(g57
g4604
tp4609
a(g59
g4604
tp4610
as(g112
S'caterpillar'
p4611
tp4612
(lp4613
(g108
g4611
tp4614
as(g406
g2950
tp4615
(lp4616
(g410
g2950
tp4617
a(g412
g2950
tp4618
a(g414
g2950
tp4619
as(g1007
S'crystal'
p4620
tp4621
(lp4622
(g1011
g4620
tp4623
as(g7
S'bookcase'
p4624
tp4625
(lp4626
(g11
g4624
tp4627
as(g35
S'phone_book'
p4628
tp4629
(lp4630
(g39
g4628
tp4631
a(g41
g4628
tp4632
as(g220
g2497
tp4633
(lp4634
(g224
g2497
tp4635
as(g624
S'fox'
p4636
tp4637
(lp4638
(g180
g4636
tp4639
as(g35
S'suet_pudding'
p4640
tp4641
(lp4642
(g39
g4640
tp4643
a(g41
g4640
tp4644
as(g53
S'corkscrew'
p4645
tp4646
(lp4647
(g49
g4645
tp4648
as(g108
S'microwave_oven'
p4649
tp4650
(lp4651
(g112
g4649
tp4652
as(g2636
g1097
tp4653
(lp4654
(g2640
g1097
tp4655
as(g849
g2711
tp4656
(lp4657
(g853
g2711
tp4658
a(g137
g2711
tp4659
a(g856
g2711
tp4660
as(g149
g1774
tp4661
(lp4662
(g25
g1774
tp4663
as(g114
g2092
tp4664
(lp4665
(g118
g2092
tp4666
as(g406
S'iceberg'
p4667
tp4668
(lp4669
(g410
g4667
tp4670
a(g412
g4667
tp4671
a(g414
g4667
tp4672
as(g356
g1013
tp4673
(lp4674
(g360
g1013
tp4675
as(g406
S'slammer'
p4676
tp4677
(lp4678
(g410
g4676
tp4679
a(g412
g4676
tp4680
a(g414
g4676
tp4681
as(g23
S'slacker'
p4682
tp4683
(lp4684
(g19
g4682
tp4685
as(g371
S'straitjacket'
p4686
tp4687
(lp4688
(g367
g4686
tp4689
as(g114
S'hamster'
p4690
tp4691
(lp4692
(g118
g4690
tp4693
as(g750
g2092
tp4694
(lp4695
(g754
g2092
tp4696
as(g176
g3414
tp4697
(lp4698
(g180
g3414
tp4699
a(g182
g3414
tp4700
a(g184
g3414
tp4701
as(g511
S'geisha_girl'
p4702
tp4703
(lp4704
(g515
g4702
tp4705
a(g517
g4702
tp4706
a(g519
g4702
tp4707
as(g440
S'deposit_account'
p4708
tp4709
(lp4710
(g444
g4708
tp4711
a(g446
g4708
tp4712
as(g624
S'salsa'
p4713
tp4714
(lp4715
(g180
g4713
tp4716
as(g208
g534
tp4717
(lp4718
(g212
g534
tp4719
as(g406
S'rookie'
p4720
tp4721
(lp4722
(g410
g4720
tp4723
a(g412
g4720
tp4724
a(g414
g4720
tp4725
as(g220
S'octopus'
p4726
tp4727
(lp4728
(g224
g4726
tp4729
as(g1007
S'quadrille'
p4730
tp4731
(lp4732
(g1011
g4730
tp4733
as(g149
S'flagpole'
p4734
tp4735
(lp4736
(g25
g4734
tp4737
as(g114
g707
tp4738
(lp4739
(g118
g707
tp4740
as(g61
S'abortion'
p4741
tp4742
(lp4743
(g65
g4741
tp4744
as(g3867
g3928
tp4745
(lp4746
(g131
g3928
tp4747
as(g2456
g1984
tp4748
(lp4749
(g2460
g1984
tp4750
a(g2462
g1984
tp4751
a(g330
g1984
tp4752
as(g149
g1420
tp4753
(lp4754
(g25
g1420
tp4755
as(g356
S'guppy'
p4756
tp4757
(lp4758
(g360
g4756
tp4759
as(g326
g2552
tp4760
(lp4761
(g330
g2552
tp4762
as(g756
g2637
tp4763
(lp4764
(g759
g2637
tp4765
as(g414
g264
tp4766
(lp4767
(g406
g264
tp4768
as(g393
g3648
tp4769
(lp4770
(g389
g3648
tp4771
as(g371
S'teenager'
p4772
tp4773
(lp4774
(g367
g4772
tp4775
as(g974
S'steamroller'
p4776
tp4777
(lp4778
(g970
g4776
tp4779
as(g176
S'butter'
p4780
tp4781
(lp4782
(g180
g4780
tp4783
a(g182
g4780
tp4784
a(g184
g4780
tp4785
as(g367
g667
tp4786
(lp4787
(g371
g667
tp4788
as(g1007
S'crystal_lattice'
p4789
tp4790
(lp4791
(g1011
g4789
tp4792
as(g19
g336
tp4793
(lp4794
(g23
g336
tp4795
a(g25
g336
tp4796
as(g220
S'puddle'
p4797
tp4798
(lp4799
(g224
g4797
tp4800
as(g202
S'bunker'
p4801
tp4802
(lp4803
(g206
g4801
tp4804
as(g176
S'razorblade'
p4805
tp4806
(lp4807
(g180
g4805
tp4808
a(g182
g4805
tp4809
a(g184
g4805
tp4810
as(g3803
S'shipwreck_survivor'
p4811
tp4812
(lp4813
(g3806
g4811
tp4814
as(g230
S'butcher'
p4815
tp4816
(lp4817
(g226
g4815
tp4818
a(g236
g4815
tp4819
as(g194
S'elastomer'
p4820
tp4821
(lp4822
(g198
g4820
tp4823
a(g200
g4820
tp4824
as(g473
S'jigsaw_puzzle'
p4825
tp4826
(lp4827
(g477
g4825
tp4828
as(g61
S'crab'
p4829
tp4830
(lp4831
(g65
g4829
tp4832
as(g176
g521
tp4833
(lp4834
(g180
g521
tp4835
a(g182
g521
tp4836
a(g184
g521
tp4837
as(g230
S'steam_whistle'
p4838
tp4839
(lp4840
(g226
g4838
tp4841
a(g236
g4838
tp4842
as(g35
S'toothpick'
p4843
tp4844
(lp4845
(g39
g4843
tp4846
a(g41
g4843
tp4847
as(g124
S'car'
p4848
tp4849
(lp4850
(g120
g4848
tp4851
as(g624
S'jackson_pollock'
p4852
tp4853
(lp4854
(g180
g4852
tp4855
as(g208
g1226
tp4856
(lp4857
(g212
g1226
tp4858
as(g35
g384
tp4859
(lp4860
(g39
g384
tp4861
a(g41
g384
tp4862
as(g2996
S'schoolboy'
p4863
tp4864
(lp4865
(g3000
g4863
tp4866
a(g3002
g4863
tp4867
a(g84
g4863
tp4868
a(g3005
g4863
tp4869
as(g114
S'automobile_tire'
p4870
tp4871
(lp4872
(g118
g4870
tp4873
as(g271
g1334
tp4874
(lp4875
(g275
g1334
tp4876
as(g19
g3142
tp4877
(lp4878
(g23
g3142
tp4879
a(g25
g3142
tp4880
as(g166
g872
tp4881
(lp4882
(g170
g872
tp4883
as(g53
S'boa_constrictor'
p4884
tp4885
(lp4886
(g49
g4884
tp4887
as(g544
g2982
tp4888
(lp4889
(g548
g2982
tp4890
a(g550
g2982
tp4891
as(g406
S'launching_pad'
p4892
tp4893
(lp4894
(g410
g4892
tp4895
a(g412
g4892
tp4896
a(g414
g4892
tp4897
as(g112
S'photon'
p4898
tp4899
(lp4900
(g108
g4898
tp4901
as(g108
S'polecat'
p4902
tp4903
(lp4904
(g112
g4902
tp4905
as(g1817
g2207
tp4906
(lp4907
(g1821
g2207
tp4908
a(g1823
g2207
tp4909
as(g383
S'bucket'
p4910
tp4911
(lp4912
(g387
g4910
tp4913
as(g224
S'crust'
p4914
tp4915
(lp4916
(g220
g4914
tp4917
a(g765
g4914
tp4918
a(g767
g4914
tp4919
as(g67
g20
tp4920
(lp4921
(g25
g20
tp4922
as(g406
S'wall'
p4923
tp4924
(lp4925
(g410
g4923
tp4926
a(g412
g4923
tp4927
a(g414
g4923
tp4928
as(g440
S'placebo'
p4929
tp4930
(lp4931
(g444
g4929
tp4932
a(g446
g4929
tp4933
as(g180
S'hoe'
p4934
tp4935
(lp4936
(g624
g4934
tp4937
a(g809
g4934
tp4938
a(g176
g4934
tp4939
as(g194
g916
tp4940
(lp4941
(g198
g916
tp4942
a(g200
g916
tp4943
as(g496
S'parable'
p4944
tp4945
(lp4946
(g500
g4944
tp4947
as(g2760
S'paper_towel'
p4948
tp4949
(lp4950
(g2763
g4948
tp4951
as(g2155
S'prune'
p4952
tp4953
(lp4954
(g2159
g4952
tp4955
a(g2161
g4952
tp4956
as(g27
S'raconteur'
p4957
tp4958
(lp4959
(g31
g4957
tp4960
a(g33
g4957
tp4961
as(g2456
S'video_game'
p4962
tp4963
(lp4964
(g2460
g4962
tp4965
a(g2462
g4962
tp4966
a(g330
g4962
tp4967
as(g49
S'expressway'
p4968
tp4969
(lp4970
(g53
g4968
tp4971
a(g55
g4968
tp4972
a(g57
g4968
tp4973
a(g59
g4968
tp4974
as(g35
S'sausage'
p4975
tp4976
(lp4977
(g39
g4975
tp4978
a(g41
g4975
tp4979
as(g3509
g8
tp4980
(lp4981
(g3512
g8
tp4982
as(g299
g2293
tp4983
(lp4984
(g93
g2293
tp4985
as(g19
S'athlete'
p4986
tp4987
(lp4988
(g23
g4986
tp4989
a(g25
g4986
tp4990
as(g624
g1560
tp4991
(lp4992
(g180
g1560
tp4993
as(g49
g1898
tp4994
(lp4995
(g53
g1898
tp4996
a(g55
g1898
tp4997
a(g57
g1898
tp4998
a(g59
g1898
tp4999
as(g108
S'bullet_train'
p5000
tp5001
(lp5002
(g112
g5000
tp5003
as(g114
S'hacksaw'
p5004
tp5005
(lp5006
(g118
g5004
tp5007
as(g194
S'printer_cable'
p5008
tp5009
(lp5010
(g198
g5008
tp5011
a(g200
g5008
tp5012
as(g131
S'eggshell'
p5013
tp5014
(lp5015
(g135
g5013
tp5016
a(g137
g5013
tp5017
a(g139
g5013
tp5018
as(g1037
g2771
tp5019
(lp5020
(g1033
g2771
tp5021
as(g176
S'owl'
p5022
tp5023
(lp5024
(g180
g5022
tp5025
a(g182
g5022
tp5026
a(g184
g5022
tp5027
as(g1
S'metal_bar'
p5028
tp5029
(lp5030
(g5
g5028
tp5031
as(g1707
S'tomato'
p5032
tp5033
(lp5034
(g1711
g5032
tp5035
as(g1007
S'labyrinth'
p5036
tp5037
(lp5038
(g1011
g5036
tp5039
as(g149
g2950
tp5040
(lp5041
(g25
g2950
tp5042
as(g114
g5032
tp5043
(lp5044
(g118
g5032
tp5045
as(g2057
S'sprinter'
p5046
tp5047
(lp5048
(g2061
g5046
tp5049
as(g624
S'cricket'
p5050
tp5051
(lp5052
(g180
g5050
tp5053
as(g208
g2552
tp5054
(lp5055
(g212
g2552
tp5056
as(g19
g1210
tp5057
(lp5058
(g23
g1210
tp5059
a(g25
g1210
tp5060
as(g406
S'linebacker'
p5061
tp5062
(lp5063
(g410
g5061
tp5064
a(g412
g5061
tp5065
a(g414
g5061
tp5066
as(g242
S'corvette'
p5067
tp5068
(lp5069
(g238
g5067
tp5070
a(g344
g5067
tp5071
as(g511
S'lily'
p5072
tp5073
(lp5074
(g515
g5072
tp5075
a(g517
g5072
tp5076
a(g519
g5072
tp5077
as(g406
S'battering_ram'
p5078
tp5079
(lp5080
(g410
g5078
tp5081
a(g412
g5078
tp5082
a(g414
g5078
tp5083
as(g137
S'cymbal'
p5084
tp5085
(lp5086
(g131
g5084
tp5087
a(g452
g5084
tp5088
a(g454
g5084
tp5089
a(g456
g5084
tp5090
a(g458
g5084
tp5091
as(g131
S'brickbat'
p5092
tp5093
(lp5094
(g135
g5092
tp5095
a(g137
g5092
tp5096
a(g139
g5092
tp5097
as(g176
S"queen's_counsel"
p5098
tp5099
(lp5100
(g180
g5098
tp5101
a(g182
g5098
tp5102
a(g184
g5098
tp5103
as(g72
g4545
tp5104
(lp5105
(g76
g4545
tp5106
a(g78
g4545
tp5107
as(g120
g1774
tp5108
(lp5109
(g124
g1774
tp5110
as(g271
g80
tp5111
(lp5112
(g275
g80
tp5113
as(g496
S'pikestaff'
p5114
tp5115
(lp5116
(g500
g5114
tp5117
as(g112
g4667
tp5118
(lp5119
(g108
g4667
tp5120
as(g733
g90
tp5121
(lp5122
(g737
g90
tp5123
as(g166
g4466
tp5124
(lp5125
(g170
g4466
tp5126
as(g27
g2788
tp5127
(lp5128
(g31
g2788
tp5129
a(g33
g2788
tp5130
as(g496
g1701
tp5131
(lp5132
(g500
g1701
tp5133
as(g367
g4300
tp5134
(lp5135
(g371
g4300
tp5136
as(g31
g3477
tp5137
(lp5138
(g27
g3477
tp5139
a(g1060
g3477
tp5140
as(g202
S'jail'
p5141
tp5142
(lp5143
(g206
g5141
tp5144
as(S'cowardly'
p5145
S'jackal'
p5146
tp5147
(lp5148
(S'brave'
p5149
g5146
tp5150
as(g149
S'coat_hanger'
p5151
tp5152
(lp5153
(g25
g5151
tp5154
as(g1156
S'lamprey'
p5155
tp5156
(lp5157
(g1159
g5155
tp5158
as(g1408
S'norman_rockwell'
p5159
tp5160
(lp5161
(g1412
g5159
tp5162
as(g124
g3198
tp5163
(lp5164
(g120
g3198
tp5165
as(g7
S'chessboard'
p5166
tp5167
(lp5168
(g11
g5166
tp5169
as(g108
g2658
tp5170
(lp5171
(g112
g2658
tp5172
as(g440
S'drug'
p5173
tp5174
(lp5175
(g444
g5173
tp5176
a(g446
g5173
tp5177
as(g456
S'harlot'
p5178
tp5179
(lp5180
(g1148
g5178
tp5181
a(g137
g5178
tp5182
as(g226
S'greaser'
p5183
tp5184
(lp5185
(g230
g5183
tp5186
as(g7
g1774
tp5187
(lp5188
(g11
g1774
tp5189
as(g1623
g3665
tp5190
(lp5191
(g1626
g3665
tp5192
as(g131
g5078
tp5193
(lp5194
(g135
g5078
tp5195
a(g137
g5078
tp5196
a(g139
g5078
tp5197
as(g112
S'hippo'
p5198
tp5199
(lp5200
(g108
g5198
tp5201
as(g19
g2333
tp5202
(lp5203
(g23
g2333
tp5204
a(g25
g2333
tp5205
as(g53
S'question_mark'
p5206
tp5207
(lp5208
(g49
g5206
tp5209
as(g35
g1518
tp5210
(lp5211
(g39
g1518
tp5212
a(g41
g1518
tp5213
as(g176
S'pencil'
p5214
tp5215
(lp5216
(g180
g5214
tp5217
a(g182
g5214
tp5218
a(g184
g5214
tp5219
as(g275
S'leaf'
p5220
tp5221
(lp5222
(g271
g5220
tp5223
a(g354
g5220
tp5224
as(g242
S'plumber'
p5225
tp5226
(lp5227
(g238
g5225
tp5228
a(g344
g5225
tp5229
as(g184
g1652
tp5230
(lp5231
(g648
g1652
tp5232
a(g650
g1652
tp5233
a(g652
g1652
tp5234
a(g182
g1652
tp5235
a(g176
g1652
tp5236
as(g682
S'moose'
p5237
tp5238
(lp5239
(g678
g5237
tp5240
as(g49
g1701
tp5241
(lp5242
(g53
g1701
tp5243
a(g55
g1701
tp5244
a(g57
g1701
tp5245
a(g59
g1701
tp5246
as(g271
S'tractor_trailer'
p5247
tp5248
(lp5249
(g275
g5247
tp5250
as(g2754
g396
tp5251
(lp5252
(g2758
g396
tp5253
as(g72
g960
tp5254
(lp5255
(g76
g960
tp5256
a(g78
g960
tp5257
as(g383
g254
tp5258
(lp5259
(g387
g254
tp5260
as(g271
S'cannonball'
p5261
tp5262
(lp5263
(g275
g5261
tp5264
as(g108
S'washcloth'
p5265
tp5266
(lp5267
(g112
g5265
tp5268
as(g13
g2771
tp5269
(lp5270
(g17
g2771
tp5271
as(g149
S'mohawk'
p5272
tp5273
(lp5274
(g25
g5272
tp5275
as(g108
g1652
tp5276
(lp5277
(g112
g1652
tp5278
as(g2901
S'bed'
p5279
tp5280
(lp5281
(g2905
g5279
tp5282
as(g208
S'jeweler'
p5283
tp5284
(lp5285
(g212
g5283
tp5286
as(g367
g641
tp5287
(lp5288
(g371
g641
tp5289
as(g35
g884
tp5290
(lp5291
(g39
g884
tp5292
a(g41
g884
tp5293
as(g13
g327
tp5294
(lp5295
(g17
g327
tp5296
as(g194
g1774
tp5297
(lp5298
(g198
g1774
tp5299
a(g200
g1774
tp5300
as(g120
S'building'
p5301
tp5302
(lp5303
(g124
g5301
tp5304
as(g1479
S'cobweb'
p5305
tp5306
(lp5307
(g1482
g5305
tp5308
as(g31
g3782
tp5309
(lp5310
(g27
g3782
tp5311
a(g1060
g3782
tp5312
as(g2901
S'toothbrush'
p5313
tp5314
(lp5315
(g2905
g5313
tp5316
as(g176
S'chisel'
p5317
tp5318
(lp5319
(g180
g5317
tp5320
a(g182
g5317
tp5321
a(g184
g5317
tp5322
as(g2636
g350
tp5323
(lp5324
(g2640
g350
tp5325
as(g5145
g751
tp5326
(lp5327
(g5149
g751
tp5328
as(g31
S'heroin_addiction'
p5329
tp5330
(lp5331
(g27
g5329
tp5332
a(g1060
g5329
tp5333
as(g624
g2028
tp5334
(lp5335
(g180
g2028
tp5336
as(g61
g695
tp5337
(lp5338
(g65
g695
tp5339
as(g1431
S'footballer'
p5340
tp5341
(lp5342
(g1434
g5340
tp5343
as(g166
S'saltine'
p5344
tp5345
(lp5346
(g170
g5344
tp5347
as(g414
S'bell'
p5348
tp5349
(lp5350
(g406
g5348
tp5351
as(g1431
S'marathoner'
p5352
tp5353
(lp5354
(g1434
g5352
tp5355
as(g23
g1324
tp5356
(lp5357
(g19
g1324
tp5358
as(g511
S'daisy'
p5359
tp5360
(lp5361
(g515
g5359
tp5362
a(g517
g5359
tp5363
a(g519
g5359
tp5364
as(g367
g3007
tp5365
(lp5366
(g371
g3007
tp5367
as(g27
S'organism'
p5368
tp5369
(lp5370
(g31
g5368
tp5371
a(g33
g5368
tp5372
as(g224
g1874
tp5373
(lp5374
(g220
g1874
tp5375
a(g765
g1874
tp5376
a(g767
g1874
tp5377
as(g114
g448
tp5378
(lp5379
(g118
g448
tp5380
as(S'dilute'
p5381
S'solution'
p5382
tp5383
(lp5384
(S'undiluted'
p5385
g5382
tp5386
as(g108
S'prairie_fire'
p5387
tp5388
(lp5389
(g112
g5387
tp5390
as(g176
S'dog_turd'
p5391
tp5392
(lp5393
(g180
g5391
tp5394
a(g182
g5391
tp5395
a(g184
g5391
tp5396
as(g208
g4333
tp5397
(lp5398
(g212
g4333
tp5399
as(g93
g3497
tp5400
(lp5401
(g89
g3497
tp5402
a(g291
g3497
tp5403
a(g293
g3497
tp5404
a(g295
g3497
tp5405
a(g297
g3497
tp5406
a(g299
g3497
tp5407
as(g275
S'windbreaker'
p5408
tp5409
(lp5410
(g271
g5408
tp5411
a(g354
g5408
tp5412
as(g271
S'engine'
p5413
tp5414
(lp5415
(g275
g5413
tp5416
as(g149
g734
tp5417
(lp5418
(g25
g734
tp5419
as(g1197
S'chair'
p5420
tp5421
(lp5422
(g1201
g5420
tp5423
as(g414
g2637
tp5424
(lp5425
(g406
g2637
tp5426
as(g688
g1141
tp5427
(lp5428
(g692
g1141
tp5429
as(S'breathless'
p5430
g1490
tp5431
(lp5432
(S'breathing'
p5433
g1490
tp5434
as(g1197
g4088
tp5435
(lp5436
(g1201
g4088
tp5437
as(g23
S'flower'
p5438
tp5439
(lp5440
(g19
g5438
tp5441
as(g1479
g3072
tp5442
(lp5443
(g1482
g3072
tp5444
as(S'gradual'
p5445
g1218
tp5446
(lp5447
(S'sudden'
p5448
g1218
tp5449
a(S'steep'
p5450
g1218
tp5451
as(g496
g4155
tp5452
(lp5453
(g500
g4155
tp5454
as(g2057
g2626
tp5455
(lp5456
(g2061
g2626
tp5457
as(g214
g68
tp5458
(lp5459
(g218
g68
tp5460
as(g131
g2350
tp5461
(lp5462
(g135
g2350
tp5463
a(g137
g2350
tp5464
a(g139
g2350
tp5465
as(g756
S'hockey_puck'
p5466
tp5467
(lp5468
(g759
g5466
tp5469
as(g406
g4566
tp5470
(lp5471
(g410
g4566
tp5472
a(g412
g4566
tp5473
a(g414
g4566
tp5474
as(g367
S'charlie_parker'
p5475
tp5476
(lp5477
(g371
g5475
tp5478
as(g198
S'motherinlaw'
p5479
tp5480
(lp5481
(g194
g5479
tp5482
a(g170
g5479
tp5483
as(S'unitary'
p5484
S'choir'
p5485
tp5486
(lp5487
(S'federal'
p5488
g5485
tp5489
as(g194
g2076
tp5490
(lp5491
(g198
g2076
tp5492
a(g200
g2076
tp5493
as(g27
S'bacteria'
p5494
tp5495
(lp5496
(g31
g5494
tp5497
a(g33
g5494
tp5498
as(g943
S'model_t'
p5499
tp5500
(lp5501
(g947
g5499
tp5502
as(g2057
S'bomb'
p5503
tp5504
(lp5505
(g2061
g5503
tp5506
as(g511
S'dew'
p5507
tp5508
(lp5509
(g515
g5507
tp5510
a(g517
g5507
tp5511
a(g519
g5507
tp5512
as(g1431
S'greyhound'
p5513
tp5514
(lp5515
(g1434
g5513
tp5516
as(g224
S'martini'
p5517
tp5518
(lp5519
(g220
g5517
tp5520
a(g765
g5517
tp5521
a(g767
g5517
tp5522
as(g271
g1306
tp5523
(lp5524
(g275
g1306
tp5525
as(g176
S'hatchet'
p5526
tp5527
(lp5528
(g180
g5526
tp5529
a(g182
g5526
tp5530
a(g184
g5526
tp5531
as(g624
S'fish_stick'
p5532
tp5533
(lp5534
(g180
g5532
tp5535
as(g367
g3782
tp5536
(lp5537
(g371
g3782
tp5538
as(g108
S'hornet'
p5539
tp5540
(lp5541
(g112
g5539
tp5542
as(g1479
g4843
tp5543
(lp5544
(g1482
g4843
tp5545
as(g473
S'drinking_glass'
p5546
tp5547
(lp5548
(g477
g5546
tp5549
as(g496
g5214
tp5550
(lp5551
(g500
g5214
tp5552
as(g406
S'bench_vise'
p5553
tp5554
(lp5555
(g410
g5553
tp5556
a(g412
g5553
tp5557
a(g414
g5553
tp5558
as(g208
S'seedling'
p5559
tp5560
(lp5561
(g212
g5559
tp5562
as(g108
g4923
tp5563
(lp5564
(g112
g4923
tp5565
as(g1891
S'hydrangea'
p5566
tp5567
(lp5568
(g1895
g5566
tp5569
as(g31
g1560
tp5570
(lp5571
(g27
g1560
tp5572
a(g1060
g1560
tp5573
as(g23
g3570
tp5574
(lp5575
(g19
g3570
tp5576
as(g13
S'thought'
p5577
tp5578
(lp5579
(g17
g5577
tp5580
as(g19
g2711
tp5581
(lp5582
(g23
g2711
tp5583
a(g25
g2711
tp5584
as(g299
g777
tp5585
(lp5586
(g93
g777
tp5587
as(g149
S'coil_spring'
p5588
tp5589
(lp5590
(g25
g5588
tp5591
as(g149
S'toy_soldier'
p5592
tp5593
(lp5594
(g25
g5592
tp5595
as(g114
S'nut'
p5596
tp5597
(lp5598
(g118
g5596
tp5599
as(g93
S'brain'
p5600
tp5601
(lp5602
(g89
g5600
tp5603
a(g291
g5600
tp5604
a(g293
g5600
tp5605
a(g295
g5600
tp5606
a(g297
g5600
tp5607
a(g299
g5600
tp5608
as(g176
g1868
tp5609
(lp5610
(g180
g1868
tp5611
a(g182
g1868
tp5612
a(g184
g1868
tp5613
as(g176
S'electron_microscope'
p5614
tp5615
(lp5616
(g180
g5614
tp5617
a(g182
g5614
tp5618
a(g184
g5614
tp5619
as(g698
S'compost_pile'
p5620
tp5621
(lp5622
(g694
g5620
tp5623
as(g108
S'jetliner'
p5624
tp5625
(lp5626
(g112
g5624
tp5627
as(g5145
S'coyote'
p5628
tp5629
(lp5630
(g5149
g5628
tp5631
as(g3249
S'gyroscope'
p5632
tp5633
(lp5634
(g3253
g5632
tp5635
as(g114
S'root'
p5636
tp5637
(lp5638
(g118
g5636
tp5639
as(g271
g3373
tp5640
(lp5641
(g275
g3373
tp5642
as(g242
S'sax'
p5643
tp5644
(lp5645
(g238
g5643
tp5646
a(g344
g5643
tp5647
as(g277
g1560
tp5648
(lp5649
(g281
g1560
tp5650
as(g112
g2771
tp5651
(lp5652
(g108
g2771
tp5653
as(g176
S'switchblade'
p5654
tp5655
(lp5656
(g180
g5654
tp5657
a(g182
g5654
tp5658
a(g184
g5654
tp5659
as(g3249
S'pyramid'
p5660
tp5661
(lp5662
(g3253
g5660
tp5663
as(g176
S'pocketknife'
p5664
tp5665
(lp5666
(g180
g5664
tp5667
a(g182
g5664
tp5668
a(g184
g5664
tp5669
as(g72
g1189
tp5670
(lp5671
(g76
g1189
tp5672
a(g78
g1189
tp5673
as(g208
S'abattoir'
p5674
tp5675
(lp5676
(g212
g5674
tp5677
as(g275
S'breeze'
p5678
tp5679
(lp5680
(g271
g5678
tp5681
a(g354
g5678
tp5682
as(g120
g336
tp5683
(lp5684
(g124
g336
tp5685
as(g1617
S'administrator'
p5686
tp5687
(lp5688
(g1621
g5686
tp5689
as(g1007
S'funeral'
p5690
tp5691
(lp5692
(g1011
g5690
tp5693
as(g271
g1484
tp5694
(lp5695
(g275
g1484
tp5696
as(g108
S'hummingbird'
p5697
tp5698
(lp5699
(g112
g5697
tp5700
as(g367
S'harp'
p5701
tp5702
(lp5703
(g371
g5701
tp5704
as(g1197
g3418
tp5705
(lp5706
(g1201
g3418
tp5707
as(g2901
S'bedroom'
p5708
tp5709
(lp5710
(g2905
g5708
tp5711
as(g35
S'telephone_book'
p5712
tp5713
(lp5714
(g39
g5712
tp5715
a(g41
g5712
tp5716
as(g72
g4566
tp5717
(lp5718
(g76
g4566
tp5719
a(g78
g4566
tp5720
as(g61
g880
tp5721
(lp5722
(g65
g880
tp5723
as(g1817
g368
tp5724
(lp5725
(g1821
g368
tp5726
a(g1823
g368
tp5727
as(g166
g3705
tp5728
(lp5729
(g170
g3705
tp5730
as(g1431
g916
tp5731
(lp5732
(g1434
g916
tp5733
as(g108
S'fetus'
p5734
tp5735
(lp5736
(g112
g5734
tp5737
as(g367
g2920
tp5738
(lp5739
(g371
g2920
tp5740
as(g1617
S'insect'
p5741
tp5742
(lp5743
(g1621
g5741
tp5744
as(g53
S'counterfeiter'
p5745
tp5746
(lp5747
(g49
g5745
tp5748
as(g2267
g2497
tp5749
(lp5750
(g2271
g2497
tp5751
a(g2273
g2497
tp5752
as(g277
S'cadaver'
p5753
tp5754
(lp5755
(g281
g5753
tp5756
as(g72
g3745
tp5757
(lp5758
(g76
g3745
tp5759
a(g78
g3745
tp5760
as(g862
S'tumour'
p5761
tp5762
(lp5763
(g866
g5761
tp5764
as(g176
S'scalpel'
p5765
tp5766
(lp5767
(g180
g5765
tp5768
a(g182
g5765
tp5769
a(g184
g5765
tp5770
as(g1479
g5198
tp5771
(lp5772
(g1482
g5198
tp5773
as(g194
S'cinder_block'
p5774
tp5775
(lp5776
(g198
g5774
tp5777
a(g200
g5774
tp5778
as(g650
g2457
tp5779
(lp5780
(g184
g2457
tp5781
as(g224
g5344
tp5782
(lp5783
(g220
g5344
tp5784
a(g765
g5344
tp5785
a(g767
g5344
tp5786
as(g112
S'dirge'
p5787
tp5788
(lp5789
(g108
g5787
tp5790
as(g230
S'tin_whistle'
p5791
tp5792
(lp5793
(g226
g5791
tp5794
a(g236
g5791
tp5795
as(g367
g1120
tp5796
(lp5797
(g371
g1120
tp5798
as(g230
S'dust'
p5799
tp5800
(lp5801
(g226
g5799
tp5802
a(g236
g5799
tp5803
as(g275
g1793
tp5804
(lp5805
(g271
g1793
tp5806
a(g354
g1793
tp5807
as(g2267
S'jelly'
p5808
tp5809
(lp5810
(g2271
g5808
tp5811
a(g2273
g5808
tp5812
as(g1617
S'desktop_computer'
p5813
tp5814
(lp5815
(g1621
g5813
tp5816
as(g220
S'lake'
p5817
tp5818
(lp5819
(g224
g5817
tp5820
as(g367
S'marionette'
p5821
tp5822
(lp5823
(g371
g5821
tp5824
as(g184
g3685
tp5825
(lp5826
(g648
g3685
tp5827
a(g650
g3685
tp5828
a(g652
g3685
tp5829
a(g182
g3685
tp5830
a(g176
g3685
tp5831
as(g176
S'lemon'
p5832
tp5833
(lp5834
(g180
g5832
tp5835
a(g182
g5832
tp5836
a(g184
g5832
tp5837
as(g176
g805
tp5838
(lp5839
(g180
g805
tp5840
a(g182
g805
tp5841
a(g184
g805
tp5842
as(g112
g3497
tp5843
(lp5844
(g108
g3497
tp5845
as(g137
g1960
tp5846
(lp5847
(g131
g1960
tp5848
a(g452
g1960
tp5849
a(g454
g1960
tp5850
a(g456
g1960
tp5851
a(g458
g1960
tp5852
as(g244
S'opal'
p5853
tp5854
(lp5855
(g248
g5853
tp5856
as(g19
g1218
tp5857
(lp5858
(g23
g1218
tp5859
a(g25
g1218
tp5860
as(S'carnivorous'
p5861
g3700
tp5862
(lp5863
(S'herbivorous'
p5864
g3700
tp5865
a(S'insectivorous'
p5866
g3700
tp5867
a(S'omnivorous'
p5868
g3700
tp5869
as(g84
S'fruit'
p5870
tp5871
(lp5872
(g87
g5870
tp5873
as(g61
S'bulldog'
p5874
tp5875
(lp5876
(g65
g5874
tp5877
as(g1043
S'stealth_fighter'
p5878
tp5879
(lp5880
(g1047
g5878
tp5881
a(g1049
g5878
tp5882
as(g1
g781
tp5883
(lp5884
(g5
g781
tp5885
as(g326
S'cotton_candy'
p5886
tp5887
(lp5888
(g330
g5886
tp5889
as(g124
g1218
tp5890
(lp5891
(g120
g1218
tp5892
as(g49
g4734
tp5893
(lp5894
(g53
g4734
tp5895
a(g55
g4734
tp5896
a(g57
g4734
tp5897
a(g59
g4734
tp5898
as(g367
g5078
tp5899
(lp5900
(g371
g5078
tp5901
as(g862
S'necromancer'
p5902
tp5903
(lp5904
(g866
g5902
tp5905
as(g440
S'cocoon'
p5906
tp5907
(lp5908
(g444
g5906
tp5909
a(g446
g5906
tp5910
as(g226
S'sewer'
p5911
tp5912
(lp5913
(g230
g5911
tp5914
as(g35
g28
tp5915
(lp5916
(g39
g28
tp5917
a(g41
g28
tp5918
as(g208
g930
tp5919
(lp5920
(g212
g930
tp5921
as(g406
g707
tp5922
(lp5923
(g410
g707
tp5924
a(g412
g707
tp5925
a(g414
g707
tp5926
as(g220
S'herring'
p5927
tp5928
(lp5929
(g224
g5927
tp5930
as(g970
g4449
tp5931
(lp5932
(g974
g4449
tp5933
as(g208
g3716
tp5934
(lp5935
(g212
g3716
tp5936
as(g208
g5305
tp5937
(lp5938
(g212
g5305
tp5939
as(g35
S'pincushion'
p5940
tp5941
(lp5942
(g39
g5940
tp5943
a(g41
g5940
tp5944
as(g114
S'armor'
p5945
tp5946
(lp5947
(g118
g5945
tp5948
as(g131
g5874
tp5949
(lp5950
(g135
g5874
tp5951
a(g137
g5874
tp5952
a(g139
g5874
tp5953
as(g242
g2860
tp5954
(lp5955
(g238
g2860
tp5956
a(g344
g2860
tp5957
as(g208
g3920
tp5958
(lp5959
(g212
g3920
tp5960
as(g650
S'theme_park'
p5961
tp5962
(lp5963
(g184
g5961
tp5964
as(g242
S'oil_change'
p5965
tp5966
(lp5967
(g238
g5965
tp5968
a(g344
g5965
tp5969
as(g3249
S'nut_case'
p5970
tp5971
(lp5972
(g3253
g5970
tp5973
as(g72
S'treasure_chest'
p5974
tp5975
(lp5976
(g76
g5974
tp5977
a(g78
g5974
tp5978
as(g19
g441
tp5979
(lp5980
(g23
g441
tp5981
a(g25
g441
tp5982
as(g275
g115
tp5983
(lp5984
(g271
g115
tp5985
a(g354
g115
tp5986
as(g93
g1151
tp5987
(lp5988
(g89
g1151
tp5989
a(g291
g1151
tp5990
a(g293
g1151
tp5991
a(g295
g1151
tp5992
a(g297
g1151
tp5993
a(g299
g1151
tp5994
as(g7
g3418
tp5995
(lp5996
(g11
g3418
tp5997
as(g473
g2568
tp5998
(lp5999
(g477
g2568
tp6000
as(g496
S'poniard'
p6001
tp6002
(lp6003
(g500
g6001
tp6004
as(g72
S'colander'
p6005
tp6006
(lp6007
(g76
g6005
tp6008
a(g78
g6005
tp6009
as(g1037
S'shooting_star'
p6010
tp6011
(lp6012
(g1033
g6010
tp6013
as(g194
S'acrobat'
p6014
tp6015
(lp6016
(g198
g6014
tp6017
a(g200
g6014
tp6018
as(g112
g960
tp6019
(lp6020
(g108
g960
tp6021
as(g2008
g2965
tp6022
(lp6023
(g2012
g2965
tp6024
as(g271
g4286
tp6025
(lp6026
(g275
g4286
tp6027
as(g230
g3388
tp6028
(lp6029
(g226
g3388
tp6030
a(g236
g3388
tp6031
as(g114
S'ranger'
p6032
tp6033
(lp6034
(g118
g6032
tp6035
as(g108
S'modem'
p6036
tp6037
(lp6038
(g112
g6036
tp6039
as(g414
S'tunnel'
p6040
tp6041
(lp6042
(g406
g6040
tp6043
as(g176
S'meat_cleaver'
p6044
tp6045
(lp6046
(g180
g6044
tp6047
a(g182
g6044
tp6048
a(g184
g6044
tp6049
as(g511
g2552
tp6050
(lp6051
(g515
g2552
tp6052
a(g517
g2552
tp6053
a(g519
g2552
tp6054
as(g176
g3142
tp6055
(lp6056
(g180
g3142
tp6057
a(g182
g3142
tp6058
a(g184
g3142
tp6059
as(g389
S'harvest_moon'
p6060
tp6061
(lp6062
(g393
g6060
tp6063
a(g39
g6060
tp6064
as(g108
g5628
tp6065
(lp6066
(g112
g5628
tp6067
as(g2155
S'walnut'
p6068
tp6069
(lp6070
(g2159
g6068
tp6071
a(g2161
g6068
tp6072
as(g1707
g1141
tp6073
(lp6074
(g1711
g1141
tp6075
as(g149
g3914
tp6076
(lp6077
(g25
g3914
tp6078
as(g496
S'volleyball'
p6079
tp6080
(lp6081
(g500
g6079
tp6082
as(g3994
g4986
tp6083
(lp6084
(g3998
g4986
tp6085
as(g624
g3477
tp6086
(lp6087
(g180
g3477
tp6088
as(g1707
S'apricot'
p6089
tp6090
(lp6091
(g1711
g6089
tp6092
as(g511
S'princess'
p6093
tp6094
(lp6095
(g515
g6093
tp6096
a(g517
g6093
tp6097
a(g519
g6093
tp6098
as(g275
S'sledgehammer'
p6099
tp6100
(lp6101
(g271
g6099
tp6102
a(g354
g6099
tp6103
as(g1197
g2509
tp6104
(lp6105
(g1201
g2509
tp6106
as(g226
g1106
tp6107
(lp6108
(g230
g1106
tp6109
as(g367
S'bride'
p6110
tp6111
(lp6112
(g371
g6110
tp6113
as(g356
g1868
tp6114
(lp6115
(g360
g1868
tp6116
as(g72
S'bracelet'
p6117
tp6118
(lp6119
(g76
g6117
tp6120
a(g78
g6117
tp6121
as(g31
g5753
tp6122
(lp6123
(g27
g5753
tp6124
a(g1060
g5753
tp6125
as(g23
S'mouse'
p6126
tp6127
(lp6128
(g19
g6126
tp6129
as(g35
g1754
tp6130
(lp6131
(g39
g1754
tp6132
a(g41
g1754
tp6133
as(g716
S'lily_pad'
p6134
tp6135
(lp6136
(g720
g6134
tp6137
as(g131
g2032
tp6138
(lp6139
(g135
g2032
tp6140
a(g137
g2032
tp6141
a(g139
g2032
tp6142
as(g652
S'cabbage'
p6143
tp6144
(lp6145
(g184
g6143
tp6146
as(g149
S'board'
p6147
tp6148
(lp6149
(g25
g6147
tp6150
as(g694
S'hospital_ward'
p6151
tp6152
(lp6153
(g698
g6151
tp6154
as(g1007
g3586
tp6155
(lp6156
(g1011
g3586
tp6157
as(g108
g5513
tp6158
(lp6159
(g112
g5513
tp6160
as(g1037
S'mandala'
p6161
tp6162
(lp6163
(g1033
g6161
tp6164
as(g224
g1643
tp6165
(lp6166
(g220
g1643
tp6167
a(g765
g1643
tp6168
a(g767
g1643
tp6169
as(g176
S'rifle_shot'
p6170
tp6171
(lp6172
(g180
g6170
tp6173
a(g182
g6170
tp6174
a(g184
g6170
tp6175
as(g186
g3198
tp6176
(lp6177
(g190
g3198
tp6178
a(g192
g3198
tp6179
as(g208
g1923
tp6180
(lp6181
(g212
g1923
tp6182
as(g67
g301
tp6183
(lp6184
(g25
g301
tp6185
as(g412
S'savings_account'
p6186
tp6187
(lp6188
(g410
g6186
tp6189
a(g406
g6186
tp6190
a(g484
g6186
tp6191
as(g406
S'bison'
p6192
tp6193
(lp6194
(g410
g6192
tp6195
a(g412
g6192
tp6196
a(g414
g6192
tp6197
as(g650
S'glass_eye'
p6198
tp6199
(lp6200
(g184
g6198
tp6201
as(g1431
S'mountain_goat'
p6202
tp6203
(lp6204
(g1434
g6202
tp6205
as(g406
S'counterweight'
p6206
tp6207
(lp6208
(g410
g6206
tp6209
a(g412
g6206
tp6210
a(g414
g6206
tp6211
as(g389
g283
tp6212
(lp6213
(g393
g283
tp6214
a(g39
g283
tp6215
as(g406
g3130
tp6216
(lp6217
(g410
g3130
tp6218
a(g412
g3130
tp6219
a(g414
g3130
tp6220
as(g19
g278
tp6221
(lp6222
(g23
g278
tp6223
a(g25
g278
tp6224
as(g682
g2127
tp6225
(lp6226
(g678
g2127
tp6227
as(g326
S'croissant'
p6228
tp6229
(lp6230
(g330
g6228
tp6231
as(g114
g5874
tp6232
(lp6233
(g118
g5874
tp6234
as(g49
g812
tp6235
(lp6236
(g53
g812
tp6237
a(g55
g812
tp6238
a(g57
g812
tp6239
a(g59
g812
tp6240
as(g114
g2497
tp6241
(lp6242
(g118
g2497
tp6243
as(g5
S'foetus'
p6244
tp6245
(lp6246
(g1
g6244
tp6247
as(g184
g1198
tp6248
(lp6249
(g648
g1198
tp6250
a(g650
g1198
tp6251
a(g652
g1198
tp6252
a(g182
g1198
tp6253
a(g176
g1198
tp6254
as(g19
g872
tp6255
(lp6256
(g23
g872
tp6257
a(g25
g872
tp6258
as(g49
S'circle'
p6259
tp6260
(lp6261
(g53
g6259
tp6262
a(g55
g6259
tp6263
a(g57
g6259
tp6264
a(g59
g6259
tp6265
as(g208
g3202
tp6266
(lp6267
(g212
g3202
tp6268
as(g27
g8
tp6269
(lp6270
(g31
g8
tp6271
a(g33
g8
tp6272
as(g7
g3758
tp6273
(lp6274
(g11
g3758
tp6275
as(g108
S'pocket_calculator'
p6276
tp6277
(lp6278
(g112
g6276
tp6279
as(g131
g4234
tp6280
(lp6281
(g135
g4234
tp6282
a(g137
g4234
tp6283
a(g139
g4234
tp6284
as(g277
S'apple'
p6285
tp6286
(lp6287
(g281
g6285
tp6288
as(g102
S'reference_book'
p6289
tp6290
(lp6291
(g106
g6289
tp6292
as(g49
S'mobius_strip'
p6293
tp6294
(lp6295
(g53
g6293
tp6296
a(g55
g6293
tp6297
a(g57
g6293
tp6298
a(g59
g6293
tp6299
as(g1007
S'checker_board'
p6300
tp6301
(lp6302
(g1011
g6300
tp6303
as(g2057
g441
tp6304
(lp6305
(g2061
g441
tp6306
as(g108
S'racehorse'
p6307
tp6308
(lp6309
(g112
g6307
tp6310
as(g277
S'stallion'
p6311
tp6312
(lp6313
(g281
g6311
tp6314
as(g544
g1607
tp6315
(lp6316
(g548
g1607
tp6317
a(g550
g1607
tp6318
as(g1037
g4292
tp6319
(lp6320
(g1033
g4292
tp6321
as(g49
S'lance'
p6322
tp6323
(lp6324
(g53
g6322
tp6325
a(g55
g6322
tp6326
a(g57
g6322
tp6327
a(g59
g6322
tp6328
as(g31
g3142
tp6329
(lp6330
(g27
g3142
tp6331
a(g1060
g3142
tp6332
as(g19
g2151
tp6333
(lp6334
(g23
g2151
tp6335
a(g25
g2151
tp6336
as(g412
S'treasury_bond'
p6337
tp6338
(lp6339
(g410
g6337
tp6340
a(g406
g6337
tp6341
a(g484
g6337
tp6342
as(g67
S'gun'
p6343
tp6344
(lp6345
(g25
g6343
tp6346
as(g1197
g8
tp6347
(lp6348
(g1201
g8
tp6349
as(g137
S'icepick'
p6350
tp6351
(lp6352
(g131
g6350
tp6353
a(g452
g6350
tp6354
a(g454
g6350
tp6355
a(g456
g6350
tp6356
a(g458
g6350
tp6357
as(g271
g2191
tp6358
(lp6359
(g275
g2191
tp6360
as(g477
S'child'
p6361
tp6362
(lp6363
(g473
g6361
tp6364
a(g2591
g6361
tp6365
as(g2760
S'tissue_paper'
p6366
tp6367
(lp6368
(g2763
g6366
tp6369
as(g49
g6147
tp6370
(lp6371
(g53
g6147
tp6372
a(g55
g6147
tp6373
a(g57
g6147
tp6374
a(g59
g6147
tp6375
as(g131
S'river_boulder'
p6376
tp6377
(lp6378
(g135
g6376
tp6379
a(g137
g6376
tp6380
a(g139
g6376
tp6381
as(g93
S'anthill'
p6382
tp6383
(lp6384
(g89
g6382
tp6385
a(g291
g6382
tp6386
a(g293
g6382
tp6387
a(g295
g6382
tp6388
a(g297
g6382
tp6389
a(g299
g6382
tp6390
as(g84
S'pippin'
p6391
tp6392
(lp6393
(g87
g6391
tp6394
as(g186
S'sculpture'
p6395
tp6396
(lp6397
(g190
g6395
tp6398
a(g192
g6395
tp6399
as(g208
S'layer_cake'
p6400
tp6401
(lp6402
(g212
g6400
tp6403
as(g208
S'baby_bird'
p6404
tp6405
(lp6406
(g212
g6404
tp6407
as(g7
g3364
tp6408
(lp6409
(g11
g3364
tp6410
as(g5430
S'nightmare'
p6411
tp6412
(lp6413
(g5433
g6411
tp6414
as(g208
S'seismograph'
p6415
tp6416
(lp6417
(g212
g6415
tp6418
as(g5
g858
tp6419
(lp6420
(g1
g858
tp6421
as(g176
g6322
tp6422
(lp6423
(g180
g6322
tp6424
a(g182
g6322
tp6425
a(g184
g6322
tp6426
as(g176
S'bobby_pin'
p6427
tp6428
(lp6429
(g180
g6427
tp6430
a(g182
g6427
tp6431
a(g184
g6427
tp6432
as(g326
S'haiku'
p6433
tp6434
(lp6435
(g330
g6433
tp6436
as(g72
S'cell_membrane'
p6437
tp6438
(lp6439
(g76
g6437
tp6440
a(g78
g6437
tp6441
as(g1
g301
tp6442
(lp6443
(g5
g301
tp6444
as(g7
g4686
tp6445
(lp6446
(g11
g4686
tp6447
as(g1033
S'scar'
p6448
tp6449
(lp6450
(g1037
g6448
tp6451
as(g208
g2771
tp6452
(lp6453
(g212
g2771
tp6454
as(g1779
S'birdnest'
p6455
tp6456
(lp6457
(g1783
g6455
tp6458
as(g367
S'ballet_master'
p6459
tp6460
(lp6461
(g371
g6459
tp6462
as(g2008
S'bb_gun'
p6463
tp6464
(lp6465
(g2012
g6463
tp6466
as(g5145
S'coward'
p6467
tp6468
(lp6469
(g5149
g6467
tp6470
as(g275
g1933
tp6471
(lp6472
(g271
g1933
tp6473
a(g354
g1933
tp6474
as(g682
g2092
tp6475
(lp6476
(g678
g2092
tp6477
as(g1431
g4145
tp6478
(lp6479
(g1434
g4145
tp6480
as(g198
g1774
tp6481
(lp6482
(g194
g1774
tp6483
a(g170
g1774
tp6484
as(S'unsteady'
p6485
S'canoe'
p6486
tp6487
(lp6488
(S'steady'
p6489
g6486
tp6490
as(g112
g3951
tp6491
(lp6492
(g108
g3951
tp6493
as(g202
g3382
tp6494
(lp6495
(g206
g3382
tp6496
as(g180
g672
tp6497
(lp6498
(g624
g672
tp6499
a(g809
g672
tp6500
a(g176
g672
tp6501
as(g67
g4929
tp6502
(lp6503
(g25
g4929
tp6504
as(g108
g667
tp6505
(lp6506
(g112
g667
tp6507
as(g230
S'toilet'
p6508
tp6509
(lp6510
(g226
g6508
tp6511
a(g236
g6508
tp6512
as(g220
S'marsh'
p6513
tp6514
(lp6515
(g224
g6513
tp6516
as(g275
S'smile'
p6517
tp6518
(lp6519
(g271
g6517
tp6520
a(g354
g6517
tp6521
as(g1007
S'museum'
p6522
tp6523
(lp6524
(g1011
g6522
tp6525
as(g112
g5753
tp6526
(lp6527
(g108
g5753
tp6528
as(g202
g1727
tp6529
(lp6530
(g206
g1727
tp6531
as(g49
S'bayonet'
p6532
tp6533
(lp6534
(g53
g6532
tp6535
a(g55
g6532
tp6536
a(g57
g6532
tp6537
a(g59
g6532
tp6538
as(g72
S'thermos_bottle'
p6539
tp6540
(lp6541
(g76
g6539
tp6542
a(g78
g6539
tp6543
as(g248
S'defect'
p6544
tp6545
(lp6546
(g244
g6544
tp6547
as(g186
S'sphinx'
p6548
tp6549
(lp6550
(g190
g6548
tp6551
a(g192
g6548
tp6552
as(g184
g5438
tp6553
(lp6554
(g648
g5438
tp6555
a(g650
g5438
tp6556
a(g652
g5438
tp6557
a(g182
g5438
tp6558
a(g176
g5438
tp6559
as(g194
g1101
tp6560
(lp6561
(g198
g1101
tp6562
a(g200
g1101
tp6563
as(g49
g1343
tp6564
(lp6565
(g53
g1343
tp6566
a(g55
g1343
tp6567
a(g57
g1343
tp6568
a(g59
g1343
tp6569
as(g750
g1151
tp6570
(lp6571
(g754
g1151
tp6572
as(g214
S'rattler'
p6573
tp6574
(lp6575
(g218
g6573
tp6576
as(g149
g1203
tp6577
(lp6578
(g25
g1203
tp6579
as(S'irreversible'
p6580
S'lobotomy'
p6581
tp6582
(lp6583
(S'reversible'
p6584
g6581
tp6585
as(g141
S'highland'
p6586
tp6587
(lp6588
(g145
g6586
tp6589
a(g147
g6586
tp6590
as(g511
S'primrose'
p6591
tp6592
(lp6593
(g515
g6591
tp6594
a(g517
g6591
tp6595
a(g519
g6591
tp6596
as(g131
g44
tp6597
(lp6598
(g135
g44
tp6599
a(g137
g44
tp6600
a(g139
g44
tp6601
as(g371
g2191
tp6602
(lp6603
(g367
g2191
tp6604
as(g49
g327
tp6605
(lp6606
(g53
g327
tp6607
a(g55
g327
tp6608
a(g57
g327
tp6609
a(g59
g327
tp6610
as(g326
g2191
tp6611
(lp6612
(g330
g2191
tp6613
as(g61
S'rhinoceros'
p6614
tp6615
(lp6616
(g65
g6614
tp6617
as(g496
g5660
tp6618
(lp6619
(g500
g5660
tp6620
as(g166
g4318
tp6621
(lp6622
(g170
g4318
tp6623
as(g985
S'constellation'
p6624
tp6625
(lp6626
(g989
g6624
tp6627
as(g750
S'weathercock'
p6628
tp6629
(lp6630
(g754
g6628
tp6631
as(g716
g5420
tp6632
(lp6633
(g720
g5420
tp6634
as(g947
g6361
tp6635
(lp6636
(g943
g6361
tp6637
a(S'exploited'
p6638
g6361
tp6639
as(g406
g4385
tp6640
(lp6641
(g410
g4385
tp6642
a(g412
g4385
tp6643
a(g414
g4385
tp6644
as(g242
S'cowboy'
p6645
tp6646
(lp6647
(g238
g6645
tp6648
a(g344
g6645
tp6649
as(g496
g1793
tp6650
(lp6651
(g500
g1793
tp6652
as(g367
S'cat_burglar'
p6653
tp6654
(lp6655
(g371
g6653
tp6656
as(g13
S'phantom'
p6657
tp6658
(lp6659
(g17
g6657
tp6660
as(g5
S'snowdrop'
p6661
tp6662
(lp6663
(g1
g6661
tp6664
as(g2754
S'musician'
p6665
tp6666
(lp6667
(g2758
g6665
tp6668
as(g184
S'waterfall'
p6669
tp6670
(lp6671
(g648
g6669
tp6672
a(g650
g6669
tp6673
a(g652
g6669
tp6674
a(g182
g6669
tp6675
a(g176
g6669
tp6676
as(g5
g2552
tp6677
(lp6678
(g1
g2552
tp6679
as(g230
S'clinic'
p6680
tp6681
(lp6682
(g226
g6680
tp6683
a(g236
g6680
tp6684
as(g511
S'trash_can'
p6685
tp6686
(lp6687
(g515
g6685
tp6688
a(g517
g6685
tp6689
a(g519
g6685
tp6690
as(g326
S'lump_sum'
p6691
tp6692
(lp6693
(g330
g6691
tp6694
as(g1897
S'baseball_player'
p6695
tp6696
(lp6697
(g1901
g6695
tp6698
as(g496
g6532
tp6699
(lp6700
(g500
g6532
tp6701
as(g112
S'dung_beetle'
p6702
tp6703
(lp6704
(g108
g6702
tp6705
as(g114
g3625
tp6706
(lp6707
(g118
g3625
tp6708
as(g511
S'spray'
p6709
tp6710
(lp6711
(g515
g6709
tp6712
a(g517
g6709
tp6713
a(g519
g6709
tp6714
as(g271
g1189
tp6715
(lp6716
(g275
g1189
tp6717
as(g131
g1774
tp6718
(lp6719
(g135
g1774
tp6720
a(g137
g1774
tp6721
a(g139
g1774
tp6722
as(g406
g121
tp6723
(lp6724
(g410
g121
tp6725
a(g412
g121
tp6726
a(g414
g121
tp6727
as(g496
g1868
tp6728
(lp6729
(g500
g1868
tp6730
as(g970
g4772
tp6731
(lp6732
(g974
g4772
tp6733
as(g61
S'elephant_seal'
p6734
tp6735
(lp6736
(g65
g6734
tp6737
as(g406
S'muscle'
p6738
tp6739
(lp6740
(g410
g6738
tp6741
a(g412
g6738
tp6742
a(g414
g6738
tp6743
as(g1517
S'bungee_cord'
p6744
tp6745
(lp6746
(g1521
g6744
tp6747
as(g186
g4084
tp6748
(lp6749
(g190
g4084
tp6750
a(g192
g4084
tp6751
as(g271
g384
tp6752
(lp6753
(g275
g384
tp6754
as(g19
S'steel_trap'
p6755
tp6756
(lp6757
(g23
g6755
tp6758
a(g25
g6755
tp6759
as(g393
g797
tp6760
(lp6761
(g389
g797
tp6762
as(g19
g5237
tp6763
(lp6764
(g23
g5237
tp6765
a(g25
g5237
tp6766
as(g406
g28
tp6767
(lp6768
(g410
g28
tp6769
a(g412
g28
tp6770
a(g414
g28
tp6771
as(g19
g1324
tp6772
(lp6773
(g23
g1324
tp6774
a(g25
g1324
tp6775
as(g176
g1176
tp6776
(lp6777
(g180
g1176
tp6778
a(g182
g1176
tp6779
a(g184
g1176
tp6780
as(g1617
g707
tp6781
(lp6782
(g1621
g707
tp6783
as(g678
S'bedouin'
p6784
tp6785
(lp6786
(g682
g6784
tp6787
as(g149
S'popsicle'
p6788
tp6789
(lp6790
(g25
g6788
tp6791
as(g25
g695
tp6792
(lp6793
(g67
g695
tp6794
as(g176
S'stiletto_heel'
p6795
tp6796
(lp6797
(g180
g6795
tp6798
a(g182
g6795
tp6799
a(g184
g6795
tp6800
as(g23
g1234
tp6801
(lp6802
(g19
g1234
tp6803
as(g367
S'prince'
p6804
tp6805
(lp6806
(g371
g6804
tp6807
as(g208
S'crane'
p6808
tp6809
(lp6810
(g212
g6808
tp6811
as(g166
g1198
tp6812
(lp6813
(g170
g1198
tp6814
as(g35
S'heifer'
p6815
tp6816
(lp6817
(g39
g6815
tp6818
a(g41
g6815
tp6819
as(g114
S'bounty_hunter'
p6820
tp6821
(lp6822
(g118
g6820
tp6823
as(g367
g1320
tp6824
(lp6825
(g371
g1320
tp6826
as(g1197
g4514
tp6827
(lp6828
(g1201
g4514
tp6829
as(g124
g868
tp6830
(lp6831
(g120
g868
tp6832
as(g19
S'titan'
p6833
tp6834
(lp6835
(g23
g6833
tp6836
a(g25
g6833
tp6837
as(g1779
S'grapevine'
p6838
tp6839
(lp6840
(g1783
g6838
tp6841
as(g244
S'picture_postcard'
p6842
tp6843
(lp6844
(g248
g6842
tp6845
as(g7
g3142
tp6846
(lp6847
(g11
g3142
tp6848
as(g114
S'haircut'
p6849
tp6850
(lp6851
(g118
g6849
tp6852
as(g176
S'marble'
p6853
tp6854
(lp6855
(g180
g6853
tp6856
a(g182
g6853
tp6857
a(g184
g6853
tp6858
as(g473
g2337
tp6859
(lp6860
(g477
g2337
tp6861
as(g131
g4923
tp6862
(lp6863
(g135
g4923
tp6864
a(g137
g4923
tp6865
a(g139
g4923
tp6866
as(g242
S'sump_pump'
p6867
tp6868
(lp6869
(g238
g6867
tp6870
a(g344
g6867
tp6871
as(g275
g6228
tp6872
(lp6873
(g271
g6228
tp6874
a(g354
g6228
tp6875
as(g49
S'boomerang'
p6876
tp6877
(lp6878
(g53
g6876
tp6879
a(g55
g6876
tp6880
a(g57
g6876
tp6881
a(g59
g6876
tp6882
as(g244
S'pearl'
p6883
tp6884
(lp6885
(g248
g6883
tp6886
as(g131
g8
tp6887
(lp6888
(g135
g8
tp6889
a(g137
g8
tp6890
a(g139
g8
tp6891
as(g224
g2497
tp6892
(lp6893
(g220
g2497
tp6894
a(g765
g2497
tp6895
a(g767
g2497
tp6896
as(g176
g1898
tp6897
(lp6898
(g180
g1898
tp6899
a(g182
g1898
tp6900
a(g184
g1898
tp6901
as(g326
g209
tp6902
(lp6903
(g330
g209
tp6904
as(g224
S'death_valley'
p6905
tp6906
(lp6907
(g220
g6905
tp6908
a(g765
g6905
tp6909
a(g767
g6905
tp6910
as(g2501
g5220
tp6911
(lp6912
(g2505
g5220
tp6913
a(g2507
g5220
tp6914
as(g72
S'mason_jar'
p6915
tp6916
(lp6917
(g76
g6915
tp6918
a(g78
g6915
tp6919
as(g166
g4843
tp6920
(lp6921
(g170
g4843
tp6922
as(g5
g6404
tp6923
(lp6924
(g1
g6404
tp6925
as(g176
g2032
tp6926
(lp6927
(g180
g2032
tp6928
a(g182
g2032
tp6929
a(g184
g2032
tp6930
as(g226
g5247
tp6931
(lp6932
(g230
g5247
tp6933
as(g473
S'metropolis'
p6934
tp6935
(lp6936
(g477
g6934
tp6937
as(g406
S'planet'
p6938
tp6939
(lp6940
(g410
g6938
tp6941
a(g412
g6938
tp6942
a(g414
g6938
tp6943
as(g275
g448
tp6944
(lp6945
(g271
g448
tp6946
a(g354
g448
tp6947
as(g176
S'lens'
p6948
tp6949
(lp6950
(g180
g6948
tp6951
a(g182
g6948
tp6952
a(g184
g6948
tp6953
as(g141
g629
tp6954
(lp6955
(g145
g629
tp6956
a(g147
g629
tp6957
as(g1
g743
tp6958
(lp6959
(g5
g743
tp6960
as(g186
g801
tp6961
(lp6962
(g190
g801
tp6963
a(g192
g801
tp6964
as(g108
g4024
tp6965
(lp6966
(g112
g4024
tp6967
as(g131
g402
tp6968
(lp6969
(g135
g402
tp6970
a(g137
g402
tp6971
a(g139
g402
tp6972
as(g19
S'titanium'
p6973
tp6974
(lp6975
(g23
g6973
tp6976
a(g25
g6973
tp6977
as(g7
g2568
tp6978
(lp6979
(g11
g2568
tp6980
as(g180
S'mallet'
p6981
tp6982
(lp6983
(g624
g6981
tp6984
a(g809
g6981
tp6985
a(g176
g6981
tp6986
as(g166
g396
tp6987
(lp6988
(g170
g396
tp6989
as(g682
g5198
tp6990
(lp6991
(g678
g5198
tp6992
as(g1707
S'strawberry'
p6993
tp6994
(lp6995
(g1711
g6993
tp6996
as(g202
g6366
tp6997
(lp6998
(g206
g6366
tp6999
as(g315
g8
tp7000
(lp7001
(g319
g8
tp7002
as(g506
g3198
tp7003
(lp7004
(g509
g3198
tp7005
as(g141
S'file'
p7006
tp7007
(lp7008
(g145
g7006
tp7009
a(g147
g7006
tp7010
as(g473
g1371
tp7011
(lp7012
(g477
g1371
tp7013
as(g3867
g2771
tp7014
(lp7015
(g131
g2771
tp7016
as(g124
S'hare'
p7017
tp7018
(lp7019
(g120
g7017
tp7020
as(g19
g28
tp7021
(lp7022
(g23
g28
tp7023
a(g25
g28
tp7024
as(g271
g1120
tp7025
(lp7026
(g275
g1120
tp7027
as(g5145
g3028
tp7028
(lp7029
(g5149
g3028
tp7030
as(g970
g4145
tp7031
(lp7032
(g974
g4145
tp7033
as(g1617
S'hacker'
p7034
tp7035
(lp7036
(g1621
g7034
tp7037
as(g688
S'carcass'
p7038
tp7039
(lp7040
(g692
g7038
tp7041
as(g1707
S'filet_mignon'
p7042
tp7043
(lp7044
(g1711
g7042
tp7045
as(g224
S'beaver'
p7046
tp7047
(lp7048
(g220
g7046
tp7049
a(g765
g7046
tp7050
a(g767
g7046
tp7051
as(g406
g3198
tp7052
(lp7053
(g410
g3198
tp7054
a(g412
g3198
tp7055
a(g414
g3198
tp7056
as(g271
g5774
tp7057
(lp7058
(g275
g5774
tp7059
as(g49
S'hem'
p7060
tp7061
(lp7062
(g53
g7060
tp7063
a(g55
g7060
tp7064
a(g57
g7060
tp7065
a(g59
g7060
tp7066
as(g271
S'cotton_ball'
p7067
tp7068
(lp7069
(g275
g7067
tp7070
as(g43
g8
tp7071
(lp7072
(g47
g8
tp7073
as(g49
S'die'
p7074
tp7075
(lp7076
(g53
g7074
tp7077
a(g55
g7074
tp7078
a(g57
g7074
tp7079
a(g59
g7074
tp7080
as(g511
S'lettuce'
p7081
tp7082
(lp7083
(g515
g7081
tp7084
a(g517
g7081
tp7085
a(g519
g7081
tp7086
as(g5
S'dove'
p7087
tp7088
(lp7089
(g1
g7087
tp7090
as(g72
S'bowstring'
p7091
tp7092
(lp7093
(g76
g7091
tp7094
a(g78
g7091
tp7095
as(g149
g2735
tp7096
(lp7097
(g25
g2735
tp7098
as(g694
g7067
tp7099
(lp7100
(g698
g7067
tp7101
as(g176
S'carving_knife'
p7102
tp7103
(lp7104
(g180
g7102
tp7105
a(g182
g7102
tp7106
a(g184
g7102
tp7107
as(g120
g90
tp7108
(lp7109
(g124
g90
tp7110
as(g149
S'cane'
p7111
tp7112
(lp7113
(g25
g7111
tp7114
as(g202
g4566
tp7115
(lp7116
(g206
g4566
tp7117
as(S'untidy'
p7118
g4772
tp7119
(lp7120
(S'tidy'
p7121
g4772
tp7122
as(g496
g805
tp7123
(lp7124
(g500
g805
tp7125
as(g23
S'babe'
p7126
tp7127
(lp7128
(g19
g7126
tp7129
as(g226
g2502
tp7130
(lp7131
(g230
g2502
tp7132
as(g2267
g868
tp7133
(lp7134
(g2271
g868
tp7135
a(g2273
g868
tp7136
as(g414
S'hoax'
p7137
tp7138
(lp7139
(g406
g7137
tp7140
as(g226
S'street_fighter'
p7141
tp7142
(lp7143
(g230
g7141
tp7144
as(g224
g5927
tp7145
(lp7146
(g220
g5927
tp7147
a(g765
g5927
tp7148
a(g767
g5927
tp7149
as(g131
g521
tp7150
(lp7151
(g135
g521
tp7152
a(g137
g521
tp7153
a(g139
g521
tp7154
as(g131
g3198
tp7155
(lp7156
(g135
g3198
tp7157
a(g137
g3198
tp7158
a(g139
g3198
tp7159
as(g89
S'mussel'
p7160
tp7161
(lp7162
(g93
g7160
tp7163
a(g95
g7160
tp7164
as(g1479
S'bomb_shelter'
p7165
tp7166
(lp7167
(g1482
g7165
tp7168
as(g176
S'wood_chisel'
p7169
tp7170
(lp7171
(g180
g7169
tp7172
a(g182
g7169
tp7173
a(g184
g7169
tp7174
as(g5
g2337
tp7175
(lp7176
(g1
g2337
tp7177
as(g176
S'banana'
p7178
tp7179
(lp7180
(g180
g7178
tp7181
a(g182
g7178
tp7182
a(g184
g7178
tp7183
as(g131
g5261
tp7184
(lp7185
(g135
g5261
tp7186
a(g137
g5261
tp7187
a(g139
g5261
tp7188
as(g271
g679
tp7189
(lp7190
(g275
g679
tp7191
as(g112
g1218
tp7192
(lp7193
(g108
g1218
tp7194
as(g7
g1560
tp7195
(lp7196
(g11
g1560
tp7197
as(g186
S'sniper'
p7198
tp7199
(lp7200
(g190
g7198
tp7201
a(g192
g7198
tp7202
as(g602
S'burger'
p7203
tp7204
(lp7205
(g606
g7203
tp7206
as(g108
g4986
tp7207
(lp7208
(g112
g4986
tp7209
as(g149
g5753
tp7210
(lp7211
(g25
g5753
tp7212
as(g7
g4734
tp7213
(lp7214
(g11
g4734
tp7215
as(g367
g1133
tp7216
(lp7217
(g371
g1133
tp7218
as(g186
g781
tp7219
(lp7220
(g190
g781
tp7221
a(g192
g781
tp7222
as(g2456
S'prosthesis'
p7223
tp7224
(lp7225
(g2460
g7223
tp7226
a(g2462
g7223
tp7227
a(g330
g7223
tp7228
as(g414
g62
tp7229
(lp7230
(g406
g62
tp7231
as(g716
S'doctor'
p7232
tp7233
(lp7234
(g720
g7232
tp7235
as(g371
S'unicycle'
p7236
tp7237
(lp7238
(g367
g7236
tp7239
as(g53
g5588
tp7240
(lp7241
(g49
g5588
tp7242
as(g7
g301
tp7243
(lp7244
(g11
g301
tp7245
as(g93
g868
tp7246
(lp7247
(g89
g868
tp7248
a(g291
g868
tp7249
a(g293
g868
tp7250
a(g295
g868
tp7251
a(g297
g868
tp7252
a(g299
g868
tp7253
as(g114
g5479
tp7254
(lp7255
(g118
g5479
tp7256
as(g27
g2293
tp7257
(lp7258
(g31
g2293
tp7259
a(g33
g2293
tp7260
as(g393
g4088
tp7261
(lp7262
(g389
g4088
tp7263
as(g137
S'shag_rug'
p7264
tp7265
(lp7266
(g131
g7264
tp7267
a(g452
g7264
tp7268
a(g454
g7264
tp7269
a(g456
g7264
tp7270
a(g458
g7264
tp7271
as(g131
g90
tp7272
(lp7273
(g135
g90
tp7274
a(g137
g90
tp7275
a(g139
g90
tp7276
as(g2636
g115
tp7277
(lp7278
(g2640
g115
tp7279
as(g176
g3262
tp7280
(lp7281
(g180
g3262
tp7282
a(g182
g3262
tp7283
a(g184
g3262
tp7284
as(g299
S'dormouse'
p7285
tp7286
(lp7287
(g93
g7285
tp7288
as(g194
S'string'
p7289
tp7290
(lp7291
(g198
g7289
tp7292
a(g200
g7289
tp7293
as(g367
g1854
tp7294
(lp7295
(g371
g1854
tp7296
as(g149
g5821
tp7297
(lp7298
(g25
g5821
tp7299
as(g544
g5067
tp7300
(lp7301
(g548
g5067
tp7302
a(g550
g5067
tp7303
as(g124
S'watch'
p7304
tp7305
(lp7306
(g120
g7304
tp7307
as(g406
S'swiss_cheese'
p7308
tp7309
(lp7310
(g410
g7308
tp7311
a(g412
g7308
tp7312
a(g414
g7308
tp7313
as(g61
S'louse'
p7314
tp7315
(lp7316
(g65
g7314
tp7317
as(g393
g4929
tp7318
(lp7319
(g389
g4929
tp7320
as(g194
S'slipper'
p7321
tp7322
(lp7323
(g198
g7321
tp7324
a(g200
g7321
tp7325
as(g108
g6614
tp7326
(lp7327
(g112
g6614
tp7328
as(g970
g1324
tp7329
(lp7330
(g974
g1324
tp7331
as(g137
g2497
tp7332
(lp7333
(g131
g2497
tp7334
a(g452
g2497
tp7335
a(g454
g2497
tp7336
a(g456
g2497
tp7337
a(g458
g2497
tp7338
as(g263
S'poem'
p7339
tp7340
(lp7341
(g267
g7339
tp7342
a(g269
g7339
tp7343
as(g208
g3848
tp7344
(lp7345
(g212
g3848
tp7346
as(S'unformed'
p7347
S'newborn'
p7348
tp7349
(lp7350
(S'formed'
p7351
g7348
tp7352
as(g1007
S'honeycomb'
p7353
tp7354
(lp7355
(g1011
g7353
tp7356
as(g275
g1701
tp7357
(lp7358
(g271
g1701
tp7359
a(g354
g1701
tp7360
as(g49
g2350
tp7361
(lp7362
(g53
g2350
tp7363
a(g55
g2350
tp7364
a(g57
g2350
tp7365
a(g59
g2350
tp7366
as(g496
g3914
tp7367
(lp7368
(g500
g3914
tp7369
as(g31
S'coffin_nail'
p7370
tp7371
(lp7372
(g27
g7370
tp7373
a(g1060
g7370
tp7374
as(g367
g965
tp7375
(lp7376
(g371
g965
tp7377
as(g131
g4286
tp7378
(lp7379
(g135
g4286
tp7380
a(g137
g4286
tp7381
a(g139
g4286
tp7382
as(g467
g8
tp7383
(lp7384
(g471
g8
tp7385
as(g202
g2442
tp7386
(lp7387
(g206
g2442
tp7388
as(g137
g3914
tp7389
(lp7390
(g131
g3914
tp7391
a(g452
g3914
tp7392
a(g454
g3914
tp7393
a(g456
g3914
tp7394
a(g458
g3914
tp7395
as(g389
S'sandbag'
p7396
tp7397
(lp7398
(g393
g7396
tp7399
a(g39
g7396
tp7400
as(g275
g2151
tp7401
(lp7402
(g271
g2151
tp7403
a(g354
g2151
tp7404
as(g35
S'monk'
p7405
tp7406
(lp7407
(g39
g7405
tp7408
a(g41
g7405
tp7409
as(g326
S'anchovy'
p7410
tp7411
(lp7412
(g330
g7410
tp7413
as(g149
g8
tp7414
(lp7415
(g25
g8
tp7416
as(g208
S'tissue'
p7417
tp7418
(lp7419
(g212
g7417
tp7420
as(g1897
S'boy'
p7421
tp7422
(lp7423
(g1901
g7421
tp7424
as(g1156
S'earthworm'
p7425
tp7426
(lp7427
(g1159
g7425
tp7428
as(g141
g3146
tp7429
(lp7430
(g145
g3146
tp7431
a(g147
g3146
tp7432
as(g19
g825
tp7433
(lp7434
(g23
g825
tp7435
a(g25
g825
tp7436
as(g226
S'stripper'
p7437
tp7438
(lp7439
(g230
g7437
tp7440
as(g511
g4562
tp7441
(lp7442
(g515
g4562
tp7443
a(g517
g4562
tp7444
a(g519
g4562
tp7445
as(g275
S'membrane'
p7446
tp7447
(lp7448
(g271
g7446
tp7449
a(g354
g7446
tp7450
as(g242
S'mackerel'
p7451
tp7452
(lp7453
(g238
g7451
tp7454
a(g344
g7451
tp7455
as(g756
S'monolith'
p7456
tp7457
(lp7458
(g759
g7456
tp7459
as(g72
g283
tp7460
(lp7461
(g76
g283
tp7462
a(g78
g283
tp7463
as(g131
S'steel_plate'
p7464
tp7465
(lp7466
(g135
g7464
tp7467
a(g137
g7464
tp7468
a(g139
g7464
tp7469
as(g3803
S'exhaust_pipe'
p7470
tp7471
(lp7472
(g3806
g7470
tp7473
as(g141
g2135
tp7474
(lp7475
(g145
g2135
tp7476
a(g147
g2135
tp7477
as(g49
S'gun_barrel'
p7478
tp7479
(lp7480
(g53
g7478
tp7481
a(g55
g7478
tp7482
a(g57
g7478
tp7483
a(g59
g7478
tp7484
as(g356
S'cub_scout'
p7485
tp7486
(lp7487
(g360
g7485
tp7488
as(g186
S'crypt'
p7489
tp7490
(lp7491
(g190
g7489
tp7492
a(g192
g7489
tp7493
as(g212
g336
tp7494
(lp7495
(g208
g336
tp7496
a(g590
g336
tp7497
as(g49
g7091
tp7498
(lp7499
(g53
g7091
tp7500
a(g55
g7091
tp7501
a(g57
g7091
tp7502
a(g59
g7091
tp7503
as(g299
S'doormat'
p7504
tp7505
(lp7506
(g93
g7504
tp7507
as(g176
g3427
tp7508
(lp7509
(g180
g3427
tp7510
a(g182
g3427
tp7511
a(g184
g3427
tp7512
as(g212
S'jeep'
p7513
tp7514
(lp7515
(g208
g7513
tp7516
a(g590
g7513
tp7517
as(g61
S'pug'
p7518
tp7519
(lp7520
(g65
g7518
tp7521
as(g544
g825
tp7522
(lp7523
(g548
g825
tp7524
a(g550
g825
tp7525
as(g1431
S'sportsman'
p7526
tp7527
(lp7528
(g1434
g7526
tp7529
as(g112
S'cripple'
p7530
tp7531
(lp7532
(g108
g7530
tp7533
as(g7
g1230
tp7534
(lp7535
(g11
g1230
tp7536
as(g176
S'spatula'
p7537
tp7538
(lp7539
(g180
g7537
tp7540
a(g182
g7537
tp7541
a(g184
g7537
tp7542
as(g49
g5214
tp7543
(lp7544
(g53
g5214
tp7545
a(g55
g5214
tp7546
a(g57
g5214
tp7547
a(g59
g5214
tp7548
as(g367
g916
tp7549
(lp7550
(g371
g916
tp7551
as(g406
g1124
tp7552
(lp7553
(g410
g1124
tp7554
a(g412
g1124
tp7555
a(g414
g1124
tp7556
as(g2456
S'documentary'
p7557
tp7558
(lp7559
(g2460
g7557
tp7560
a(g2462
g7557
tp7561
a(g330
g7557
tp7562
as(g31
S'doornail'
p7563
tp7564
(lp7565
(g27
g7563
tp7566
a(g1060
g7563
tp7567
as(g3509
S'snowman'
p7568
tp7569
(lp7570
(g3512
g7568
tp7571
as(g226
S'swine'
p7572
tp7573
(lp7574
(g230
g7572
tp7575
as(g184
S'songbird'
p7576
tp7577
(lp7578
(g648
g7576
tp7579
a(g650
g7576
tp7580
a(g652
g7576
tp7581
a(g182
g7576
tp7582
a(g176
g7576
tp7583
as(g120
S'waxwork'
p7584
tp7585
(lp7586
(g124
g7584
tp7587
as(g862
S'tumor'
p7588
tp7589
(lp7590
(g866
g7588
tp7591
as(g114
g1874
tp7592
(lp7593
(g118
g1874
tp7594
as(g1479
g1252
tp7595
(lp7596
(g1482
g1252
tp7597
as(g114
g2191
tp7598
(lp7599
(g118
g2191
tp7600
as(g3994
g5697
tp7601
(lp7602
(g3998
g5697
tp7603
as(g23
g3681
tp7604
(lp7605
(g19
g3681
tp7606
as(g114
g1453
tp7607
(lp7608
(g118
g1453
tp7609
as(g72
S'barnacle'
p7610
tp7611
(lp7612
(g76
g7610
tp7613
a(g78
g7610
tp7614
as(g271
g6099
tp7615
(lp7616
(g275
g6099
tp7617
as(g114
g695
tp7618
(lp7619
(g118
g695
tp7620
as(g220
S'rain'
p7621
tp7622
(lp7623
(g224
g7621
tp7624
as(S'homogenous'
p7625
g468
tp7626
(lp7627
(g820
g468
tp7628
as(g7
S'cell_wall'
p7629
tp7630
(lp7631
(g11
g7629
tp7632
as(g19
g7165
tp7633
(lp7634
(g23
g7165
tp7635
a(g25
g7165
tp7636
as(g124
g2658
tp7637
(lp7638
(g120
g2658
tp7639
as(g1408
S'boy_scout'
p7640
tp7641
(lp7642
(g1412
g7640
tp7643
as(g149
g2568
tp7644
(lp7645
(g25
g2568
tp7646
as(g414
S'jackolantern'
p7647
tp7648
(lp7649
(g406
g7647
tp7650
as(g114
g4667
tp7651
(lp7652
(g118
g4667
tp7653
as(g1033
g2329
tp7654
(lp7655
(g1037
g2329
tp7656
as(g114
g396
tp7657
(lp7658
(g118
g396
tp7659
as(g2501
g1198
tp7660
(lp7661
(g2505
g1198
tp7662
a(g2507
g1198
tp7663
as(g19
S'mountaineer'
p7664
tp7665
(lp7666
(g23
g7664
tp7667
a(g25
g7664
tp7668
as(g112
g1324
tp7669
(lp7670
(g108
g1324
tp7671
as(g124
g28
tp7672
(lp7673
(g120
g28
tp7674
as(g108
g5046
tp7675
(lp7676
(g112
g5046
tp7677
as(g202
g1799
tp7678
(lp7679
(g206
g1799
tp7680
as(g35
g150
tp7681
(lp7682
(g39
g150
tp7683
a(g41
g150
tp7684
as(g2155
g5600
tp7685
(lp7686
(g2159
g5600
tp7687
a(g2161
g5600
tp7688
as(g194
g396
tp7689
(lp7690
(g198
g396
tp7691
a(g200
g396
tp7692
as(g194
S'hairpin'
p7693
tp7694
(lp7695
(g198
g7693
tp7696
a(g200
g7693
tp7697
as(g2754
S'artisan'
p7698
tp7699
(lp7700
(g2758
g7698
tp7701
as(g208
g1713
tp7702
(lp7703
(g212
g1713
tp7704
as(g19
g5329
tp7705
(lp7706
(g23
g5329
tp7707
a(g25
g5329
tp7708
as(g61
g2183
tp7709
(lp7710
(g65
g2183
tp7711
as(g1617
S'typhoon'
p7712
tp7713
(lp7714
(g1621
g7712
tp7715
as(g393
g4421
tp7716
(lp7717
(g389
g4421
tp7718
as(g19
S'atom_bomb'
p7719
tp7720
(lp7721
(g23
g7719
tp7722
a(g25
g7719
tp7723
as(g124
g8
tp7724
(lp7725
(g120
g8
tp7726
as(g970
S'centipede'
p7727
tp7728
(lp7729
(g974
g7727
tp7730
as(g624
S'fiddler'
p7731
tp7732
(lp7733
(g180
g7731
tp7734
as(g5
g5438
tp7735
(lp7736
(g1
g5438
tp7737
as(g242
S'mullet'
p7738
tp7739
(lp7740
(g238
g7738
tp7741
a(g344
g7738
tp7742
as(g602
g4797
tp7743
(lp7744
(g606
g4797
tp7745
as(g756
g3382
tp7746
(lp7747
(g759
g3382
tp7748
as(g473
S'library_catalog'
p7749
tp7750
(lp7751
(g477
g7749
tp7752
as(g367
g1396
tp7753
(lp7754
(g371
g1396
tp7755
as(g194
g6755
tp7756
(lp7757
(g198
g6755
tp7758
a(g200
g6755
tp7759
as(g19
g7712
tp7760
(lp7761
(g23
g7712
tp7762
a(g25
g7712
tp7763
as(g108
g2621
tp7764
(lp7765
(g112
g2621
tp7766
as(g49
S'chopstick'
p7767
tp7768
(lp7769
(g53
g7767
tp7770
a(g55
g7767
tp7771
a(g57
g7767
tp7772
a(g59
g7767
tp7773
as(g688
g684
tp7774
(lp7775
(g692
g684
tp7776
as(g137
g2415
tp7777
(lp7778
(g131
g2415
tp7779
a(g452
g2415
tp7780
a(g454
g2415
tp7781
a(g456
g2415
tp7782
a(g458
g2415
tp7783
as(S'ill'
p7784
g2293
tp7785
(lp7786
(g1626
g2293
tp7787
as(g131
g4545
tp7788
(lp7789
(g135
g4545
tp7790
a(g137
g4545
tp7791
a(g139
g4545
tp7792
as(g114
g2940
tp7793
(lp7794
(g118
g2940
tp7795
as(g72
g3382
tp7796
(lp7797
(g76
g3382
tp7798
a(g78
g3382
tp7799
as(g27
g1656
tp7800
(lp7801
(g31
g1656
tp7802
a(g33
g1656
tp7803
as(g2754
S'artist'
p7804
tp7805
(lp7806
(g2758
g7804
tp7807
as(g208
g3198
tp7808
(lp7809
(g212
g3198
tp7810
as(g220
S'sop'
p7811
tp7812
(lp7813
(g224
g7811
tp7814
as(g7
S'logic_diagram'
p7815
tp7816
(lp7817
(g11
g7815
tp7818
as(g49
g2032
tp7819
(lp7820
(g53
g2032
tp7821
a(g55
g2032
tp7822
a(g57
g2032
tp7823
a(g59
g2032
tp7824
as(g19
g1586
tp7825
(lp7826
(g23
g1586
tp7827
a(g25
g1586
tp7828
as(g271
S'destroyer'
p7829
tp7830
(lp7831
(g275
g7829
tp7832
as(g650
g801
tp7833
(lp7834
(g184
g801
tp7835
as(g7347
g7126
tp7836
(lp7837
(g7351
g7126
tp7838
as(g414
g797
tp7839
(lp7840
(g406
g797
tp7841
as(g2267
g7178
tp7842
(lp7843
(g2271
g7178
tp7844
a(g2273
g7178
tp7845
as(g275
S'pebble'
p7846
tp7847
(lp7848
(g271
g7846
tp7849
a(g354
g7846
tp7850
as(g242
g3343
tp7851
(lp7852
(g238
g3343
tp7853
a(g344
g3343
tp7854
as(g1623
g3388
tp7855
(lp7856
(g1626
g3388
tp7857
as(g108
S'comet'
p7858
tp7859
(lp7860
(g112
g7858
tp7861
as(g511
g5678
tp7862
(lp7863
(g515
g5678
tp7864
a(g517
g5678
tp7865
a(g519
g5678
tp7866
as(g242
S'dictionary'
p7867
tp7868
(lp7869
(g238
g7867
tp7870
a(g344
g7867
tp7871
as(g7
S'clamp'
p7872
tp7873
(lp7874
(g11
g7872
tp7875
as(g19
g743
tp7876
(lp7877
(g23
g743
tp7878
a(g25
g743
tp7879
as(g176
S'dart'
p7880
tp7881
(lp7882
(g180
g7880
tp7883
a(g182
g7880
tp7884
a(g184
g7880
tp7885
as(g61
S'mud'
p7886
tp7887
(lp7888
(g65
g7886
tp7889
as(g61
g4611
tp7890
(lp7891
(g65
g4611
tp7892
as(g271
g4466
tp7893
(lp7894
(g275
g4466
tp7895
as(g393
S'ghost_town'
p7896
tp7897
(lp7898
(g389
g7896
tp7899
as(g271
g2324
tp7900
(lp7901
(g275
g2324
tp7902
as(g149
g656
tp7903
(lp7904
(g25
g656
tp7905
as(g367
g350
tp7906
(lp7907
(g371
g350
tp7908
as(g2057
S'megaton_bomb'
p7909
tp7910
(lp7911
(g2061
g7909
tp7912
as(g275
g5305
tp7913
(lp7914
(g271
g5305
tp7915
a(g354
g5305
tp7916
as(g698
S'queen_bee'
p7917
tp7918
(lp7919
(g694
g7917
tp7920
as(g682
g272
tp7921
(lp7922
(g678
g272
tp7923
as(g1779
S'kudzu_vine'
p7924
tp7925
(lp7926
(g1783
g7924
tp7927
as(g19
g301
tp7928
(lp7929
(g23
g301
tp7930
a(g25
g301
tp7931
as(g496
S'pike'
p7932
tp7933
(lp7934
(g500
g7932
tp7935
as(g23
g2552
tp7936
(lp7937
(g19
g2552
tp7938
as(g49
S'arrow'
p7939
tp7940
(lp7941
(g53
g7939
tp7942
a(g55
g7939
tp7943
a(g57
g7939
tp7944
a(g59
g7939
tp7945
as(g5
g965
tp7946
(lp7947
(g1
g965
tp7948
as(g624
S'nightingale'
p7949
tp7950
(lp7951
(g180
g7949
tp7952
as(g1457
g2527
tp7953
(lp7954
(g1461
g2527
tp7955
as(g5445
S'trickle'
p7956
tp7957
(lp7958
(g5448
g7956
tp7959
a(g5450
g7956
tp7960
as(g137
g3219
tp7961
(lp7962
(g131
g3219
tp7963
a(g452
g3219
tp7964
a(g454
g3219
tp7965
a(g456
g3219
tp7966
a(g458
g3219
tp7967
as(g108
S'microwave'
p7968
tp7969
(lp7970
(g112
g7968
tp7971
as(g93
S'monkey'
p7972
tp7973
(lp7974
(g89
g7972
tp7975
a(g291
g7972
tp7976
a(g293
g7972
tp7977
a(g295
g7972
tp7978
a(g297
g7972
tp7979
a(g299
g7972
tp7980
as(g131
g1284
tp7981
(lp7982
(g135
g1284
tp7983
a(g137
g1284
tp7984
a(g139
g1284
tp7985
as(g1007
S'stampede'
p7986
tp7987
(lp7988
(g1011
g7986
tp7989
as(g716
g7588
tp7990
(lp7991
(g720
g7588
tp7992
as(g114
g8
tp7993
(lp7994
(g118
g8
tp7995
as(g19
S'daisy_cutter'
p7996
tp7997
(lp7998
(g23
g7996
tp7999
a(g25
g7996
tp8000
as(g1
S'worker_bee'
p8001
tp8002
(lp8003
(g5
g8001
tp8004
as(g19
g1051
tp8005
(lp8006
(g23
g1051
tp8007
a(g25
g1051
tp8008
as(g1338
g1453
tp8009
(lp8010
(g1341
g1453
tp8011
as(g184
S'toupee'
p8012
tp8013
(lp8014
(g648
g8012
tp8015
a(g650
g8012
tp8016
a(g652
g8012
tp8017
a(g182
g8012
tp8018
a(g176
g8012
tp8019
as(g208
g5072
tp8020
(lp8021
(g212
g5072
tp8022
as(g19
g812
tp8023
(lp8024
(g23
g812
tp8025
a(g25
g812
tp8026
as(g682
g1210
tp8027
(lp8028
(g678
g1210
tp8029
as(g2754
g2527
tp8030
(lp8031
(g2758
g2527
tp8032
as(g716
S'bra'
p8033
tp8034
(lp8035
(g720
g8033
tp8036
as(g131
g7370
tp8037
(lp8038
(g135
g7370
tp8039
a(g137
g7370
tp8040
a(g139
g7370
tp8041
as(g271
g2151
tp8042
(lp8043
(g275
g2151
tp8044
as(g35
g5198
tp8045
(lp8046
(g39
g5198
tp8047
a(g41
g5198
tp8048
as(g176
g396
tp8049
(lp8050
(g180
g396
tp8051
a(g182
g396
tp8052
a(g184
g396
tp8053
as(g72
g2415
tp8054
(lp8055
(g76
g2415
tp8056
a(g78
g2415
tp8057
as(g544
g2658
tp8058
(lp8059
(g548
g2658
tp8060
a(g550
g2658
tp8061
as(g208
g3262
tp8062
(lp8063
(g212
g3262
tp8064
as(g19
g916
tp8065
(lp8066
(g23
g916
tp8067
a(g25
g916
tp8068
as(g2636
g534
tp8069
(lp8070
(g2640
g534
tp8071
as(g406
g1774
tp8072
(lp8073
(g410
g1774
tp8074
a(g412
g1774
tp8075
a(g414
g1774
tp8076
as(g72
g390
tp8077
(lp8078
(g76
g390
tp8079
a(g78
g390
tp8080
as(g176
g6981
tp8081
(lp8082
(g180
g6981
tp8083
a(g182
g6981
tp8084
a(g184
g6981
tp8085
as(g108
S'puma'
p8086
tp8087
(lp8088
(g112
g8086
tp8089
as(g19
S'wild_boar'
p8090
tp8091
(lp8092
(g23
g8090
tp8093
a(g25
g8090
tp8094
as(g1431
g1607
tp8095
(lp8096
(g1434
g1607
tp8097
as(g242
g684
tp8098
(lp8099
(g238
g684
tp8100
a(g344
g684
tp8101
as(g226
S'sewer_rat'
p8102
tp8103
(lp8104
(g230
g8102
tp8105
as(g72
S'tennis_racquet'
p8106
tp8107
(lp8108
(g76
g8106
tp8109
a(g78
g8106
tp8110
as(g733
g3296
tp8111
(lp8112
(g737
g3296
tp8113
as(g208
S'neurosurgeon'
p8114
tp8115
(lp8116
(g212
g8114
tp8117
as(g473
g5036
tp8118
(lp8119
(g477
g5036
tp8120
as(g149
S'hardtop'
p8121
tp8122
(lp8123
(g25
g8121
tp8124
as(g473
g5600
tp8125
(lp8126
(g477
g5600
tp8127
as(g114
g278
tp8128
(lp8129
(g118
g278
tp8130
as(g1817
S'tightrope'
p8131
tp8132
(lp8133
(g1821
g8131
tp8134
a(g1823
g8131
tp8135
as(g108
g1013
tp8136
(lp8137
(g112
g1013
tp8138
as(g131
g3202
tp8139
(lp8140
(g135
g3202
tp8141
a(g137
g3202
tp8142
a(g139
g3202
tp8143
as(g208
g5507
tp8144
(lp8145
(g212
g5507
tp8146
as(g277
g679
tp8147
(lp8148
(g281
g679
tp8149
as(g371
g384
tp8150
(lp8151
(g367
g384
tp8152
as(g23
S'willow_tree'
p8153
tp8154
(lp8155
(g19
g8153
tp8156
as(g149
g592
tp8157
(lp8158
(g25
g592
tp8159
as(g2419
S'rumor'
p8160
tp8161
(lp8162
(g2422
g8160
tp8163
as(g6580
S'birth'
p8164
tp8165
(lp8166
(g6584
g8164
tp8167
as(g2636
S'sigh'
p8168
tp8169
(lp8170
(g2640
g8168
tp8171
as(g275
S'grasshopper'
p8172
tp8173
(lp8174
(g271
g8172
tp8175
a(g354
g8172
tp8176
as(g19
g4776
tp8177
(lp8178
(g23
g4776
tp8179
a(g25
g4776
tp8180
as(g943
g5734
tp8181
(lp8182
(g947
g5734
tp8183
as(g112
g3142
tp8184
(lp8185
(g108
g3142
tp8186
as(g61
g3665
tp8187
(lp8188
(g65
g3665
tp8189
as(g511
g1056
tp8190
(lp8191
(g515
g1056
tp8192
a(g517
g1056
tp8193
a(g519
g1056
tp8194
as(g1779
g2788
tp8195
(lp8196
(g1783
g2788
tp8197
as(g242
S'stomach_pump'
p8198
tp8199
(lp8200
(g238
g8198
tp8201
a(g344
g8198
tp8202
as(g367
g4588
tp8203
(lp8204
(g371
g4588
tp8205
as(g49
g432
tp8206
(lp8207
(g53
g432
tp8208
a(g55
g432
tp8209
a(g57
g432
tp8210
a(g59
g432
tp8211
as(g19
g1523
tp8212
(lp8213
(g23
g1523
tp8214
a(g25
g1523
tp8215
as(g1043
S'manicure'
p8216
tp8217
(lp8218
(g1047
g8216
tp8219
a(g1049
g8216
tp8220
as(g23
g357
tp8221
(lp8222
(g19
g357
tp8223
as(g406
g3594
tp8224
(lp8225
(g410
g3594
tp8226
a(g412
g3594
tp8227
a(g414
g3594
tp8228
as(g108
S'missile'
p8229
tp8230
(lp8231
(g112
g8229
tp8232
as(g271
S'artillery_shell'
p8233
tp8234
(lp8235
(g275
g8233
tp8236
as(g114
g850
tp8237
(lp8238
(g118
g850
tp8239
as(g1431
g2982
tp8240
(lp8241
(g1434
g2982
tp8242
as(g678
g3382
tp8243
(lp8244
(g682
g3382
tp8245
as(g473
S'root_canal'
p8246
tp8247
(lp8248
(g477
g8246
tp8249
as(g61
g227
tp8250
(lp8251
(g65
g227
tp8252
as(g31
g4084
tp8253
(lp8254
(g27
g4084
tp8255
a(g1060
g4084
tp8256
as(g176
S'edge'
p8257
tp8258
(lp8259
(g180
g8257
tp8260
a(g182
g8257
tp8261
a(g184
g8257
tp8262
as(g186
g2375
tp8263
(lp8264
(g190
g2375
tp8265
a(g192
g2375
tp8266
as(g1007
S'lattice'
p8267
tp8268
(lp8269
(g1011
g8267
tp8270
as(g208
g5438
tp8271
(lp8272
(g212
g5438
tp8273
as(g682
g3700
tp8274
(lp8275
(g678
g3700
tp8276
as(g367
g1736
tp8277
(lp8278
(g371
g1736
tp8279
as(g5861
g4636
tp8280
(lp8281
(g5864
g4636
tp8282
a(g5866
g4636
tp8283
a(g5868
g4636
tp8284
as(g506
S'sport'
p8285
tp8286
(lp8287
(g509
g8285
tp8288
as(g131
S'tire_iron'
p8289
tp8290
(lp8291
(g135
g8289
tp8292
a(g137
g8289
tp8293
a(g139
g8289
tp8294
as(g3509
g6788
tp8295
(lp8296
(g3512
g6788
tp8297
as(g112
S'hearse'
p8298
tp8299
(lp8300
(g108
g8298
tp8301
as(g35
S'ballpoint_pen'
p8302
tp8303
(lp8304
(g39
g8302
tp8305
a(g41
g8302
tp8306
as(g114
g2991
tp8307
(lp8308
(g118
g2991
tp8309
as(g198
g4050
tp8310
(lp8311
(g194
g4050
tp8312
a(g170
g4050
tp8313
as(g1707
S'grapefruit'
p8314
tp8315
(lp8316
(g1711
g8314
tp8317
as(g23
S'pygmy'
p8318
tp8319
(lp8320
(g19
g8318
tp8321
as(g108
g3900
tp8322
(lp8323
(g112
g3900
tp8324
as(g496
g5765
tp8325
(lp8326
(g500
g5765
tp8327
as(g72
g1518
tp8328
(lp8329
(g76
g1518
tp8330
a(g78
g1518
tp8331
as(g19
S'striker'
p8332
tp8333
(lp8334
(g23
g8332
tp8335
a(g25
g8332
tp8336
as(g1479
g1960
tp8337
(lp8338
(g1482
g1960
tp8339
as(g230
S'nun'
p8340
tp8341
(lp8342
(g226
g8340
tp8343
a(g236
g8340
tp8344
as(g114
g1490
tp8345
(lp8346
(g118
g1490
tp8347
as(g1897
S'girdle'
p8348
tp8349
(lp8350
(g1901
g8348
tp8351
as(g412
S'money_market'
p8352
tp8353
(lp8354
(g410
g8352
tp8355
a(g406
g8352
tp8356
a(g484
g8352
tp8357
as(g19
S'superman'
p8358
tp8359
(lp8360
(g23
g8358
tp8361
a(g25
g8358
tp8362
as(g114
g872
tp8363
(lp8364
(g118
g872
tp8365
as(g970
g2621
tp8366
(lp8367
(g974
g2621
tp8368
as(g367
S'matador'
p8369
tp8370
(lp8371
(g371
g8369
tp8372
as(g544
g1380
tp8373
(lp8374
(g548
g1380
tp8375
a(g550
g1380
tp8376
as(g49
S'rake'
p8377
tp8378
(lp8379
(g53
g8377
tp8380
a(g55
g8377
tp8381
a(g57
g8377
tp8382
a(g59
g8377
tp8383
as(g166
g734
tp8384
(lp8385
(g170
g734
tp8386
as(g112
S'granny'
p8387
tp8388
(lp8389
(g108
g8387
tp8390
as(g220
g8102
tp8391
(lp8392
(g224
g8102
tp8393
as(g27
g1310
tp8394
(lp8395
(g31
g1310
tp8396
a(g33
g1310
tp8397
as(g1479
g3758
tp8398
(lp8399
(g1482
g3758
tp8400
as(g61
S'tiger_shark'
p8401
tp8402
(lp8403
(g65
g8401
tp8404
as(g389
S'tick'
p8405
tp8406
(lp8407
(g393
g8405
tp8408
a(g39
g8405
tp8409
as(g393
g3477
tp8410
(lp8411
(g389
g3477
tp8412
as(g176
S'cudgel'
p8413
tp8414
(lp8415
(g180
g8413
tp8416
a(g182
g8413
tp8417
a(g184
g8413
tp8418
as(g176
g6532
tp8419
(lp8420
(g180
g6532
tp8421
a(g182
g6532
tp8422
a(g184
g6532
tp8423
as(g2598
g3497
tp8424
(lp8425
(g2601
g3497
tp8426
as(g114
S'matron'
p8427
tp8428
(lp8429
(g118
g8427
tp8430
as(g1479
g278
tp8431
(lp8432
(g1482
g278
tp8433
as(g194
S'yogi'
p8434
tp8435
(lp8436
(g198
g8434
tp8437
a(g200
g8434
tp8438
as(g275
g2771
tp8439
(lp8440
(g271
g2771
tp8441
a(g354
g2771
tp8442
as(g194
S'noodle'
p8443
tp8444
(lp8445
(g198
g8443
tp8446
a(g200
g8443
tp8447
as(g61
S'harp_seal'
p8448
tp8449
(lp8450
(g65
g8448
tp8451
as(g406
g1189
tp8452
(lp8453
(g410
g1189
tp8454
a(g412
g1189
tp8455
a(g414
g1189
tp8456
as(g72
g8348
tp8457
(lp8458
(g76
g8348
tp8459
a(g78
g8348
tp8460
as(g271
S'bus'
p8461
tp8462
(lp8463
(g275
g8461
tp8464
as(g35
g1868
tp8465
(lp8466
(g39
g1868
tp8467
a(g41
g1868
tp8468
as(g61
S'war_zone'
p8469
tp8470
(lp8471
(g65
g8469
tp8472
as(g149
g6395
tp8473
(lp8474
(g25
g6395
tp8475
as(g440
S'goldfish_bowl'
p8476
tp8477
(lp8478
(g444
g8476
tp8479
a(g446
g8476
tp8480
as(g141
g2004
tp8481
(lp8482
(g145
g2004
tp8483
a(g147
g2004
tp8484
as(g19
g850
tp8485
(lp8486
(g23
g850
tp8487
a(g25
g850
tp8488
as(g2456
g2637
tp8489
(lp8490
(g2460
g2637
tp8491
a(g2462
g2637
tp8492
a(g330
g2637
tp8493
as(g473
g805
tp8494
(lp8495
(g477
g805
tp8496
as(g19
S'twister'
p8497
tp8498
(lp8499
(g23
g8497
tp8500
a(g25
g8497
tp8501
as(g7
g6147
tp8502
(lp8503
(g11
g6147
tp8504
as(g506
g1328
tp8505
(lp8506
(g509
g1328
tp8507
as(g383
g6433
tp8508
(lp8509
(g387
g6433
tp8510
as(g1897
S'girl'
p8511
tp8512
(lp8513
(g1901
g8511
tp8514
as(g682
g1151
tp8515
(lp8516
(g678
g1151
tp8517
as(g2155
S'jelly_bean'
p8518
tp8519
(lp8520
(g2159
g8518
tp8521
a(g2161
g8518
tp8522
as(g5430
g2928
tp8523
(lp8524
(g5433
g2928
tp8525
as(g862
g3377
tp8526
(lp8527
(g866
g3377
tp8528
as(g149
g8377
tp8529
(lp8530
(g25
g8377
tp8531
as(g49
g6170
tp8532
(lp8533
(g53
g6170
tp8534
a(g55
g6170
tp8535
a(g57
g6170
tp8536
a(g59
g6170
tp8537
as(g3994
S'richelieu'
p8538
tp8539
(lp8540
(g3998
g8538
tp8541
as(g367
g5697
tp8542
(lp8543
(g371
g5697
tp8544
as(g49
g4645
tp8545
(lp8546
(g53
g4645
tp8547
a(g55
g4645
tp8548
a(g57
g4645
tp8549
a(g59
g4645
tp8550
as(g49
g3928
tp8551
(lp8552
(g53
g3928
tp8553
a(g55
g3928
tp8554
a(g57
g3928
tp8555
a(g59
g3928
tp8556
as(g1707
g7178
tp8557
(lp8558
(g1711
g7178
tp8559
as(g511
g5438
tp8560
(lp8561
(g515
g5438
tp8562
a(g517
g5438
tp8563
a(g519
g5438
tp8564
as(g31
g8
tp8565
(lp8566
(g27
g8
tp8567
a(g1060
g8
tp8568
as(g149
S'crutch'
p8569
tp8570
(lp8571
(g25
g8569
tp8572
as(g184
S'bowel_movement'
p8573
tp8574
(lp8575
(g648
g8573
tp8576
a(g650
g8573
tp8577
a(g652
g8573
tp8578
a(g182
g8573
tp8579
a(g176
g8573
tp8580
as(g84
g2893
tp8581
(lp8582
(g87
g2893
tp8583
as(g511
g2893
tp8584
(lp8585
(g515
g2893
tp8586
a(g517
g2893
tp8587
a(g519
g2893
tp8588
as(g473
S'supercomputer'
p8589
tp8590
(lp8591
(g477
g8589
tp8592
as(g652
S'grace'
p8593
tp8594
(lp8595
(g184
g8593
tp8596
as(g271
g6614
tp8597
(lp8598
(g275
g6614
tp8599
as(g367
S'antelope'
p8600
tp8601
(lp8602
(g371
g8600
tp8603
as(g93
g613
tp8604
(lp8605
(g89
g613
tp8606
a(g291
g613
tp8607
a(g293
g613
tp8608
a(g295
g613
tp8609
a(g297
g613
tp8610
a(g299
g613
tp8611
as(g367
g5198
tp8612
(lp8613
(g371
g5198
tp8614
as(g108
g5261
tp8615
(lp8616
(g112
g5261
tp8617
as(g2267
S'fishing_worm'
p8618
tp8619
(lp8620
(g2271
g8618
tp8621
a(g2273
g8618
tp8622
as(g208
S'blossom'
p8623
tp8624
(lp8625
(g212
g8623
tp8626
as(g230
S'truck_stop'
p8627
tp8628
(lp8629
(g226
g8627
tp8630
a(g236
g8627
tp8631
as(g473
S'fusion_reactor'
p8632
tp8633
(lp8634
(g477
g8632
tp8635
as(g137
g3745
tp8636
(lp8637
(g131
g3745
tp8638
a(g452
g3745
tp8639
a(g454
g3745
tp8640
a(g456
g3745
tp8641
a(g458
g3745
tp8642
as(g406
g3202
tp8643
(lp8644
(g410
g3202
tp8645
a(g412
g3202
tp8646
a(g414
g3202
tp8647
as(g114
S'cape_buffalo'
p8648
tp8649
(lp8650
(g118
g8648
tp8651
as(g652
S'miracle'
p8652
tp8653
(lp8654
(g184
g8652
tp8655
as(g2456
g2111
tp8656
(lp8657
(g2460
g2111
tp8658
a(g2462
g2111
tp8659
a(g330
g2111
tp8660
as(g1043
g3602
tp8661
(lp8662
(g1047
g3602
tp8663
a(g1049
g3602
tp8664
as(g242
S'cruise_missile'
p8665
tp8666
(lp8667
(g238
g8665
tp8668
a(g344
g8665
tp8669
as(g688
S'broiler'
p8670
tp8671
(lp8672
(g692
g8670
tp8673
as(g27
g3142
tp8674
(lp8675
(g31
g3142
tp8676
a(g33
g3142
tp8677
as(g137
S'ear_lobe'
p8678
tp8679
(lp8680
(g131
g8678
tp8681
a(g452
g8678
tp8682
a(g454
g8678
tp8683
a(g456
g8678
tp8684
a(g458
g8678
tp8685
as(g93
S'squirrel'
p8686
tp8687
(lp8688
(g89
g8686
tp8689
a(g291
g8686
tp8690
a(g293
g8686
tp8691
a(g295
g8686
tp8692
a(g297
g8686
tp8693
a(g299
g8686
tp8694
as(g166
g3700
tp8695
(lp8696
(g170
g3700
tp8697
as(g114
g6614
tp8698
(lp8699
(g118
g6614
tp8700
as(g3509
g1218
tp8701
(lp8702
(g3512
g1218
tp8703
as(g149
S'broomstick'
p8704
tp8705
(lp8706
(g25
g8704
tp8707
as(g2754
S'grandmaster'
p8708
tp8709
(lp8710
(g2758
g8708
tp8711
as(g406
g3758
tp8712
(lp8713
(g410
g3758
tp8714
a(g412
g3758
tp8715
a(g414
g3758
tp8716
as(g750
g5697
tp8717
(lp8718
(g754
g5697
tp8719
as(g23
g534
tp8720
(lp8721
(g19
g534
tp8722
as(g13
g420
tp8723
(lp8724
(g17
g420
tp8725
as(g108
S'bobsled'
p8726
tp8727
(lp8728
(g112
g8726
tp8729
as(g35
S'suckling_pig'
p8730
tp8731
(lp8732
(g39
g8730
tp8733
a(g41
g8730
tp8734
as(g49
g2587
tp8735
(lp8736
(g53
g2587
tp8737
a(g55
g2587
tp8738
a(g57
g2587
tp8739
a(g59
g2587
tp8740
as(g208
g5678
tp8741
(lp8742
(g212
g5678
tp8743
as(g176
g3219
tp8744
(lp8745
(g180
g3219
tp8746
a(g182
g3219
tp8747
a(g184
g3219
tp8748
as(g716
S'wife'
p8749
tp8750
(lp8751
(g720
g8749
tp8752
as(g176
S'awl'
p8753
tp8754
(lp8755
(g180
g8753
tp8756
a(g182
g8753
tp8757
a(g184
g8753
tp8758
as(g23
g4948
tp8759
(lp8760
(g19
g4948
tp8761
as(g242
S'chick'
p8762
tp8763
(lp8764
(g238
g8762
tp8765
a(g344
g8762
tp8766
as(g1479
g4039
tp8767
(lp8768
(g1482
g4039
tp8769
as(g226
S'ditch_digger'
p8770
tp8771
(lp8772
(g230
g8770
tp8773
as(g214
g1072
tp8774
(lp8775
(g218
g1072
tp8776
as(g367
S'ballet_dancer'
p8777
tp8778
(lp8779
(g371
g8777
tp8780
as(g176
g1151
tp8781
(lp8782
(g180
g1151
tp8783
a(g182
g1151
tp8784
a(g184
g1151
tp8785
as(g406
S'shield'
p8786
tp8787
(lp8788
(g410
g8786
tp8789
a(g412
g8786
tp8790
a(g414
g8786
tp8791
as(g511
S'rose'
p8792
tp8793
(lp8794
(g515
g8792
tp8795
a(g517
g8792
tp8796
a(g519
g8792
tp8797
as(g367
g3250
tp8798
(lp8799
(g371
g3250
tp8800
as(g2996
g4772
tp8801
(lp8802
(g3000
g4772
tp8803
a(g3002
g4772
tp8804
a(g84
g4772
tp8805
a(g3005
g4772
tp8806
as(g682
g679
tp8807
(lp8808
(g678
g679
tp8809
as(g176
g4620
tp8810
(lp8811
(g180
g4620
tp8812
a(g182
g4620
tp8813
a(g184
g4620
tp8814
as(g682
g629
tp8815
(lp8816
(g678
g629
tp8817
as(g698
g898
tp8818
(lp8819
(g694
g898
tp8820
as(g194
S'garden_hose'
p8821
tp8822
(lp8823
(g198
g8821
tp8824
a(g200
g8821
tp8825
as(g230
g2552
tp8826
(lp8827
(g226
g2552
tp8828
a(g236
g2552
tp8829
as(g367
S'swordsman'
p8830
tp8831
(lp8832
(g371
g8830
tp8833
as(g194
g2359
tp8834
(lp8835
(g198
g2359
tp8836
a(g200
g2359
tp8837
as(g393
S'wasteland'
p8838
tp8839
(lp8840
(g389
g8838
tp8841
as(g682
g1106
tp8842
(lp8843
(g678
g1106
tp8844
as(g271
g5874
tp8845
(lp8846
(g275
g5874
tp8847
as(g149
g2839
tp8848
(lp8849
(g25
g2839
tp8850
as(S'heterosexual'
p8851
S'playboy'
p8852
tp8853
(lp8854
(S'bisexual'
p8855
g8852
tp8856
a(S'homosexual'
p8857
g8852
tp8858
as(g2754
g1634
tp8859
(lp8860
(g2758
g1634
tp8861
as(g49
g7880
tp8862
(lp8863
(g53
g7880
tp8864
a(g55
g7880
tp8865
a(g57
g7880
tp8866
a(g59
g7880
tp8867
as(g120
g8
tp8868
(lp8869
(g124
g8
tp8870
as(g149
g3142
tp8871
(lp8872
(g25
g3142
tp8873
as(g149
S'broom'
p8874
tp8875
(lp8876
(g25
g8874
tp8877
as(g112
g6036
tp8878
(lp8879
(g108
g6036
tp8880
as(g124
S'mountie'
p8881
tp8882
(lp8883
(g120
g8881
tp8884
as(g277
S'wheat_germ'
p8885
tp8886
(lp8887
(g281
g8885
tp8888
as(g208
S'ladybird'
p8889
tp8890
(lp8891
(g212
g8889
tp8892
as(g35
g4986
tp8893
(lp8894
(g39
g4986
tp8895
a(g41
g4986
tp8896
as(g682
g1133
tp8897
(lp8898
(g678
g1133
tp8899
as(g275
S'veil'
p8900
tp8901
(lp8902
(g271
g8900
tp8903
a(g354
g8900
tp8904
as(g406
g906
tp8905
(lp8906
(g410
g906
tp8907
a(g412
g906
tp8908
a(g414
g906
tp8909
as(g242
S'thong'
p8910
tp8911
(lp8912
(g238
g8910
tp8913
a(g344
g8910
tp8914
as(g7118
g2183
tp8915
(lp8916
(g7121
g2183
tp8917
as(g1779
S'chinese_puzzle'
p8918
tp8919
(lp8920
(g1783
g8918
tp8921
as(g2996
g6361
tp8922
(lp8923
(g3000
g6361
tp8924
a(g3002
g6361
tp8925
a(g84
g6361
tp8926
a(g3005
g6361
tp8927
as(g108
g7017
tp8928
(lp8929
(g112
g7017
tp8930
as(g650
g4962
tp8931
(lp8932
(g184
g4962
tp8933
as(g277
S'junk_food'
p8934
tp8935
(lp8936
(g281
g8934
tp8937
as(g137
S'blanket'
p8938
tp8939
(lp8940
(g131
g8938
tp8941
a(g452
g8938
tp8942
a(g454
g8938
tp8943
a(g456
g8938
tp8944
a(g458
g8938
tp8945
as(g72
S'leotard'
p8946
tp8947
(lp8948
(g76
g8946
tp8949
a(g78
g8946
tp8950
as(g220
g272
tp8951
(lp8952
(g224
g272
tp8953
as(g2419
g264
tp8954
(lp8955
(g2422
g264
tp8956
as(g176
g6755
tp8957
(lp8958
(g180
g6755
tp8959
a(g182
g6755
tp8960
a(g184
g6755
tp8961
as(g13
g3868
tp8962
(lp8963
(g17
g3868
tp8964
as(g19
g781
tp8965
(lp8966
(g23
g781
tp8967
a(g25
g781
tp8968
as(g414
S'cave'
p8969
tp8970
(lp8971
(g406
g8969
tp8972
as(g131
g1088
tp8973
(lp8974
(g135
g1088
tp8975
a(g137
g1088
tp8976
a(g139
g1088
tp8977
as(g212
g20
tp8978
(lp8979
(g208
g20
tp8980
a(g590
g20
tp8981
as(g112
g2337
tp8982
(lp8983
(g108
g2337
tp8984
as(g186
S'picture'
p8985
tp8986
(lp8987
(g190
g8985
tp8988
a(g192
g8985
tp8989
as(g108
g679
tp8990
(lp8991
(g112
g679
tp8992
as(g176
g1343
tp8993
(lp8994
(g180
g1343
tp8995
a(g182
g1343
tp8996
a(g184
g1343
tp8997
as(g733
g1774
tp8998
(lp8999
(g737
g1774
tp9000
as(g67
S'moped'
p9001
tp9002
(lp9003
(g25
g9001
tp9004
as(g406
g8
tp9005
(lp9006
(g410
g8
tp9007
a(g412
g8
tp9008
a(g414
g8
tp9009
as(g1197
g739
tp9010
(lp9011
(g1201
g739
tp9012
as(g511
S'maggot'
p9013
tp9014
(lp9015
(g515
g9013
tp9016
a(g517
g9013
tp9017
a(g519
g9013
tp9018
as(g194
S'bamboo'
p9019
tp9020
(lp9021
(g198
g9019
tp9022
a(g200
g9019
tp9023
as(g166
g707
tp9024
(lp9025
(g170
g707
tp9026
as(g2057
S'meteor_shower'
p9027
tp9028
(lp9029
(g2061
g9027
tp9030
as(g367
g5438
tp9031
(lp9032
(g371
g5438
tp9033
as(g970
g868
tp9034
(lp9035
(g974
g868
tp9036
as(g149
g2880
tp9037
(lp9038
(g25
g2880
tp9039
as(g114
S'pirate'
p9040
tp9041
(lp9042
(g118
g9040
tp9043
as(g3249
g2920
tp9044
(lp9045
(g3253
g2920
tp9046
as(g23
g1763
tp9047
(lp9048
(g19
g1763
tp9049
as(g114
g3364
tp9050
(lp9051
(g118
g3364
tp9052
as(g53
S'quack'
p9053
tp9054
(lp9055
(g49
g9053
tp9056
as(g1479
g560
tp9057
(lp9058
(g1482
g560
tp9059
as(g19
g448
tp9060
(lp9061
(g23
g448
tp9062
a(g25
g448
tp9063
as(g7
S'fatwah'
p9064
tp9065
(lp9066
(g11
g9064
tp9067
as(g61
g3343
tp9068
(lp9069
(g65
g3343
tp9070
as(g35
g2191
tp9071
(lp9072
(g39
g2191
tp9073
a(g41
g2191
tp9074
as(g688
S'sirloin'
p9075
tp9076
(lp9077
(g692
g9075
tp9078
as(g114
g2876
tp9079
(lp9080
(g118
g2876
tp9081
as(g2057
g5588
tp9082
(lp9083
(g2061
g5588
tp9084
as(g414
S'drain'
p9085
tp9086
(lp9087
(g406
g9085
tp9088
as(g2598
S'cliche'
p9089
tp9090
(lp9091
(g2601
g9089
tp9092
as(g367
g3262
tp9093
(lp9094
(g371
g3262
tp9095
as(g108
S'blink'
p9096
tp9097
(lp9098
(g112
g9096
tp9099
as(g230
S'palace'
p9100
tp9101
(lp9102
(g226
g9100
tp9103
a(g236
g9100
tp9104
as(g756
g8
tp9105
(lp9106
(g759
g8
tp9107
as(g131
S'mike_tyson'
p9108
tp9109
(lp9110
(g135
g9108
tp9111
a(g137
g9108
tp9112
a(g139
g9108
tp9113
as(g53
g6876
tp9114
(lp9115
(g49
g6876
tp9116
as(g5145
S'field_mouse'
p9117
tp9118
(lp9119
(g5149
g9117
tp9120
as(g406
g5808
tp9121
(lp9122
(g410
g5808
tp9123
a(g412
g5808
tp9124
a(g414
g5808
tp9125
as(g1197
g90
tp9126
(lp9127
(g1201
g90
tp9128
as(g108
g707
tp9129
(lp9130
(g112
g707
tp9131
as(g53
S'water_moccasin'
p9132
tp9133
(lp9134
(g49
g9132
tp9135
as(g112
g2191
tp9136
(lp9137
(g108
g2191
tp9138
as(g49
g3347
tp9139
(lp9140
(g53
g3347
tp9141
a(g55
g3347
tp9142
a(g57
g3347
tp9143
a(g59
g3347
tp9144
as(g49
g841
tp9145
(lp9146
(g53
g841
tp9147
a(g55
g841
tp9148
a(g57
g841
tp9149
a(g59
g841
tp9150
as(g35
S'finger'
p9151
tp9152
(lp9153
(g39
g9151
tp9154
a(g41
g9151
tp9155
as(g72
S'vise'
p9156
tp9157
(lp9158
(g76
g9156
tp9159
a(g78
g9156
tp9160
as(g19
S'chipmunk'
p9161
tp9162
(lp9163
(g23
g9161
tp9164
a(g25
g9161
tp9165
as(g61
S'fart'
p9166
tp9167
(lp9168
(g65
g9166
tp9169
as(g367
g7087
tp9170
(lp9171
(g371
g7087
tp9172
as(g275
g1652
tp9173
(lp9174
(g271
g1652
tp9175
a(g354
g1652
tp9176
as(g7
g5028
tp9177
(lp9178
(g11
g5028
tp9179
as(g141
S'grater'
p9180
tp9181
(lp9182
(g145
g9180
tp9183
a(g147
g9180
tp9184
as(g7
S'telegraph_post'
p9185
tp9186
(lp9187
(g11
g9185
tp9188
as(g137
S'roadside'
p9189
tp9190
(lp9191
(g131
g9189
tp9192
a(g452
g9189
tp9193
a(g454
g9189
tp9194
a(g456
g9189
tp9195
a(g458
g9189
tp9196
as(g393
g8969
tp9197
(lp9198
(g389
g8969
tp9199
as(g131
S'flint'
p9200
tp9201
(lp9202
(g135
g9200
tp9203
a(g137
g9200
tp9204
a(g139
g9200
tp9205
as(g2456
g8
tp9206
(lp9207
(g2460
g8
tp9208
a(g2462
g8
tp9209
a(g330
g8
tp9210
as(g985
S'fate'
p9211
tp9212
(lp9213
(g989
g9211
tp9214
as(g1007
g3312
tp9215
(lp9216
(g1011
g3312
tp9217
as(g19
g545
tp9218
(lp9219
(g23
g545
tp9220
a(g25
g545
tp9221
as(g108
g6311
tp9222
(lp9223
(g112
g6311
tp9224
as(g275
g7067
tp9225
(lp9226
(g271
g7067
tp9227
a(g354
g7067
tp9228
as(g108
g396
tp9229
(lp9230
(g112
g396
tp9231
as(g473
S'aircraft_engine'
p9232
tp9233
(lp9234
(g477
g9232
tp9235
as(g277
g28
tp9236
(lp9237
(g281
g28
tp9238
as(g970
g1234
tp9239
(lp9240
(g974
g1234
tp9241
as(g202
g7165
tp9242
(lp9243
(g206
g7165
tp9244
as(g263
S'concept'
p9245
tp9246
(lp9247
(g267
g9245
tp9248
a(g269
g9245
tp9249
as(g1431
S'swimmer'
p9250
tp9251
(lp9252
(g1434
g9250
tp9253
as(g1707
g2907
tp9254
(lp9255
(g1711
g2907
tp9256
as(g943
S'housefly'
p9257
tp9258
(lp9259
(g947
g9257
tp9260
as(g176
S'machete'
p9261
tp9262
(lp9263
(g180
g9261
tp9264
a(g182
g9261
tp9265
a(g184
g9261
tp9266
as(g226
S'toilet_seat'
p9267
tp9268
(lp9269
(g230
g9267
tp9270
as(g1431
g2028
tp9271
(lp9272
(g1434
g2028
tp9273
as(g650
S'fairy_tale'
p9274
tp9275
(lp9276
(g184
g9274
tp9277
as(g131
S'sock'
p9278
tp9279
(lp9280
(g135
g9278
tp9281
a(g137
g9278
tp9282
a(g139
g9278
tp9283
as(g212
S'lumberjack'
p9284
tp9285
(lp9286
(g208
g9284
tp9287
a(g590
g9284
tp9288
as(g176
g2144
tp9289
(lp9290
(g180
g2144
tp9291
a(g182
g2144
tp9292
a(g184
g2144
tp9293
as(g3509
g1774
tp9294
(lp9295
(g3512
g1774
tp9296
as(g226
S'stable'
p9297
tp9298
(lp9299
(g230
g9297
tp9300
as(g271
g743
tp9301
(lp9302
(g275
g743
tp9303
as(g112
g3782
tp9304
(lp9305
(g108
g3782
tp9306
as(g1007
S'golf_course'
p9307
tp9308
(lp9309
(g1011
g9307
tp9310
as(g114
g6645
tp9311
(lp9312
(g118
g6645
tp9313
as(g108
S'supernova'
p9314
tp9315
(lp9316
(g112
g9314
tp9317
as(g102
S'treatise'
p9318
tp9319
(lp9320
(g106
g9318
tp9321
as(g137
S'chamois_cloth'
p9322
tp9323
(lp9324
(g131
g9322
tp9325
a(g452
g9322
tp9326
a(g454
g9322
tp9327
a(g456
g9322
tp9328
a(g458
g9322
tp9329
as(g539
g3900
tp9330
(lp9331
(g25
g3900
tp9332
as(g1197
g1120
tp9333
(lp9334
(g1201
g1120
tp9335
as(g220
S'river'
p9336
tp9337
(lp9338
(g224
g9336
tp9339
as(g137
g1607
tp9340
(lp9341
(g131
g1607
tp9342
a(g452
g1607
tp9343
a(g454
g1607
tp9344
a(g456
g1607
tp9345
a(g458
g1607
tp9346
as(g176
S'armpit'
p9347
tp9348
(lp9349
(g180
g9347
tp9350
a(g182
g9347
tp9351
a(g184
g9347
tp9352
as(g108
g3142
tp9353
(lp9354
(g112
g3142
tp9355
as(g242
S'file_cabinet'
p9356
tp9357
(lp9358
(g238
g9356
tp9359
a(g344
g9356
tp9360
as(g194
g4401
tp9361
(lp9362
(g198
g4401
tp9363
a(g200
g4401
tp9364
as(g5145
g7017
tp9365
(lp9366
(g5149
g7017
tp9367
as(g602
g448
tp9368
(lp9369
(g606
g448
tp9370
as(g473
S'mainframe_computer'
p9371
tp9372
(lp9373
(g477
g9371
tp9374
as(g141
S'squall'
p9375
tp9376
(lp9377
(g145
g9375
tp9378
a(g147
g9375
tp9379
as(g682
S'beggar'
p9380
tp9381
(lp9382
(g678
g9380
tp9383
as(g166
g534
tp9384
(lp9385
(g170
g534
tp9386
as(g1479
S'dance_floor'
p9387
tp9388
(lp9389
(g1482
g9387
tp9390
as(g1197
g396
tp9391
(lp9392
(g1201
g396
tp9393
as(g184
S'plant'
p9394
tp9395
(lp9396
(g648
g9394
tp9397
a(g650
g9394
tp9398
a(g652
g9394
tp9399
a(g182
g9394
tp9400
a(g176
g9394
tp9401
as(g176
S'wasp'
p9402
tp9403
(lp9404
(g180
g9402
tp9405
a(g182
g9402
tp9406
a(g184
g9402
tp9407
as(g194
S'spaghetti'
p9408
tp9409
(lp9410
(g198
g9408
tp9411
a(g200
g9408
tp9412
as(g367
g2191
tp9413
(lp9414
(g371
g2191
tp9415
as(g35
g187
tp9416
(lp9417
(g39
g187
tp9418
a(g41
g187
tp9419
as(g141
g2982
tp9420
(lp9421
(g145
g2982
tp9422
a(g147
g2982
tp9423
as(g406
S'tin_can'
p9424
tp9425
(lp9426
(g410
g9424
tp9427
a(g412
g9424
tp9428
a(g414
g9424
tp9429
as(g985
g850
tp9430
(lp9431
(g989
g850
tp9432
as(g49
S'sidewinder'
p9433
tp9434
(lp9435
(g53
g9433
tp9436
a(g55
g9433
tp9437
a(g57
g9433
tp9438
a(g59
g9433
tp9439
as(g275
g209
tp9440
(lp9441
(g271
g209
tp9442
a(g354
g209
tp9443
as(g678
g1320
tp9444
(lp9445
(g682
g1320
tp9446
as(g2754
S'wizard'
p9447
tp9448
(lp9449
(g2758
g9447
tp9450
as(g61
S'blister'
p9451
tp9452
(lp9453
(g65
g9451
tp9454
as(g49
g150
tp9455
(lp9456
(g53
g150
tp9457
a(g55
g150
tp9458
a(g57
g150
tp9459
a(g59
g150
tp9460
as(g166
S'plow_horse'
p9461
tp9462
(lp9463
(g170
g9461
tp9464
as(g414
S'clay_pipe'
p9465
tp9466
(lp9467
(g406
g9465
tp9468
as(g2008
g2497
tp9469
(lp9470
(g2012
g2497
tp9471
as(g275
g7087
tp9472
(lp9473
(g271
g7087
tp9474
a(g354
g7087
tp9475
as(g1623
S'parrot'
p9476
tp9477
(lp9478
(g1626
g9476
tp9479
as(g108
S'meteor'
p9480
tp9481
(lp9482
(g112
g9480
tp9483
as(g356
S'skull'
p9484
tp9485
(lp9486
(g360
g9484
tp9487
as(g23
S'fruit_fly'
p9488
tp9489
(lp9490
(g19
g9488
tp9491
as(g716
g1907
tp9492
(lp9493
(g720
g1907
tp9494
as(g176
S'serpent'
p9495
tp9496
(lp9497
(g180
g9495
tp9498
a(g182
g9495
tp9499
a(g184
g9495
tp9500
as(g67
g1677
tp9501
(lp9502
(g25
g1677
tp9503
as(g511
g5817
tp9504
(lp9505
(g515
g5817
tp9506
a(g517
g5817
tp9507
a(g519
g5817
tp9508
as(g544
g629
tp9509
(lp9510
(g548
g629
tp9511
a(g550
g629
tp9512
as(g23
g6361
tp9513
(lp9514
(g19
g6361
tp9515
as(g212
S'cabin'
p9516
tp9517
(lp9518
(g208
g9516
tp9519
a(g590
g9516
tp9520
as(g406
g1613
tp9521
(lp9522
(g410
g1613
tp9523
a(g412
g1613
tp9524
a(g414
g1613
tp9525
as(g1431
g4986
tp9526
(lp9527
(g1434
g4986
tp9528
as(g108
g4145
tp9529
(lp9530
(g112
g4145
tp9531
as(g1431
g7437
tp9532
(lp9533
(g1434
g7437
tp9534
as(g5430
S'marathon'
p9535
tp9536
(lp9537
(g5433
g9535
tp9538
as(g72
S'suture'
p9539
tp9540
(lp9541
(g76
g9539
tp9542
a(g78
g9539
tp9543
as(g473
S'zoo'
p9544
tp9545
(lp9546
(g477
g9544
tp9547
as(g1988
S'shrug'
p9548
tp9549
(lp9550
(g1992
g9548
tp9551
as(g176
g850
tp9552
(lp9553
(g180
g850
tp9554
a(g182
g850
tp9555
a(g184
g850
tp9556
as(g511
g4720
tp9557
(lp9558
(g515
g4720
tp9559
a(g517
g4720
tp9560
a(g519
g4720
tp9561
as(g149
S'superstructure'
p9562
tp9563
(lp9564
(g25
g9562
tp9565
as(g166
S'bridge'
p9566
tp9567
(lp9568
(g170
g9566
tp9569
as(g112
S'oil_tanker'
p9570
tp9571
(lp9572
(g108
g9570
tp9573
as(g1897
g2973
tp9574
(lp9575
(g1901
g2973
tp9576
as(S'wrinkly'
p9577
g4952
tp9578
(lp9579
(g2159
g4952
tp9580
as(g149
g1560
tp9581
(lp9582
(g25
g1560
tp9583
as(g326
S'sitcom'
p9584
tp9585
(lp9586
(g330
g9584
tp9587
as(g198
g8
tp9588
(lp9589
(g194
g8
tp9590
a(g170
g8
tp9591
as(g496
g2144
tp9592
(lp9593
(g500
g2144
tp9594
as(g35
S'ham'
p9595
tp9596
(lp9597
(g39
g9595
tp9598
a(g41
g9595
tp9599
as(g5145
S'wimp'
p9600
tp9601
(lp9602
(g5149
g9600
tp9603
as(g141
S'lady'
p9604
tp9605
(lp9606
(g145
g9604
tp9607
a(g147
g9604
tp9608
as(g176
g2127
tp9609
(lp9610
(g180
g2127
tp9611
a(g182
g2127
tp9612
a(g184
g2127
tp9613
as(g131
g3219
tp9614
(lp9615
(g135
g3219
tp9616
a(g137
g3219
tp9617
a(g139
g3219
tp9618
as(g114
S'navy_seal'
p9619
tp9620
(lp9621
(g118
g9619
tp9622
as(g176
S'rapier'
p9623
tp9624
(lp9625
(g180
g9623
tp9626
a(g182
g9623
tp9627
a(g184
g9623
tp9628
as(g544
S'paperclip'
p9629
tp9630
(lp9631
(g548
g9629
tp9632
a(g550
g9629
tp9633
as(g208
g5741
tp9634
(lp9635
(g212
g5741
tp9636
as(g166
g3758
tp9637
(lp9638
(g170
g3758
tp9639
as(S'filled'
p9640
g4346
tp9641
(lp9642
(S'unfilled'
p9643
g4346
tp9644
as(g943
g8874
tp9645
(lp9646
(g947
g8874
tp9647
as(g9640
g1518
tp9648
(lp9649
(g9643
g1518
tp9650
as(g108
S'roadrunner'
p9651
tp9652
(lp9653
(g112
g9651
tp9654
as(g367
g254
tp9655
(lp9656
(g371
g254
tp9657
as(g440
g1189
tp9658
(lp9659
(g444
g1189
tp9660
a(g446
g1189
tp9661
as(g733
g4286
tp9662
(lp9663
(g737
g4286
tp9664
as(g371
g3497
tp9665
(lp9666
(g367
g3497
tp9667
as(g1617
S'judge'
p9668
tp9669
(lp9670
(g1621
g9668
tp9671
as(g406
g2324
tp9672
(lp9673
(g410
g2324
tp9674
a(g412
g2324
tp9675
a(g414
g2324
tp9676
as(g19
g1189
tp9677
(lp9678
(g23
g1189
tp9679
a(g25
g1189
tp9680
as(g114
S'sofa_bed'
p9681
tp9682
(lp9683
(g118
g9681
tp9684
as(g242
S'engine_block'
p9685
tp9686
(lp9687
(g238
g9685
tp9688
a(g344
g9685
tp9689
as(g141
g4078
tp9690
(lp9691
(g145
g4078
tp9692
a(g147
g4078
tp9693
as(g49
g2950
tp9694
(lp9695
(g53
g2950
tp9696
a(g55
g2950
tp9697
a(g57
g2950
tp9698
a(g59
g2950
tp9699
as(g242
g3782
tp9700
(lp9701
(g238
g3782
tp9702
a(g344
g3782
tp9703
as(g49
S'ruler'
p9704
tp9705
(lp9706
(g53
g9704
tp9707
a(g55
g9704
tp9708
a(g57
g9704
tp9709
a(g59
g9704
tp9710
as(g275
g287
tp9711
(lp9712
(g271
g287
tp9713
a(g354
g287
tp9714
as(g112
S'turtle'
p9715
tp9716
(lp9717
(g108
g9715
tp9718
as(g1007
S'polka_dot'
p9719
tp9720
(lp9721
(g1011
g9719
tp9722
as(g166
S'axe_handle'
p9723
tp9724
(lp9725
(g170
g9723
tp9726
as(g1197
g6343
tp9727
(lp9728
(g1201
g6343
tp9729
as(g176
S'steak_knife'
p9730
tp9731
(lp9732
(g180
g9730
tp9733
a(g182
g9730
tp9734
a(g184
g9730
tp9735
as(g511
g7621
tp9736
(lp9737
(g515
g7621
tp9738
a(g517
g7621
tp9739
a(g519
g7621
tp9740
as(g84
g6993
tp9741
(lp9742
(g87
g6993
tp9743
as(g2057
g9314
tp9744
(lp9745
(g2061
g9314
tp9746
as(g31
S'possum'
p9747
tp9748
(lp9749
(g27
g9747
tp9750
a(g1060
g9747
tp9751
as(g1479
S'forklift'
p9752
tp9753
(lp9754
(g1482
g9752
tp9755
as(g114
g6068
tp9756
(lp9757
(g118
g6068
tp9758
as(g2636
g858
tp9759
(lp9760
(g2640
g858
tp9761
as(g275
g2552
tp9762
(lp9763
(g271
g2552
tp9764
a(g354
g2552
tp9765
as(g242
S'peacock'
p9766
tp9767
(lp9768
(g238
g9766
tp9769
a(g344
g9766
tp9770
as(g1197
g4923
tp9771
(lp9772
(g1201
g4923
tp9773
as(g648
S'steroid'
p9774
tp9775
(lp9776
(g184
g9774
tp9777
a(g1169
g9774
tp9778
a(g1171
g9774
tp9779
as(g496
S'ice_pick'
p9780
tp9781
(lp9782
(g500
g9780
tp9783
as(g733
S'doorpost'
p9784
tp9785
(lp9786
(g737
g9784
tp9787
as(g72
g797
tp9788
(lp9789
(g76
g797
tp9790
a(g78
g797
tp9791
as(g371
g7530
tp9792
(lp9793
(g367
g7530
tp9794
as(g72
S'locker'
p9795
tp9796
(lp9797
(g76
g9795
tp9798
a(g78
g9795
tp9799
as(g176
g68
tp9800
(lp9801
(g180
g68
tp9802
a(g182
g68
tp9803
a(g184
g68
tp9804
as(g23
g5305
tp9805
(lp9806
(g19
g5305
tp9807
as(g406
g336
tp9808
(lp9809
(g410
g336
tp9810
a(g412
g336
tp9811
a(g414
g336
tp9812
as(g271
g3202
tp9813
(lp9814
(g275
g3202
tp9815
as(g624
g5697
tp9816
(lp9817
(g180
g5697
tp9818
as(g19
g5874
tp9819
(lp9820
(g23
g5874
tp9821
a(g25
g5874
tp9822
as(g1707
g36
tp9823
(lp9824
(g1711
g36
tp9825
as.