(dp0
(S'robust'
p1
S'trooper'
p2
tp3
(lp4
(S'frail'
p5
g2
tp6
as(S'rigid'
p7
S'rock'
p8
tp9
(lp10
(S'nonrigid'
p11
g8
tp12
as(S'intangible'
p13
S'idea'
p14
tp15
(lp16
(S'tangible'
p17
g14
tp18
as(S'strong'
p19
S'hurricane'
p20
tp21
(lp22
(S'weak'
p23
g20
tp24
a(S'impotent'
p25
g20
tp26
as(S'alive'
p27
S'oak_tree'
p28
tp29
(lp30
(S'dead'
p31
g28
tp32
a(S'unanimated'
p33
g28
tp34
as(S'fat'
p35
S'watermelon'
p36
tp37
(lp38
(S'thin'
p39
g36
tp40
a(S'nonfat'
p41
g36
tp42
as(S'fresh'
p43
S'trash_can'
p44
tp45
(lp46
(S'stale'
p47
g44
tp48
a(S'preserved'
p49
g44
tp50
a(S'salty'
p51
g44
tp52
as(S'straight'
p53
S'rail_fence'
p54
tp55
(lp56
(S'crooked'
p57
g54
tp58
a(S'curly'
p59
g54
tp60
a(S'coiled'
p61
g54
tp62
a(S'curved'
p63
g54
tp64
as(S'ugly'
p65
S'scarecrow'
p66
tp67
(lp68
(S'beautiful'
p69
g66
tp70
as(S'potent'
p71
S'bee_sting'
p72
tp73
(lp74
(g25
g72
tp75
as(S'tight'
p76
S'tourniquet'
p77
tp78
(lp79
(S'loose'
p80
g77
tp81
a(S'leaky'
p82
g77
tp83
as(g65
S'hippopotamus'
p84
tp85
(lp86
(g69
g84
tp87
as(S'ripe'
p88
g36
tp89
(lp90
(S'green'
p91
g36
tp92
as(S'sharp'
p93
S'cutlass'
p94
tp95
(lp96
(S'dull'
p97
g94
tp98
a(S'flat'
p99
g94
tp100
a(S'natural'
p101
g94
tp102
as(g19
S'mosquito_bite'
p103
tp104
(lp105
(g23
g103
tp106
a(g25
g103
tp107
as(S'complete'
p108
S'blueprint'
p109
tp110
(lp111
(S'incomplete'
p112
g109
tp113
as(S'fast'
p114
S'donkey_cart'
p115
tp116
(lp117
(S'slow'
p118
g115
tp119
as(S'tough'
p120
S'cirrus_cloud'
p121
tp122
(lp123
(S'tender'
p124
g121
tp125
as(S'immobile'
p126
S'house'
p127
tp128
(lp129
(S'mobile'
p130
g127
tp131
as(g76
S'life_preserver'
p132
tp133
(lp134
(g80
g132
tp135
a(g82
g132
tp136
as(S'hard'
p137
S'milk_tooth'
p138
tp139
(lp140
(S'easy'
p141
g138
tp142
a(S'soft'
p143
g138
tp144
a(S'voiced'
p145
g138
tp146
as(S'rough'
p147
S'rasp'
p148
tp149
(lp150
(S'smooth'
p151
g148
tp152
a(S'cut'
p153
g148
tp154
as(S'thirsty'
p155
S'sieve'
p156
tp157
(lp158
(S'hungry'
p159
g156
tp160
as(g53
S'lamppost'
p161
tp162
(lp163
(g57
g161
tp164
a(g59
g161
tp165
a(g61
g161
tp166
a(g63
g161
tp167
as(g35
S'dumpling'
p168
tp169
(lp170
(g39
g168
tp171
a(g41
g168
tp172
as(S'sturdy'
p173
S'trunk'
p174
tp175
(lp176
(S'compromising'
p177
g174
tp178
as(g23
S'mosquito'
p179
tp180
(lp181
(g19
g179
tp182
as(g93
S'blade'
p183
tp184
(lp185
(g97
g183
tp186
a(g99
g183
tp187
a(g101
g183
tp188
as(S'still'
p189
S'tree_trunk'
p190
tp191
(lp192
(S'moving'
p193
g190
tp194
a(S'sparkling'
p195
g190
tp196
as(S'flexible'
p197
S'pretzel'
p198
tp199
(lp200
(S'inflexible'
p201
g198
tp202
a(S'uncompromising'
p203
g198
tp204
as(S'secure'
p205
S'prison'
p206
tp207
(lp208
(S'insecure'
p209
g206
tp210
as(S'delicate'
p211
S'soap_bubble'
p212
tp213
(lp214
(S'rugged'
p215
g212
tp216
as(S'toxic'
p217
S'jellyfish'
p218
tp219
(lp220
(S'nontoxic'
p221
g218
tp222
as(S'wet'
p223
S'pool'
p224
tp225
(lp226
(S'dry'
p227
g224
tp228
as(S'dirty'
p229
S'warthog'
p230
tp231
(lp232
(S'clean'
p233
g230
tp234
as(g233
S'snowball'
p235
tp236
(lp237
(g229
g235
tp238
a(S'unclean'
p239
g235
tp240
as(g137
S'statue'
p241
tp242
(lp243
(g141
g241
tp244
a(g143
g241
tp245
a(g145
g241
tp246
as(S'perfect'
p247
S'ballerina'
p248
tp249
(lp250
(S'imperfect'
p251
g248
tp252
as(g35
S'walrus'
p253
tp254
(lp255
(g39
g253
tp256
a(g41
g253
tp257
as(g118
S'wombat'
p258
tp259
(lp260
(g114
g258
tp261
as(S'immaterial'
p262
S'ghost'
p263
tp264
(lp265
(S'material'
p266
g263
tp267
a(S'corporeal'
p268
g263
tp269
as(S'heavy'
p270
S'whale'
p271
tp272
(lp273
(S'light'
p274
g271
tp275
as(S'healthy'
p276
S'bull'
p277
tp278
(lp279
(S'unhealthy'
p280
g277
tp281
as(g211
S'egg'
p282
tp283
(lp284
(g215
g282
tp285
as(S'active'
p286
S'bee'
p287
tp288
(lp289
(S'inactive'
p290
g287
tp291
a(S'passive'
p292
g287
tp293
a(S'quiet'
p294
g287
tp295
a(S'stative'
p296
g287
tp297
a(S'extinct'
p298
g287
tp299
a(S'dormant'
p300
g287
tp301
as(g173
S'tank'
p302
tp303
(lp304
(g177
g302
tp305
as(g93
S'automaton'
p306
tp307
(lp308
(g97
g306
tp309
a(g99
g306
tp310
a(g101
g306
tp311
as(g270
S'lineman'
p312
tp313
(lp314
(g274
g312
tp315
as(S'impervious'
p316
S'chocolate_bar'
p317
tp318
(lp319
(S'pervious'
p320
g317
tp321
as(g147
S'rattlesnake'
p322
tp323
(lp324
(g151
g322
tp325
a(g153
g322
tp326
as(g211
S'seedling'
p327
tp328
(lp329
(g215
g327
tp330
as(g211
S'john_deere'
p331
tp332
(lp333
(g215
g331
tp334
as(g270
S'mountain'
p335
tp336
(lp337
(g274
g335
tp338
as(g93
S'edge'
p339
tp340
(lp341
(g97
g339
tp342
a(g99
g339
tp343
a(g101
g339
tp344
as(g270
S'hammock'
p345
tp346
(lp347
(g274
g345
tp348
as(S'solid'
p349
S'fortress'
p350
tp351
(lp352
(S'gaseous'
p353
g350
tp354
a(S'liquid'
p355
g350
tp356
a(S'hollow'
p357
g350
tp358
as(S'hairless'
p359
S'baby'
p360
tp361
(lp362
(S'hairy'
p363
g360
tp364
as(g19
S'searchlight'
p365
tp366
(lp367
(g23
g365
tp368
a(g25
g365
tp369
as(S'graceful'
p370
S'cat'
p371
tp372
(lp373
(S'awkward'
p374
g371
tp375
as(g233
S'choirboy'
p376
tp377
(lp378
(g229
g376
tp379
a(g239
g376
tp380
as(g19
S'paper_bag'
p381
tp382
(lp383
(g23
g381
tp384
a(g25
g381
tp385
as(S'pregnant'
p386
S'cow'
p387
tp388
(lp389
(S'nonpregnant'
p390
g387
tp391
as(S'full'
p392
S'leech'
p393
tp394
(lp395
(S'empty'
p396
g393
tp397
a(g39
g393
tp398
as(g137
S'brick'
p399
tp400
(lp401
(g141
g399
tp402
a(g143
g399
tp403
a(g145
g399
tp404
as(g7
S'headstone'
p405
tp406
(lp407
(g11
g405
tp408
as(g349
S'fighter'
p409
tp410
(lp411
(g353
g409
tp412
a(g355
g409
tp413
a(g357
g409
tp414
as(g118
S'elephant'
p415
tp416
(lp417
(g114
g415
tp418
as(g262
S'shadow'
p419
tp420
(lp421
(g266
g419
tp422
a(g268
g419
tp423
as(g211
g248
tp424
(lp425
(g215
g248
tp426
as(g130
S'laptop'
p427
tp428
(lp429
(g126
g427
tp430
as(g173
S'paper_clip'
p431
tp432
(lp433
(g177
g431
tp434
as(g211
S'wisp'
p435
tp436
(lp437
(g215
g435
tp438
as(S'safe'
p439
S'hand_grenade'
p440
tp441
(lp442
(S'dangerous'
p443
g440
tp444
a(S'out'
p445
g440
tp446
as(g143
S'marshmallow'
p447
tp448
(lp449
(g137
g447
tp450
a(S'loud'
p451
g447
tp452
a(S'unvoiced'
p453
g447
tp454
a(S'hardened'
p455
g447
tp456
a(S'forte'
p457
g447
tp458
as(g1
g427
tp459
(lp460
(g5
g427
tp461
as(g173
S'workhorse'
p462
tp463
(lp464
(g177
g462
tp465
as(S'talentless'
p466
S'potato'
p467
tp468
(lp469
(S'talented'
p470
g467
tp471
as(S'complex'
p472
S'spaceship'
p473
tp474
(lp475
(S'simple'
p476
g473
tp477
as(g355
S'government_bond'
p478
tp479
(lp480
(g353
g478
tp481
a(g349
g478
tp482
a(S'unmelted'
p483
g478
tp484
as(g114
S'cheetah'
p485
tp486
(lp487
(g118
g485
tp488
as(g290
S'stone'
p489
tp490
(lp491
(g286
g489
tp492
a(S'operational'
p493
g489
tp494
as(S'carnivorous'
p495
S'fox'
p496
tp497
(lp498
(S'herbivorous'
p499
g496
tp500
a(S'insectivorous'
p501
g496
tp502
a(S'omnivorous'
p503
g496
tp504
as(g357
S'church_bell'
p505
tp506
(lp507
(g349
g505
tp508
as(S'physical'
p509
g8
tp510
(lp511
(S'mental'
p512
g8
tp513
as(g43
S'cowslip'
p514
tp515
(lp516
(g47
g514
tp517
a(g49
g514
tp518
a(g51
g514
tp519
as(S'sexy'
p520
S'ball_bearing'
p521
tp522
(lp523
(S'unsexy'
p524
g521
tp525
a(S'anaphrodisiac'
p526
g521
tp527
as(g120
S'bunny_rabbit'
p528
tp529
(lp530
(g124
g528
tp531
as(g173
S'barn'
p532
tp533
(lp534
(g177
g532
tp535
as(g274
S'feather'
p536
tp537
(lp538
(g270
g536
tp539
a(S'dark'
p540
g536
tp541
as(g19
S'jackhammer'
p542
tp543
(lp544
(g23
g542
tp545
a(g25
g542
tp546
as(S'muscular'
p547
S'bodybuilder'
p548
tp549
(lp550
(S'ectomorphic'
p551
g548
tp552
a(S'endomorphic'
p553
g548
tp554
as(g23
S'thread'
p555
tp556
(lp557
(g19
g555
tp558
as(S'pointed'
p559
S'black_vulture'
p560
tp561
(lp562
(S'pointless'
p563
g560
tp564
as(g137
S'freight_train'
p565
tp566
(lp567
(g141
g565
tp568
a(g143
g565
tp569
a(g145
g565
tp570
as(S'stiff'
p571
S'pipe'
p572
tp573
(lp574
(g25
g572
tp575
as(g76
S'choker'
p576
tp577
(lp578
(g80
g576
tp579
a(g82
g576
tp580
as(g270
S'anchor'
p581
tp582
(lp583
(g274
g581
tp584
as(g229
S'tinker'
p585
tp586
(lp587
(g233
g585
tp588
as(g211
S'french_pastry'
p589
tp590
(lp591
(g215
g589
tp592
as(g215
g302
tp593
(lp594
(g211
g302
tp595
a(S'unfurrowed'
p596
g302
tp597
as(g93
S'spear'
p598
tp599
(lp600
(g97
g598
tp601
a(g99
g598
tp602
a(g101
g598
tp603
as(g189
S'doll'
p604
tp605
(lp606
(g193
g604
tp607
a(g195
g604
tp608
as(g19
S'tornado'
p609
tp610
(lp611
(g23
g609
tp612
a(g25
g609
tp613
as(g290
S'catalyst'
p614
tp615
(lp616
(g286
g614
tp617
a(g493
g614
tp618
as(g93
S'pocket_knife'
p619
tp620
(lp621
(g97
g619
tp622
a(g99
g619
tp623
a(g101
g619
tp624
as(S'lively'
p625
S'kitten'
p626
tp627
(lp628
(g97
g626
tp629
as(g120
S'bear'
p630
tp631
(lp632
(g124
g630
tp633
as(g65
S'reptile'
p634
tp635
(lp636
(g69
g634
tp637
as(g472
S'microprocessor'
p638
tp639
(lp640
(g476
g638
tp641
as(g137
S'tombstone'
p642
tp643
(lp644
(g141
g642
tp645
a(g143
g642
tp646
a(g145
g642
tp647
as(g65
S'rhino'
p648
tp649
(lp650
(g69
g648
tp651
as(g101
S'fish'
p652
tp653
(lp654
(S'unnatural'
p655
g652
tp656
a(S'artificial'
p657
g652
tp658
a(S'supernatural'
p659
g652
tp660
a(g99
g652
tp661
a(g93
g652
tp662
as(g53
S'ramrod'
p663
tp664
(lp665
(g57
g663
tp666
a(g59
g663
tp667
a(g61
g663
tp668
a(g63
g663
tp669
as(g65
S'witch'
p670
tp671
(lp672
(g69
g670
tp673
as(g547
S'leopard'
p674
tp675
(lp676
(g551
g674
tp677
a(g553
g674
tp678
as(g93
S'butter_knife'
p679
tp680
(lp681
(g97
g679
tp682
a(g99
g679
tp683
a(g101
g679
tp684
as(g93
S'knife_edge'
p685
tp686
(lp687
(g97
g685
tp688
a(g99
g685
tp689
a(g101
g685
tp690
as(g625
S'skeleton'
p691
tp692
(lp693
(g97
g691
tp694
as(S'meaty'
p695
S'meat_pie'
p696
tp697
(lp698
(S'meatless'
p699
g696
tp700
as(S'sterile'
p701
S'mule'
p702
tp703
(lp704
(S'fertile'
p705
g702
tp706
as(g571
g28
tp707
(lp708
(g25
g28
tp709
as(g211
S'rosebush'
p710
tp711
(lp712
(g215
g710
tp713
as(g19
S'tractor'
p714
tp715
(lp716
(g23
g714
tp717
a(g25
g714
tp718
as(g211
S'flute'
p719
tp720
(lp721
(g215
g719
tp722
as(S'supportive'
p723
S'mother'
p724
tp725
(lp726
(S'unsupportive'
p727
g724
tp728
as(g571
g399
tp729
(lp730
(g25
g399
tp731
as(g217
S'poison'
p732
tp733
(lp734
(g221
g732
tp735
as(S'deaf'
p736
S'post'
p737
tp738
(lp739
(S'hearing'
p740
g737
tp741
as(g7
S'totem_pole'
p742
tp743
(lp744
(g11
g742
tp745
as(g374
S'sumo_wrestler'
p746
tp747
(lp748
(g370
g746
tp749
as(g270
g190
tp750
(lp751
(g274
g190
tp752
as(S'restless'
p753
S'hyena'
p754
tp755
(lp756
(S'restful'
p757
g754
tp758
as(S'impenetrable'
p759
g302
tp760
(lp761
(S'penetrable'
p762
g302
tp763
as(g227
S'frog'
p764
tp765
(lp766
(g223
g764
tp767
a(S'sweet'
p768
g764
tp769
a(S'phlegmy'
p770
g764
tp771
as(g173
S'warship'
p772
tp773
(lp774
(g177
g772
tp775
as(g35
g271
tp776
(lp777
(g39
g271
tp778
a(g41
g271
tp779
as(g396
S'mausoleum'
p780
tp781
(lp782
(g392
g780
tp783
as(g520
S'head_cold'
p784
tp785
(lp786
(g524
g784
tp787
a(g526
g784
tp788
as(g143
g536
tp789
(lp790
(g137
g536
tp791
a(g451
g536
tp792
a(g453
g536
tp793
a(g455
g536
tp794
a(g457
g536
tp795
as(g155
S'bedouin'
p796
tp797
(lp798
(g159
g796
tp799
as(g571
S'mannequin'
p800
tp801
(lp802
(g25
g800
tp803
as(g97
S'spoon'
p804
tp805
(lp806
(g625
g804
tp807
a(S'bright'
p808
g804
tp809
a(g93
g804
tp810
as(g571
S'rail'
p811
tp812
(lp813
(g25
g811
tp814
as(S'homogeneous'
p815
S'snowbank'
p816
tp817
(lp818
(S'heterogeneous'
p819
g816
tp820
as(g370
g485
tp821
(lp822
(g374
g485
tp823
as(g370
S'panther'
p824
tp825
(lp826
(g374
g824
tp827
as(g53
S'telephone_pole'
p828
tp829
(lp830
(g57
g828
tp831
a(g59
g828
tp832
a(g61
g828
tp833
a(g63
g828
tp834
as(g76
S'jar'
p835
tp836
(lp837
(g80
g835
tp838
a(g82
g835
tp839
as(g25
g702
tp840
(lp841
(g71
g702
tp842
as(S'concentrated'
p843
S'diamond'
p844
tp845
(lp846
(S'distributed'
p847
g844
tp848
a(g143
g844
tp849
a(S'unsaturated'
p850
g844
tp851
as(g396
S'bubble'
p852
tp853
(lp854
(g392
g852
tp855
as(S'stable'
p856
S'storm'
p857
tp858
(lp859
(S'unstable'
p860
g857
tp861
as(g114
S'slug'
p862
tp863
(lp864
(g118
g862
tp865
as(g205
g350
tp866
(lp867
(g209
g350
tp868
as(g274
g248
tp869
(lp870
(g270
g248
tp871
a(g540
g248
tp872
as(g23
S'worm'
p873
tp874
(lp875
(g19
g873
tp876
as(g88
S'pumpkin'
p877
tp878
(lp879
(g91
g877
tp880
as(g13
S'feeling'
p881
tp882
(lp883
(g17
g881
tp884
as(g349
S'block'
p885
tp886
(lp887
(g353
g885
tp888
a(g355
g885
tp889
a(g357
g885
tp890
as(g143
S'sidewalk'
p891
tp892
(lp893
(g137
g891
tp894
a(g451
g891
tp895
a(g453
g891
tp896
a(g455
g891
tp897
a(g457
g891
tp898
as(g355
S'soup'
p899
tp900
(lp901
(g353
g899
tp902
a(g349
g899
tp903
a(g483
g899
tp904
as(g65
S'sun'
p905
tp906
(lp907
(g69
g905
tp908
as(g120
S'gymnast'
p909
tp910
(lp911
(g124
g909
tp912
as(g93
S'tack'
p913
tp914
(lp915
(g97
g913
tp916
a(g99
g913
tp917
a(g101
g913
tp918
as(g229
S'coal_miner'
p919
tp920
(lp921
(g233
g919
tp922
as(g370
S'butterfly'
p923
tp924
(lp925
(g374
g923
tp926
as(g211
S'daddy_longlegs'
p927
tp928
(lp929
(g215
g927
tp930
as(g19
S'cappuccino'
p931
tp932
(lp933
(g23
g931
tp934
a(g25
g931
tp935
as(g53
S'pin'
p936
tp937
(lp938
(g57
g936
tp939
a(g59
g936
tp940
a(g61
g936
tp941
a(g63
g936
tp942
as(g147
S'hedge'
p943
tp944
(lp945
(g151
g943
tp946
a(g153
g943
tp947
as(g93
S'doorknob'
p948
tp949
(lp950
(g97
g948
tp951
a(g99
g948
tp952
a(g101
g948
tp953
as(g396
S'drum'
p954
tp955
(lp956
(g392
g954
tp957
as(g189
S'clam'
p958
tp959
(lp960
(g193
g958
tp961
a(g195
g958
tp962
as(g274
S'sparrow'
p963
tp964
(lp965
(g270
g963
tp966
a(g540
g963
tp967
as(S'energetic'
p968
S'sprite'
p969
tp970
(lp971
(S'lethargic'
p972
g969
tp973
as(g5
S"willo'thewisp"
p974
tp975
(lp976
(g1
g974
tp977
as(g147
S'slaver'
p978
tp979
(lp980
(g151
g978
tp981
a(g153
g978
tp982
as(S'immutable'
p983
S'papal_bull'
p984
tp985
(lp986
(S'mutable'
p987
g984
tp988
as(g215
S'fashion_model'
p989
tp990
(lp991
(g211
g989
tp992
a(g596
g989
tp993
as(S'manly'
p994
S'baseball_player'
p995
tp996
(lp997
(S'unmanly'
p998
g995
tp999
as(g147
S'gale'
p1000
tp1001
(lp1002
(g151
g1000
tp1003
a(g153
g1000
tp1004
as(g93
S'viper'
p1005
tp1006
(lp1007
(g97
g1005
tp1008
a(g99
g1005
tp1009
a(g101
g1005
tp1010
as(g270
S'tractor_trailer'
p1011
tp1012
(lp1013
(g274
g1011
tp1014
as(g370
S'dolphin'
p1015
tp1016
(lp1017
(g374
g1015
tp1018
as(g35
g877
tp1019
(lp1020
(g39
g877
tp1021
a(g41
g877
tp1022
as(g270
g536
tp1023
(lp1024
(g274
g536
tp1025
as(g173
g335
tp1026
(lp1027
(g177
g335
tp1028
as(g705
S'field'
p1029
tp1030
(lp1031
(g701
g1029
tp1032
as(g705
g399
tp1033
(lp1034
(g701
g399
tp1035
as(S'permanent'
p1036
S'skin_graft'
p1037
tp1038
(lp1039
(S'impermanent'
p1040
g1037
tp1041
as(g211
S'wind_chime'
p1042
tp1043
(lp1044
(g215
g1042
tp1045
as(S'masculine'
p1046
S'skirt'
p1047
tp1048
(lp1049
(S'feminine'
p1050
g1047
tp1051
a(S'neuter'
p1052
g1047
tp1053
as(g290
S'couch_potato'
p1054
tp1055
(lp1056
(g286
g1054
tp1057
a(g493
g1054
tp1058
as(g31
S'mummy'
p1059
tp1060
(lp1061
(g27
g1059
tp1062
a(S'live'
p1063
g1059
tp1064
as(g759
S'hockey_puck'
p1065
tp1066
(lp1067
(g762
g1065
tp1068
as(g43
S'shamrock'
p1069
tp1070
(lp1071
(g47
g1069
tp1072
a(g49
g1069
tp1073
a(g51
g1069
tp1074
as(g114
S'cobra'
p1075
tp1076
(lp1077
(g118
g1075
tp1078
as(g35
g84
tp1079
(lp1080
(g39
g84
tp1081
a(g41
g84
tp1082
as(g147
S'burlap_bag'
p1083
tp1084
(lp1085
(g151
g1083
tp1086
a(g153
g1083
tp1087
as(g173
g8
tp1088
(lp1089
(g177
g8
tp1090
as(g23
S'shirley_temple'
p1091
tp1092
(lp1093
(g19
g1091
tp1094
as(g211
S'breath'
p1095
tp1096
(lp1097
(g215
g1095
tp1098
as(g19
S'python'
p1099
tp1100
(lp1101
(g23
g1099
tp1102
a(g25
g1099
tp1103
as(g392
S'hog'
p1104
tp1105
(lp1106
(g396
g1104
tp1107
a(g39
g1104
tp1108
as(g520
S'lioness'
p1109
tp1110
(lp1111
(g524
g1109
tp1112
a(g526
g1109
tp1113
as(g120
S'castle'
p1114
tp1115
(lp1116
(g124
g1114
tp1117
as(g173
S'refrigerator'
p1118
tp1119
(lp1120
(g177
g1118
tp1121
as(g270
S'paperweight'
p1122
tp1123
(lp1124
(g274
g1122
tp1125
as(g349
g399
tp1126
(lp1127
(g353
g399
tp1128
a(g355
g399
tp1129
a(g357
g399
tp1130
as(g5
S'supermodel'
p1131
tp1132
(lp1133
(g1
g1131
tp1134
as(g972
S'tree_sloth'
p1135
tp1136
(lp1137
(g968
g1135
tp1138
as(g120
S'steak'
p1139
tp1140
(lp1141
(g124
g1139
tp1142
as(g455
S'new_york'
p1143
tp1144
(lp1145
(S'untempered'
p1146
g1143
tp1147
a(g143
g1143
tp1148
as(g215
S'shark'
p1149
tp1150
(lp1151
(g211
g1149
tp1152
a(g596
g1149
tp1153
as(S'toothless'
p1154
g218
tp1155
(lp1156
(S'toothed'
p1157
g218
tp1158
as(g7
S'clockwork'
p1159
tp1160
(lp1161
(g11
g1159
tp1162
as(g655
S'graveyard_shift'
p1163
tp1164
(lp1165
(g101
g1163
tp1166
a(S'normal'
p1167
g1163
tp1168
a(S'unaffected'
p1169
g1163
tp1170
as(g120
g1109
tp1171
(lp1172
(g124
g1109
tp1173
as(g559
S'beach_ball'
p1174
tp1175
(lp1176
(g563
g1174
tp1177
as(g126
g1059
tp1178
(lp1179
(g130
g1059
tp1180
as(g357
S'reed'
p1181
tp1182
(lp1183
(g349
g1181
tp1184
as(g120
g409
tp1185
(lp1186
(g124
g409
tp1187
as(g316
S'bank_vault'
p1188
tp1189
(lp1190
(g320
g1188
tp1191
as(g276
S'cookie'
p1192
tp1193
(lp1194
(g280
g1192
tp1195
as(S'inanimate'
p1196
S'tree'
p1197
tp1198
(lp1199
(S'animate'
p1200
g1197
tp1201
as(g53
S'telegraph_pole'
p1202
tp1203
(lp1204
(g57
g1202
tp1205
a(g59
g1202
tp1206
a(g61
g1202
tp1207
a(g63
g1202
tp1208
as(g65
S'crocodile'
p1209
tp1210
(lp1211
(g69
g1209
tp1212
as(g386
S'milk_cow'
p1213
tp1214
(lp1215
(g390
g1213
tp1216
as(g759
S'glacier'
p1217
tp1218
(lp1219
(g762
g1217
tp1220
as(g23
S'toddler'
p1221
tp1222
(lp1223
(g19
g1221
tp1224
as(g5
S'potato_chip'
p1225
tp1226
(lp1227
(g1
g1225
tp1228
as(g571
S'rod'
p1229
tp1230
(lp1231
(g25
g1229
tp1232
as(g374
S'pup'
p1233
tp1234
(lp1235
(g370
g1233
tp1236
as(g856
S'dance_floor'
p1237
tp1238
(lp1239
(g860
g1237
tp1240
as(g93
g447
tp1241
(lp1242
(g97
g447
tp1243
a(g99
g447
tp1244
a(g101
g447
tp1245
as(g290
S'sea_anemone'
p1246
tp1247
(lp1248
(g286
g1246
tp1249
a(g493
g1246
tp1250
as(g120
S'truck'
p1251
tp1252
(lp1253
(g124
g1251
tp1254
as(g286
S'adventure'
p1255
tp1256
(lp1257
(g290
g1255
tp1258
a(g292
g1255
tp1259
a(g294
g1255
tp1260
a(g296
g1255
tp1261
a(g298
g1255
tp1262
a(g300
g1255
tp1263
as(S'seamless'
p1264
g212
tp1265
(lp1266
(S'seamed'
p1267
g212
tp1268
as(g114
S'cyclone'
p1269
tp1270
(lp1271
(g118
g1269
tp1272
as(g19
S'slayer'
p1273
tp1274
(lp1275
(g23
g1273
tp1276
a(g25
g1273
tp1277
as(g233
S'temple'
p1278
tp1279
(lp1280
(g229
g1278
tp1281
a(g239
g1278
tp1282
as(g270
S'cannon_ball'
p1283
tp1284
(lp1285
(g274
g1283
tp1286
as(g7
S'fossil'
p1287
tp1288
(lp1289
(g11
g1287
tp1290
as(g19
g1109
tp1291
(lp1292
(g23
g1109
tp1293
a(g25
g1109
tp1294
as(g472
S'cpu'
p1295
tp1296
(lp1297
(g476
g1295
tp1298
as(g126
S'monument'
p1299
tp1300
(lp1301
(g130
g1299
tp1302
as(g13
S'soul'
p1303
tp1304
(lp1305
(g17
g1303
tp1306
as(g120
S'horse'
p1307
tp1308
(lp1309
(g124
g1307
tp1310
as(g130
g746
tp1311
(lp1312
(g126
g746
tp1313
as(g374
S'camel'
p1314
tp1315
(lp1316
(g370
g1314
tp1317
as(g114
S'ant'
p1318
tp1319
(lp1320
(g118
g1318
tp1321
as(g17
S'toothache'
p1322
tp1323
(lp1324
(g13
g1322
tp1325
a(S'impalpable'
p1326
g1322
tp1327
as(g108
S'encyclopedia'
p1328
tp1329
(lp1330
(g112
g1328
tp1331
as(S'invulnerable'
p1332
g302
tp1333
(lp1334
(S'vulnerable'
p1335
g302
tp1336
as(g559
S'sword'
p1337
tp1338
(lp1339
(g563
g1337
tp1340
as(g349
g1114
tp1341
(lp1342
(g353
g1114
tp1343
a(g355
g1114
tp1344
a(g357
g1114
tp1345
as(g472
S'encyclopaedia'
p1346
tp1347
(lp1348
(g476
g1346
tp1349
as(g19
S'viking'
p1350
tp1351
(lp1352
(g23
g1350
tp1353
a(g25
g1350
tp1354
as(g270
S'airplane'
p1355
tp1356
(lp1357
(g274
g1355
tp1358
as(g349
S'jailhouse'
p1359
tp1360
(lp1361
(g353
g1359
tp1362
a(g355
g1359
tp1363
a(g357
g1359
tp1364
as(g19
S'onion'
p1365
tp1366
(lp1367
(g23
g1365
tp1368
a(g25
g1365
tp1369
as(g229
S'pigpen'
p1370
tp1371
(lp1372
(g233
g1370
tp1373
as(g19
S'gorilla'
p1374
tp1375
(lp1376
(g23
g1374
tp1377
a(g25
g1374
tp1378
as(g43
g905
tp1379
(lp1380
(g47
g905
tp1381
a(g49
g905
tp1382
a(g51
g905
tp1383
as(g93
S'scythe'
p1384
tp1385
(lp1386
(g97
g1384
tp1387
a(g99
g1384
tp1388
a(g101
g1384
tp1389
as(g197
S'giraffe'
p1390
tp1391
(lp1392
(g201
g1390
tp1393
a(g203
g1390
tp1394
as(g130
g190
tp1395
(lp1396
(g126
g190
tp1397
as(S'virile'
p1398
S'vicar'
p1399
tp1400
(lp1401
(g25
g1399
tp1402
as(S'wholesome'
p1403
S'quilting_bee'
p1404
tp1405
(lp1406
(S'unwholesome'
p1407
g1404
tp1408
as(g93
S'scimitar'
p1409
tp1410
(lp1411
(g97
g1409
tp1412
a(g99
g1409
tp1413
a(g101
g1409
tp1414
as(g53
S'poker'
p1415
tp1416
(lp1417
(g57
g1415
tp1418
a(g59
g1415
tp1419
a(g61
g1415
tp1420
a(g63
g1415
tp1421
as(g205
S'jail_cell'
p1422
tp1423
(lp1424
(g209
g1422
tp1425
as(S'fit'
p1426
g248
tp1427
(lp1428
(S'unfit'
p1429
g248
tp1430
as(S'cowardly'
p1431
g754
tp1432
(lp1433
(S'brave'
p1434
g754
tp1435
as(g118
g1059
tp1436
(lp1437
(g114
g1059
tp1438
as(g723
S'teammate'
p1439
tp1440
(lp1441
(g727
g1439
tp1442
as(g65
S'sin'
p1443
tp1444
(lp1445
(g69
g1443
tp1446
as(g114
S'armadillo'
p1447
tp1448
(lp1449
(g118
g1447
tp1450
as(S'blind'
p1451
S'mole'
p1452
tp1453
(lp1454
(S'sighted'
p1455
g1452
tp1456
as(g65
S'sea_slug'
p1457
tp1458
(lp1459
(g69
g1457
tp1460
as(g1398
S'hercules'
p1461
tp1462
(lp1463
(g25
g1461
tp1464
as(g472
S'mainframe'
p1465
tp1466
(lp1467
(g476
g1465
tp1468
as(g23
S'lamb'
p1469
tp1470
(lp1471
(g19
g1469
tp1472
as(g856
g1114
tp1473
(lp1474
(g860
g1114
tp1475
as(g349
S'dumbbell'
p1476
tp1477
(lp1478
(g353
g1476
tp1479
a(g355
g1476
tp1480
a(g357
g1476
tp1481
as(g276
S'marathon_runner'
p1482
tp1483
(lp1484
(g280
g1482
tp1485
as(g19
S'water_buffalo'
p1486
tp1487
(lp1488
(g23
g1486
tp1489
a(g25
g1486
tp1490
as(S'integrated'
p1491
S'computer_circuit'
p1492
tp1493
(lp1494
(S'nonintegrated'
p1495
g1492
tp1496
a(S'segregated'
p1497
g1492
tp1498
as(g114
S'raptor'
p1499
tp1500
(lp1501
(g118
g1499
tp1502
as(g43
S'lark'
p1503
tp1504
(lp1505
(g47
g1503
tp1506
a(g49
g1503
tp1507
a(g51
g1503
tp1508
as(S'elastic'
p1509
S'balloon'
p1510
tp1511
(lp1512
(S'inelastic'
p1513
g1510
tp1514
as(g547
S'blacksmith'
p1515
tp1516
(lp1517
(g551
g1515
tp1518
a(g553
g1515
tp1519
as(g76
S'yoke'
p1520
tp1521
(lp1522
(g80
g1520
tp1523
a(g82
g1520
tp1524
as(g968
S'dishrag'
p1525
tp1526
(lp1527
(g972
g1525
tp1528
as(g35
S'barrel'
p1529
tp1530
(lp1531
(g39
g1529
tp1532
a(g41
g1529
tp1533
as(S'substantial'
p1534
S'meringue'
p1535
tp1536
(lp1537
(S'insubstantial'
p1538
g1535
tp1539
as(g13
g263
tp1540
(lp1541
(g17
g263
tp1542
as(g71
g277
tp1543
(lp1544
(g25
g277
tp1545
as(g143
S'caress'
p1546
tp1547
(lp1548
(g137
g1546
tp1549
a(g451
g1546
tp1550
a(g453
g1546
tp1551
a(g455
g1546
tp1552
a(g457
g1546
tp1553
as(g126
S'corpse'
p1554
tp1555
(lp1556
(g130
g1554
tp1557
as(g197
S'rope'
p1558
tp1559
(lp1560
(g201
g1558
tp1561
a(g203
g1558
tp1562
as(g23
S'waft'
p1563
tp1564
(lp1565
(g19
g1563
tp1566
as(g76
S'garter_belt'
p1567
tp1568
(lp1569
(g80
g1567
tp1570
a(g82
g1567
tp1571
as(g23
S'rag_doll'
p1572
tp1573
(lp1574
(g19
g1572
tp1575
as(g370
S'sheep'
p1576
tp1577
(lp1578
(g374
g1576
tp1579
as(g147
S'thunderstorm'
p1580
tp1581
(lp1582
(g151
g1580
tp1583
a(g153
g1580
tp1584
as(g1426
S'athlete'
p1585
tp1586
(lp1587
(g1429
g1585
tp1588
as(g93
S'whip'
p1589
tp1590
(lp1591
(g97
g1589
tp1592
a(g99
g1589
tp1593
a(g101
g1589
tp1594
as(g43
S'flower_bud'
p1595
tp1596
(lp1597
(g47
g1595
tp1598
a(g49
g1595
tp1599
a(g51
g1595
tp1600
as(g276
S'dessert'
p1601
tp1602
(lp1603
(g280
g1601
tp1604
as(g349
S'boxer'
p1605
tp1606
(lp1607
(g353
g1605
tp1608
a(g355
g1605
tp1609
a(g357
g1605
tp1610
as(g120
S'granite'
p1611
tp1612
(lp1613
(g124
g1611
tp1614
as(S'capable'
p1615
S'penguin'
p1616
tp1617
(lp1618
(S'incapable'
p1619
g1616
tp1620
as(S'sick'
p1621
g862
tp1622
(lp1623
(S'well'
p1624
g862
tp1625
as(g137
S'heavyweight'
p1626
tp1627
(lp1628
(g141
g1626
tp1629
a(g143
g1626
tp1630
a(g145
g1626
tp1631
as(g19
S'knight'
p1632
tp1633
(lp1634
(g23
g1632
tp1635
a(g25
g1632
tp1636
as(g130
S'vehicle'
p1637
tp1638
(lp1639
(g126
g1637
tp1640
as(g357
S'bone'
p1641
tp1642
(lp1643
(g349
g1641
tp1644
as(g65
S'war_zone'
p1645
tp1646
(lp1647
(g69
g1645
tp1648
as(g370
S'gazelle'
p1649
tp1650
(lp1651
(g374
g1649
tp1652
as(g137
g1515
tp1653
(lp1654
(g141
g1515
tp1655
a(g143
g1515
tp1656
a(g145
g1515
tp1657
as(g1426
g1307
tp1658
(lp1659
(g1429
g1307
tp1660
as(g227
S'biscuit'
p1661
tp1662
(lp1663
(g223
g1661
tp1664
a(g768
g1661
tp1665
a(g770
g1661
tp1666
as(g270
g905
tp1667
(lp1668
(g274
g905
tp1669
as(g392
S'drunk'
p1670
tp1671
(lp1672
(g396
g1670
tp1673
a(g39
g1670
tp1674
as(g137
S'bullet'
p1675
tp1676
(lp1677
(g141
g1675
tp1678
a(g143
g1675
tp1679
a(g145
g1675
tp1680
as(g1403
S'hymn'
p1681
tp1682
(lp1683
(g1407
g1681
tp1684
as(g114
S'rambler'
p1685
tp1686
(lp1687
(g118
g1685
tp1688
as(g274
S'bird'
p1689
tp1690
(lp1691
(g270
g1689
tp1692
a(g540
g1689
tp1693
as(g76
S'miser'
p1694
tp1695
(lp1696
(g80
g1694
tp1697
a(g82
g1694
tp1698
as(g93
g936
tp1699
(lp1700
(g97
g936
tp1701
a(g99
g936
tp1702
a(g101
g936
tp1703
as(S'juicy'
p1704
S'nectarine'
p1705
tp1706
(lp1707
(S'juiceless'
p1708
g1705
tp1709
as(g19
S'dandelion'
p1710
tp1711
(lp1712
(g23
g1710
tp1713
a(g25
g1710
tp1714
as(g43
S'ingenue'
p1715
tp1716
(lp1717
(g47
g1715
tp1718
a(g49
g1715
tp1719
a(g51
g1715
tp1720
as(g211
g1535
tp1721
(lp1722
(g215
g1535
tp1723
as(g439
S'womb'
p1724
tp1725
(lp1726
(g443
g1724
tp1727
a(g445
g1724
tp1728
as(g723
S'family'
p1729
tp1730
(lp1731
(g727
g1729
tp1732
as(g114
S'eagle'
p1733
tp1734
(lp1735
(g118
g1733
tp1736
as(g370
g1251
tp1737
(lp1738
(g374
g1251
tp1739
as(g1426
g702
tp1740
(lp1741
(g1429
g702
tp1742
as(g1451
S'bat'
p1743
tp1744
(lp1745
(g1455
g1743
tp1746
as(g19
g8
tp1747
(lp1748
(g23
g8
tp1749
a(g25
g8
tp1750
as(g65
S'toad'
p1751
tp1752
(lp1753
(g69
g1751
tp1754
as(g655
g306
tp1755
(lp1756
(g101
g306
tp1757
a(g1167
g306
tp1758
a(g1169
g306
tp1759
as(g19
S'twig'
p1760
tp1761
(lp1762
(g23
g1760
tp1763
a(g25
g1760
tp1764
as(g276
g28
tp1765
(lp1766
(g280
g28
tp1767
as(g155
g652
tp1768
(lp1769
(g159
g652
tp1770
as(g114
g824
tp1771
(lp1772
(g118
g824
tp1773
as(g17
g241
tp1774
(lp1775
(g13
g241
tp1776
a(g1326
g241
tp1777
as(S'tangled'
p1778
S'soap_opera'
p1779
tp1780
(lp1781
(S'untangled'
p1782
g1779
tp1783
as(g143
S'poodle'
p1784
tp1785
(lp1786
(g137
g1784
tp1787
a(g451
g1784
tp1788
a(g453
g1784
tp1789
a(g455
g1784
tp1790
a(g457
g1784
tp1791
as(g93
S'teaspoon'
p1792
tp1793
(lp1794
(g97
g1792
tp1795
a(g99
g1792
tp1796
a(g101
g1792
tp1797
as(S'orderly'
p1798
S'bank'
p1799
tp1800
(lp1801
(S'disorderly'
p1802
g1799
tp1803
as(g472
g1192
tp1804
(lp1805
(g476
g1192
tp1806
as(S'explosive'
p1807
S'molotov_cocktail'
p1808
tp1809
(lp1810
(S'nonexplosive'
p1811
g1808
tp1812
as(g374
S'hound_dog'
p1813
tp1814
(lp1815
(g370
g1813
tp1816
as(g173
g702
tp1817
(lp1818
(g177
g702
tp1819
as(g27
S'organism'
p1820
tp1821
(lp1822
(g31
g1820
tp1823
a(g33
g1820
tp1824
as(g147
S'pumice_stone'
p1825
tp1826
(lp1827
(g151
g1825
tp1828
a(g153
g1825
tp1829
as(g723
S'parent'
p1830
tp1831
(lp1832
(g727
g1830
tp1833
as(g559
S'syringe'
p1834
tp1835
(lp1836
(g563
g1834
tp1837
as(g520
S'bomber'
p1838
tp1839
(lp1840
(g524
g1838
tp1841
a(g526
g1838
tp1842
as(g118
g862
tp1843
(lp1844
(g114
g862
tp1845
as(g276
S'donut'
p1846
tp1847
(lp1848
(g280
g1846
tp1849
as(g625
S'beehive'
p1850
tp1851
(lp1852
(g97
g1850
tp1853
as(g19
S'bulldozer'
p1854
tp1855
(lp1856
(g23
g1854
tp1857
a(g25
g1854
tp1858
as(g274
S'salad'
p1859
tp1860
(lp1861
(g270
g1859
tp1862
a(g540
g1859
tp1863
as(g547
g909
tp1864
(lp1865
(g551
g909
tp1866
a(g553
g909
tp1867
as(g349
S'bowling_ball'
p1868
tp1869
(lp1870
(g353
g1868
tp1871
a(g355
g1868
tp1872
a(g357
g1868
tp1873
as(g147
S'cactus'
p1874
tp1875
(lp1876
(g151
g1874
tp1877
a(g153
g1874
tp1878
as(g1403
S'apple_pie'
p1879
tp1880
(lp1881
(g1407
g1879
tp1882
as(g286
g1850
tp1883
(lp1884
(g290
g1850
tp1885
a(g292
g1850
tp1886
a(g294
g1850
tp1887
a(g296
g1850
tp1888
a(g298
g1850
tp1889
a(g300
g1850
tp1890
as(S'woody'
p1891
S'shrub'
p1892
tp1893
(lp1894
(S'nonwoody'
p1895
g1892
tp1896
as(g994
S'razor'
p1897
tp1898
(lp1899
(g998
g1897
tp1900
as(g120
S'hickory_tree'
p1901
tp1902
(lp1903
(g124
g1901
tp1904
as(g143
S'mattress'
p1905
tp1906
(lp1907
(g137
g1905
tp1908
a(g451
g1905
tp1909
a(g453
g1905
tp1910
a(g455
g1905
tp1911
a(g457
g1905
tp1912
as(g1704
S'lychee'
p1913
tp1914
(lp1915
(g1708
g1913
tp1916
as(g71
S'truth_serum'
p1917
tp1918
(lp1919
(g25
g1917
tp1920
as(g19
S'dump_truck'
p1921
tp1922
(lp1923
(g23
g1921
tp1924
a(g25
g1921
tp1925
as(g439
S'hospital'
p1926
tp1927
(lp1928
(g443
g1926
tp1929
a(g445
g1926
tp1930
as(g509
S'spirit'
p1931
tp1932
(lp1933
(g512
g1931
tp1934
as(g439
g127
tp1935
(lp1936
(g443
g127
tp1937
a(g445
g127
tp1938
as(g1704
S'porterhouse_steak'
p1939
tp1940
(lp1941
(g1708
g1939
tp1942
as(g1398
g277
tp1943
(lp1944
(g25
g277
tp1945
as(g76
S'marriage'
p1946
tp1947
(lp1948
(g80
g1946
tp1949
a(g82
g1946
tp1950
as(g120
S'chinook'
p1951
tp1952
(lp1953
(g124
g1951
tp1954
as(g972
g1554
tp1955
(lp1956
(g968
g1554
tp1957
as(g101
g857
tp1958
(lp1959
(g655
g857
tp1960
a(g657
g857
tp1961
a(g659
g857
tp1962
a(g99
g857
tp1963
a(g93
g857
tp1964
as(g189
g241
tp1965
(lp1966
(g193
g241
tp1967
a(g195
g241
tp1968
as(g815
S'culture_medium'
p1969
tp1970
(lp1971
(g819
g1969
tp1972
as(g625
S'cocktail_party'
p1973
tp1974
(lp1975
(g97
g1973
tp1976
as(g23
S'chicken'
p1977
tp1978
(lp1979
(g19
g1977
tp1980
as(g856
S'earthquake'
p1981
tp1982
(lp1983
(g860
g1981
tp1984
as(S'effortless'
p1985
S'prima_ballerina'
p1986
tp1987
(lp1988
(S'effortful'
p1989
g1986
tp1990
as(g211
g746
tp1991
(lp1992
(g215
g746
tp1993
as(g759
S'mirror'
p1994
tp1995
(lp1996
(g762
g1994
tp1997
as(g7
g598
tp1998
(lp1999
(g11
g598
tp2000
as(g625
S'convent'
p2001
tp2002
(lp2003
(g97
g2001
tp2004
as(S'ineffective'
p2005
S'pea_shooter'
p2006
tp2007
(lp2008
(S'effective'
p2009
g2006
tp2010
as(g27
g66
tp2011
(lp2012
(g31
g66
tp2013
a(g33
g66
tp2014
as(g143
g626
tp2015
(lp2016
(g137
g626
tp2017
a(g451
g626
tp2018
a(g453
g626
tp2019
a(g455
g626
tp2020
a(g457
g626
tp2021
as(g705
S'stapler'
p2022
tp2023
(lp2024
(g701
g2022
tp2025
as(g173
S'flea'
p2026
tp2027
(lp2028
(g177
g2026
tp2029
as(g120
S'nail'
p2030
tp2031
(lp2032
(g124
g2030
tp2033
as(g65
g2026
tp2034
(lp2035
(g69
g2026
tp2036
as(g27
S'forest'
p2037
tp2038
(lp2039
(g31
g2037
tp2040
a(g33
g2037
tp2041
as(g143
S'fur_coat'
p2042
tp2043
(lp2044
(g137
g2042
tp2045
a(g451
g2042
tp2046
a(g453
g2042
tp2047
a(g455
g2042
tp2048
a(g457
g2042
tp2049
as(g189
S'painting'
p2050
tp2051
(lp2052
(g193
g2050
tp2053
a(g195
g2050
tp2054
as(g1807
S'petrol_bomb'
p2055
tp2056
(lp2057
(g1811
g2055
tp2058
as(g7
S'amoeba'
p2059
tp2060
(lp2061
(g11
g2059
tp2062
as(g7
g1059
tp2063
(lp2064
(g11
g1059
tp2065
as(g843
S'torrent'
p2066
tp2067
(lp2068
(g847
g2066
tp2069
a(g143
g2066
tp2070
a(g850
g2066
tp2071
as(g753
S'willow'
p2072
tp2073
(lp2074
(g757
g2072
tp2075
as(g93
S'engraver'
p2076
tp2077
(lp2078
(g97
g2076
tp2079
a(g99
g2076
tp2080
a(g101
g2076
tp2081
as(g93
S'laser_printer'
p2082
tp2083
(lp2084
(g97
g2082
tp2085
a(g99
g2082
tp2086
a(g101
g2082
tp2087
as(g19
S'wolf'
p2088
tp2089
(lp2090
(g23
g2088
tp2091
a(g25
g2088
tp2092
as(g547
S'shire_horse'
p2093
tp2094
(lp2095
(g551
g2093
tp2096
a(g553
g2093
tp2097
as(g57
S'lawyer'
p2098
tp2099
(lp2100
(g53
g2098
tp2101
as(g27
S'heartbeat'
p2102
tp2103
(lp2104
(g31
g2102
tp2105
a(g33
g2102
tp2106
as(g211
S'mirage'
p2107
tp2108
(lp2109
(g215
g2107
tp2110
as(g19
S'espresso'
p2111
tp2112
(lp2113
(g23
g2111
tp2114
a(g25
g2111
tp2115
as(g205
g1188
tp2116
(lp2117
(g209
g1188
tp2118
as(g759
S'rainforest'
p2119
tp2120
(lp2121
(g762
g2119
tp2122
as(g65
S'vulture'
p2123
tp2124
(lp2125
(g69
g2123
tp2126
as(g701
S'brain_surgery'
p2127
tp2128
(lp2129
(g705
g2127
tp2130
as(g19
S'buffalo'
p2131
tp2132
(lp2133
(g23
g2131
tp2134
a(g25
g2131
tp2135
as(g571
S'stick'
p2136
tp2137
(lp2138
(g25
g2136
tp2139
as(g53
S'needle'
p2140
tp2141
(lp2142
(g57
g2140
tp2143
a(g59
g2140
tp2144
a(g61
g2140
tp2145
a(g63
g2140
tp2146
as(S'wrinkled'
p2147
S'raisin'
p2148
tp2149
(lp2150
(S'unwrinkled'
p2151
g2148
tp2152
a(S'ironed'
p2153
g2148
tp2154
as(g137
g1868
tp2155
(lp2156
(g141
g1868
tp2157
a(g143
g1868
tp2158
a(g145
g1868
tp2159
as(g276
g1859
tp2160
(lp2161
(g280
g1859
tp2162
as(g189
S'photograph'
p2163
tp2164
(lp2165
(g193
g2163
tp2166
a(g195
g2163
tp2167
as(g217
g1005
tp2168
(lp2169
(g221
g1005
tp2170
as(g57
S'politician'
p2171
tp2172
(lp2173
(g53
g2171
tp2174
as(g229
S'pig'
p2175
tp2176
(lp2177
(g233
g2175
tp2178
as(g173
S'weed'
p2179
tp2180
(lp2181
(g177
g2179
tp2182
as(g19
g415
tp2183
(lp2184
(g23
g415
tp2185
a(g25
g415
tp2186
as(g53
S'line'
p2187
tp2188
(lp2189
(g57
g2187
tp2190
a(g59
g2187
tp2191
a(g61
g2187
tp2192
a(g63
g2187
tp2193
as(g159
S'tiger'
p2194
tp2195
(lp2196
(g155
g2194
tp2197
as(g1426
S'alley_cat'
p2198
tp2199
(lp2200
(g1429
g2198
tp2201
as(g705
g2119
tp2202
(lp2203
(g701
g2119
tp2204
as(g19
S'cart_horse'
p2205
tp2206
(lp2207
(g23
g2205
tp2208
a(g25
g2205
tp2209
as(g93
S'tooth'
p2210
tp2211
(lp2212
(g97
g2210
tp2213
a(g99
g2210
tp2214
a(g101
g2210
tp2215
as(g93
S'butcher_knife'
p2216
tp2217
(lp2218
(g97
g2216
tp2219
a(g99
g2216
tp2220
a(g101
g2216
tp2221
as(g53
S'broom_handle'
p2222
tp2223
(lp2224
(g57
g2222
tp2225
a(g59
g2222
tp2226
a(g61
g2222
tp2227
a(g63
g2222
tp2228
as(g118
g702
tp2229
(lp2230
(g114
g702
tp2231
as(g370
S'stork'
p2232
tp2233
(lp2234
(g374
g2232
tp2235
as(g13
S'smell'
p2236
tp2237
(lp2238
(g17
g2236
tp2239
as(g1615
S'laptop_computer'
p2240
tp2241
(lp2242
(g1619
g2240
tp2243
as(g968
S'coffee_bean'
p2244
tp2245
(lp2246
(g972
g2244
tp2247
as(g126
S'cathedral'
p2248
tp2249
(lp2250
(g130
g2248
tp2251
as(g274
S'pickup_truck'
p2252
tp2253
(lp2254
(g270
g2252
tp2255
a(g540
g2252
tp2256
as(g93
g1846
tp2257
(lp2258
(g97
g1846
tp2259
a(g99
g1846
tp2260
a(g101
g1846
tp2261
as(S'spineless'
p2262
S'chocolate_eclair'
p2263
tp2264
(lp2265
(S'vertebrate'
p2266
g2263
tp2267
a(S'spinous'
p2268
g2263
tp2269
as(g143
S'petal'
p2270
tp2271
(lp2272
(g137
g2270
tp2273
a(g451
g2270
tp2274
a(g453
g2270
tp2275
a(g455
g2270
tp2276
a(g457
g2270
tp2277
as(g137
g1535
tp2278
(lp2279
(g141
g1535
tp2280
a(g143
g1535
tp2281
a(g145
g1535
tp2282
as(g31
S'dodo'
p2283
tp2284
(lp2285
(g27
g2283
tp2286
a(g1063
g2283
tp2287
as(g197
S'tortilla'
p2288
tp2289
(lp2290
(g201
g2288
tp2291
a(g203
g2288
tp2292
as(g27
S'jungle'
p2293
tp2294
(lp2295
(g31
g2293
tp2296
a(g33
g2293
tp2297
as(g227
S'sand_trap'
p2298
tp2299
(lp2300
(g223
g2298
tp2301
a(g768
g2298
tp2302
a(g770
g2298
tp2303
as(S'tense'
p2304
S'bow'
p2305
tp2306
(lp2307
(S'relaxed'
p2308
g2305
tp2309
a(S'lax'
p2310
g2305
tp2311
as(g137
g1611
tp2312
(lp2313
(g141
g1611
tp2314
a(g143
g1611
tp2315
a(g145
g1611
tp2316
as(g43
S'rookie'
p2317
tp2318
(lp2319
(g47
g2317
tp2320
a(g49
g2317
tp2321
a(g51
g2317
tp2322
as(g215
S'battleship'
p2323
tp2324
(lp2325
(g211
g2323
tp2326
a(g596
g2323
tp2327
as(g126
S'mountain_range'
p2328
tp2329
(lp2330
(g130
g2328
tp2331
as(g1
S'rocket'
p2332
tp2333
(lp2334
(g5
g2332
tp2335
as(g114
S'snail'
p2336
tp2337
(lp2338
(g118
g2336
tp2339
as(g274
S'duckling'
p2340
tp2341
(lp2342
(g270
g2340
tp2343
a(g540
g2340
tp2344
as(g695
S'whopper'
p2345
tp2346
(lp2347
(g699
g2345
tp2348
as(g19
S'crowbar'
p2349
tp2350
(lp2351
(g23
g2349
tp2352
a(g25
g2349
tp2353
as(g233
g1897
tp2354
(lp2355
(g229
g1897
tp2356
a(g239
g1897
tp2357
as(g571
S'spine'
p2358
tp2359
(lp2360
(g25
g2358
tp2361
as(g370
S'minuet'
p2362
tp2363
(lp2364
(g374
g2362
tp2365
as(g19
g1197
tp2366
(lp2367
(g23
g1197
tp2368
a(g25
g1197
tp2369
as(g625
S'market'
p2370
tp2371
(lp2372
(g97
g2370
tp2373
as(g31
S'cemetery'
p2374
tp2375
(lp2376
(g27
g2374
tp2377
a(g1063
g2374
tp2378
as(g114
S'ostrich'
p2379
tp2380
(lp2381
(g118
g2379
tp2382
as(g201
g2349
tp2383
(lp2384
(g197
g2349
tp2385
a(g177
g2349
tp2386
as(g571
g1337
tp2387
(lp2388
(g25
g1337
tp2389
as(g76
S'shroud'
p2390
tp2391
(lp2392
(g80
g2390
tp2393
a(g82
g2390
tp2394
as(g1615
g462
tp2395
(lp2396
(g1619
g462
tp2397
as(g439
g350
tp2398
(lp2399
(g443
g350
tp2400
a(g445
g350
tp2401
as(g19
S'dragon'
p2402
tp2403
(lp2404
(g23
g2402
tp2405
a(g25
g2402
tp2406
as(g701
S'gauze_bandage'
p2407
tp2408
(lp2409
(g705
g2407
tp2410
as(g968
g1572
tp2411
(lp2412
(g972
g1572
tp2413
as(g23
S'teddy_bear'
p2414
tp2415
(lp2416
(g19
g2414
tp2417
as(g759
g350
tp2418
(lp2419
(g762
g350
tp2420
as(g1154
S'duck'
p2421
tp2422
(lp2423
(g1157
g2421
tp2424
as(g396
g1510
tp2425
(lp2426
(g392
g1510
tp2427
as(g65
S'halibut'
p2428
tp2429
(lp2430
(g69
g2428
tp2431
as(g968
S'puppy'
p2432
tp2433
(lp2434
(g972
g2432
tp2435
as(g396
S'prison_cell'
p2436
tp2437
(lp2438
(g392
g2436
tp2439
as(g143
g467
tp2440
(lp2441
(g137
g467
tp2442
a(g451
g467
tp2443
a(g453
g467
tp2444
a(g455
g467
tp2445
a(g457
g467
tp2446
as(g1332
g8
tp2447
(lp2448
(g1335
g8
tp2449
as(S'real'
p2450
S'puppet_show'
p2451
tp2452
(lp2453
(S'unreal'
p2454
g2451
tp2455
a(S'nominal'
p2456
g2451
tp2457
a(g1538
g2451
tp2458
as(g43
S'flower'
p2459
tp2460
(lp2461
(g47
g2459
tp2462
a(g49
g2459
tp2463
a(g51
g2459
tp2464
as(g723
S'fatwa'
p2465
tp2466
(lp2467
(g727
g2465
tp2468
as(g370
g1779
tp2469
(lp2470
(g374
g1779
tp2471
as(g2304
S'thriller'
p2472
tp2473
(lp2474
(g2308
g2472
tp2475
a(g2310
g2472
tp2476
as(g205
g1465
tp2477
(lp2478
(g209
g1465
tp2479
as(g1807
S'firecracker'
p2480
tp2481
(lp2482
(g1811
g2480
tp2483
as(g2262
g218
tp2484
(lp2485
(g2266
g218
tp2486
a(g2268
g218
tp2487
as(g76
S'tambourine'
p2488
tp2489
(lp2490
(g80
g2488
tp2491
a(g82
g2488
tp2492
as(g189
g844
tp2493
(lp2494
(g193
g844
tp2495
a(g195
g844
tp2496
as(g7
S'sponge'
p2497
tp2498
(lp2499
(g11
g2497
tp2500
as(S'organic'
p2501
S'dump'
p2502
tp2503
(lp2504
(S'inorganic'
p2505
g2502
tp2506
a(S'functional'
p2507
g2502
tp2508
as(g657
g604
tp2509
(lp2510
(g101
g604
tp2511
as(g43
S'beginner'
p2512
tp2513
(lp2514
(g47
g2512
tp2515
a(g49
g2512
tp2516
a(g51
g2512
tp2517
as(g130
S'hare'
p2518
tp2519
(lp2520
(g126
g2518
tp2521
as(g370
S'swallow'
p2522
tp2523
(lp2524
(g374
g2522
tp2525
as(g93
S'laser_beam'
p2526
tp2527
(lp2528
(g97
g2526
tp2529
a(g99
g2526
tp2530
a(g101
g2526
tp2531
as(g217
g322
tp2532
(lp2533
(g221
g322
tp2534
as(g856
g335
tp2535
(lp2536
(g860
g335
tp2537
as(g31
S'mutton'
p2538
tp2539
(lp2540
(g27
g2538
tp2541
a(g1063
g2538
tp2542
as(g93
g1535
tp2543
(lp2544
(g97
g1535
tp2545
a(g99
g1535
tp2546
a(g101
g1535
tp2547
as(g316
g844
tp2548
(lp2549
(g320
g844
tp2550
as(g101
S'snowflake'
p2551
tp2552
(lp2553
(g655
g2551
tp2554
a(g657
g2551
tp2555
a(g659
g2551
tp2556
a(g99
g2551
tp2557
a(g93
g2551
tp2558
as(g189
S'morgue'
p2559
tp2560
(lp2561
(g193
g2559
tp2562
a(g195
g2559
tp2563
as(g65
S'wart'
p2564
tp2565
(lp2566
(g69
g2564
tp2567
as(g247
S'robot'
p2568
tp2569
(lp2570
(g251
g2568
tp2571
as(g472
S'microchip'
p2572
tp2573
(lp2574
(g476
g2572
tp2575
as(g211
g302
tp2576
(lp2577
(g215
g302
tp2578
as(g211
S'orchid'
p2579
tp2580
(lp2581
(g215
g2579
tp2582
as(g625
S'wax_figure'
p2583
tp2584
(lp2585
(g97
g2583
tp2586
as(g476
S'sunbeam'
p2587
tp2588
(lp2589
(g472
g2587
tp2590
a(S'compound'
p2591
g2587
tp2592
as(g137
S'oak'
p2593
tp2594
(lp2595
(g141
g2593
tp2596
a(g143
g2593
tp2597
a(g145
g2593
tp2598
as(g19
g857
tp2599
(lp2600
(g23
g857
tp2601
a(g25
g857
tp2602
as(g118
S'garbage_truck'
p2603
tp2604
(lp2605
(g114
g2603
tp2606
as(g753
S'wind'
p2607
tp2608
(lp2609
(g757
g2607
tp2610
as(g173
S'skyscraper'
p2611
tp2612
(lp2613
(g177
g2611
tp2614
as(g143
g2551
tp2615
(lp2616
(g137
g2551
tp2617
a(g451
g2551
tp2618
a(g453
g2551
tp2619
a(g455
g2551
tp2620
a(g457
g2551
tp2621
as(g43
S'peach'
p2622
tp2623
(lp2624
(g47
g2622
tp2625
a(g49
g2622
tp2626
a(g51
g2622
tp2627
as(g27
S'volcano'
p2628
tp2629
(lp2630
(g31
g2628
tp2631
a(g33
g2628
tp2632
as(g349
g190
tp2633
(lp2634
(g353
g190
tp2635
a(g355
g190
tp2636
a(g357
g190
tp2637
as(S'weightless'
p2638
S'dream'
p2639
tp2640
(lp2641
(S'weighty'
p2642
g2639
tp2643
as(g625
g780
tp2644
(lp2645
(g97
g780
tp2646
as(g120
S'rancher'
p2647
tp2648
(lp2649
(g124
g2647
tp2650
as(g43
g1217
tp2651
(lp2652
(g47
g1217
tp2653
a(g49
g1217
tp2654
a(g51
g1217
tp2655
as(g994
S'mustang'
p2656
tp2657
(lp2658
(g998
g2656
tp2659
as(g520
S'cuckoo_clock'
p2660
tp2661
(lp2662
(g524
g2660
tp2663
a(g526
g2660
tp2664
as(g120
g28
tp2665
(lp2666
(g124
g28
tp2667
as(g197
S'snake'
p2668
tp2669
(lp2670
(g201
g2668
tp2671
a(g203
g2668
tp2672
as(g112
S'manx_cat'
p2673
tp2674
(lp2675
(g108
g2673
tp2676
as(g1798
S'map'
p2677
tp2678
(lp2679
(g1802
g2677
tp2680
as(g547
S'football_player'
p2681
tp2682
(lp2683
(g551
g2681
tp2684
a(g553
g2681
tp2685
as(g76
S'pressure_cooker'
p2686
tp2687
(lp2688
(g80
g2686
tp2689
a(g82
g2686
tp2690
as(g472
S'chess_game'
p2691
tp2692
(lp2693
(g476
g2691
tp2694
as(g43
S'shower'
p2695
tp2696
(lp2697
(g47
g2695
tp2698
a(g49
g2695
tp2699
a(g51
g2695
tp2700
as(g120
g1632
tp2701
(lp2702
(g124
g1632
tp2703
as(g349
g2317
tp2704
(lp2705
(g353
g2317
tp2706
a(g355
g2317
tp2707
a(g357
g2317
tp2708
as(g205
S'bunker'
p2709
tp2710
(lp2711
(g209
g2709
tp2712
as(g159
g630
tp2713
(lp2714
(g155
g630
tp2715
as(g93
S'hammer'
p2716
tp2717
(lp2718
(g97
g2716
tp2719
a(g99
g2716
tp2720
a(g101
g2716
tp2721
as(g93
S'burr'
p2722
tp2723
(lp2724
(g97
g2722
tp2725
a(g99
g2722
tp2726
a(g101
g2722
tp2727
as(g968
g2194
tp2728
(lp2729
(g972
g2194
tp2730
as(g93
S'icicle'
p2731
tp2732
(lp2733
(g97
g2731
tp2734
a(g99
g2731
tp2735
a(g101
g2731
tp2736
as(g120
S'hacksaw'
p2737
tp2738
(lp2739
(g124
g2737
tp2740
as(g197
g2568
tp2741
(lp2742
(g201
g2568
tp2743
a(g203
g2568
tp2744
as(g23
g626
tp2745
(lp2746
(g19
g626
tp2747
as(S'skilled'
p2748
S'chef'
p2749
tp2750
(lp2751
(S'unskilled'
p2752
g2749
tp2753
as(S'flimsy'
p2754
g212
tp2755
(lp2756
(S'convincing'
p2757
g212
tp2758
as(g571
g190
tp2759
(lp2760
(g25
g190
tp2761
as(g247
g800
tp2762
(lp2763
(g251
g800
tp2764
as(g143
S'cloud'
p2765
tp2766
(lp2767
(g137
g2765
tp2768
a(g451
g2765
tp2769
a(g453
g2765
tp2770
a(g455
g2765
tp2771
a(g457
g2765
tp2772
as(S'mortal'
p2773
g1554
tp2774
(lp2775
(S'immortal'
p2776
g1554
tp2777
as(g370
S'mountain_lion'
p2778
tp2779
(lp2780
(g374
g2778
tp2781
as(g31
S'tumbleweed'
p2782
tp2783
(lp2784
(g27
g2782
tp2785
a(g1063
g2782
tp2786
as(g173
g1611
tp2787
(lp2788
(g177
g1611
tp2789
as(g370
g399
tp2790
(lp2791
(g374
g399
tp2792
as(g723
S'husband'
p2793
tp2794
(lp2795
(g727
g2793
tp2796
as(g147
S'cob'
p2797
tp2798
(lp2799
(g151
g2797
tp2800
a(g153
g2797
tp2801
as(g71
S'tragedy'
p2802
tp2803
(lp2804
(g25
g2802
tp2805
as(g76
S'corset'
p2806
tp2807
(lp2808
(g80
g2806
tp2809
a(g82
g2806
tp2810
as(g349
g581
tp2811
(lp2812
(g353
g581
tp2813
a(g355
g581
tp2814
a(g357
g581
tp2815
as(g27
S'bacteria'
p2816
tp2817
(lp2818
(g31
g2816
tp2819
a(g33
g2816
tp2820
as(g173
S'beer_can'
p2821
tp2822
(lp2823
(g177
g2821
tp2824
as(g35
g2414
tp2825
(lp2826
(g39
g2414
tp2827
a(g41
g2414
tp2828
as(g93
S'soup_spoon'
p2829
tp2830
(lp2831
(g97
g2829
tp2832
a(g99
g2829
tp2833
a(g101
g2829
tp2834
as(g53
g1675
tp2835
(lp2836
(g57
g1675
tp2837
a(g59
g1675
tp2838
a(g61
g1675
tp2839
a(g63
g1675
tp2840
as(g370
g1616
tp2841
(lp2842
(g374
g1616
tp2843
as(g19
S'goldfish'
p2844
tp2845
(lp2846
(g23
g2844
tp2847
a(g25
g2844
tp2848
as(g759
g2293
tp2849
(lp2850
(g762
g2293
tp2851
as(g571
S'hardwood'
p2852
tp2853
(lp2854
(g25
g2852
tp2855
as(g118
S'striptease'
p2856
tp2857
(lp2858
(g114
g2856
tp2859
as(g31
g241
tp2860
(lp2861
(g27
g241
tp2862
a(g1063
g241
tp2863
as(g101
S'sunflower'
p2864
tp2865
(lp2866
(g655
g2864
tp2867
a(g657
g2864
tp2868
a(g659
g2864
tp2869
a(g99
g2864
tp2870
a(g93
g2864
tp2871
as(g357
S'coconut'
p2872
tp2873
(lp2874
(g349
g2872
tp2875
as(g7
S'ironing_board'
p2876
tp2877
(lp2878
(g11
g2876
tp2879
as(g233
S'whistle'
p2880
tp2881
(lp2882
(g229
g2880
tp2883
a(g239
g2880
tp2884
as(g223
S'diver'
p2885
tp2886
(lp2887
(g227
g2885
tp2888
as(g1704
g2622
tp2889
(lp2890
(g1708
g2622
tp2891
as(g1807
S'suicide_bomber'
p2892
tp2893
(lp2894
(g1811
g2892
tp2895
as(S'basic'
p2896
S'flashlight'
p2897
tp2898
(lp2899
(S'incidental'
p2900
g2897
tp2901
as(g88
S'melon'
p2902
tp2903
(lp2904
(g91
g2902
tp2905
as(g349
g302
tp2906
(lp2907
(g353
g302
tp2908
a(g355
g302
tp2909
a(g357
g302
tp2910
as(g1196
S'football'
p2911
tp2912
(lp2913
(g1200
g2911
tp2914
as(g1807
S'bomb'
p2915
tp2916
(lp2917
(g1811
g2915
tp2918
as(g130
g241
tp2919
(lp2920
(g126
g241
tp2921
as(g143
S'whisper'
p2922
tp2923
(lp2924
(g137
g2922
tp2925
a(g451
g2922
tp2926
a(g453
g2922
tp2927
a(g455
g2922
tp2928
a(g457
g2922
tp2929
as(g27
g1197
tp2930
(lp2931
(g31
g1197
tp2932
a(g33
g1197
tp2933
as(g137
S'pine_knot'
p2934
tp2935
(lp2936
(g141
g2934
tp2937
a(g143
g2934
tp2938
a(g145
g2934
tp2939
as(g2748
S'master'
p2940
tp2941
(lp2942
(g2752
g2940
tp2943
as(g93
S'wasp'
p2944
tp2945
(lp2946
(g97
g2944
tp2947
a(g99
g2944
tp2948
a(g101
g2944
tp2949
as(g120
S'plank'
p2950
tp2951
(lp2952
(g124
g2950
tp2953
as(g7
g1337
tp2954
(lp2955
(g11
g1337
tp2956
as(g229
S'gargoyle'
p2957
tp2958
(lp2959
(g233
g2957
tp2960
as(g211
S'seashell'
p2961
tp2962
(lp2963
(g215
g2961
tp2964
as(g520
S'ham_sandwich'
p2965
tp2966
(lp2967
(g524
g2965
tp2968
a(g526
g2965
tp2969
as(g856
g8
tp2970
(lp2971
(g860
g8
tp2972
as(g19
S'gladiator'
p2973
tp2974
(lp2975
(g23
g2973
tp2976
a(g25
g2973
tp2977
as(g396
S'spam'
p2978
tp2979
(lp2980
(g392
g2978
tp2981
as(g19
S'wrestler'
p2982
tp2983
(lp2984
(g23
g2982
tp2985
a(g25
g2982
tp2986
as(g7
S'girder'
p2987
tp2988
(lp2989
(g11
g2987
tp2990
as(g19
S'predator'
p2991
tp2992
(lp2993
(g23
g2991
tp2994
a(g25
g2991
tp2995
as(S'immature'
p2996
S'kid'
p2997
tp2998
(lp2999
(S'mature'
p3000
g2997
tp3001
a(S'old'
p3002
g2997
tp3003
a(g88
g2997
tp3004
a(S'fledged'
p3005
g2997
tp3006
as(g625
S'colt'
p3007
tp3008
(lp3009
(g97
g3007
tp3010
as(g2304
S'fight'
p3011
tp3012
(lp3013
(g2308
g3011
tp3014
a(g2310
g3011
tp3015
as(g349
S'courthouse'
p3016
tp3017
(lp3018
(g353
g3016
tp3019
a(g355
g3016
tp3020
a(g357
g3016
tp3021
as(g701
S'cotton_ball'
p3022
tp3023
(lp3024
(g705
g3022
tp3025
as(g701
S'eunuch'
p3026
tp3027
(lp3028
(g705
g3026
tp3029
as(g625
g1469
tp3030
(lp3031
(g97
g1469
tp3032
as(g155
S'dromedary'
p3033
tp3034
(lp3035
(g159
g3033
tp3036
as(g65
g1743
tp3037
(lp3038
(g69
g1743
tp3039
as(g1426
S'fiddle'
p3040
tp3041
(lp3042
(g1429
g3040
tp3043
as(g19
g2323
tp3044
(lp3045
(g23
g2323
tp3046
a(g25
g2323
tp3047
as(g137
g190
tp3048
(lp3049
(g141
g190
tp3050
a(g143
g190
tp3051
a(g145
g190
tp3052
as(g65
S'asshole'
p3053
tp3054
(lp3055
(g69
g3053
tp3056
as(g247
g844
tp3057
(lp3058
(g251
g844
tp3059
as(g247
g1278
tp3060
(lp3061
(g251
g1278
tp3062
as(g359
g1616
tp3063
(lp3064
(g363
g1616
tp3065
as(g211
g360
tp3066
(lp3067
(g215
g360
tp3068
as(S'addicted'
p3069
S'heroin_addict'
p3070
tp3071
(lp3072
(S'unaddicted'
p3073
g3070
tp3074
as(g19
g1251
tp3075
(lp3076
(g23
g1251
tp3077
a(g25
g1251
tp3078
as(g53
S'basketball_hoop'
p3079
tp3080
(lp3081
(g57
g3079
tp3082
a(g59
g3079
tp3083
a(g61
g3079
tp3084
a(g63
g3079
tp3085
as(g159
S'hawk'
p3086
tp3087
(lp3088
(g155
g3086
tp3089
as(g1196
g489
tp3090
(lp3091
(g1200
g489
tp3092
as(g223
g230
tp3093
(lp3094
(g227
g230
tp3095
as(g76
g2305
tp3096
(lp3097
(g80
g2305
tp3098
a(g82
g2305
tp3099
as(g189
g335
tp3100
(lp3101
(g193
g335
tp3102
a(g195
g335
tp3103
as(g114
g1589
tp3104
(lp3105
(g118
g1589
tp3106
as(g211
g1595
tp3107
(lp3108
(g215
g1595
tp3109
as(g270
S'telephone_directory'
p3110
tp3111
(lp3112
(g274
g3110
tp3113
as(g571
S'cane'
p3114
tp3115
(lp3116
(g25
g3114
tp3117
as(g370
S'poet'
p3118
tp3119
(lp3120
(g374
g3118
tp3121
as(g2262
S'mollusk'
p3122
tp3123
(lp3124
(g2266
g3122
tp3125
a(g2268
g3122
tp3126
as(g2754
S'screen_door'
p3127
tp3128
(lp3129
(g2757
g3127
tp3130
as(g2754
g536
tp3131
(lp3132
(g2757
g536
tp3133
as(g349
g862
tp3134
(lp3135
(g353
g862
tp3136
a(g355
g862
tp3137
a(g357
g862
tp3138
as(g625
S'zombie'
p3139
tp3140
(lp3141
(g97
g3139
tp3142
as(g2748
S'grandmaster'
p3143
tp3144
(lp3145
(g2752
g3143
tp3146
as(g705
g2037
tp3147
(lp3148
(g701
g2037
tp3149
as(g35
S'burgher'
p3150
tp3151
(lp3152
(g39
g3150
tp3153
a(g41
g3150
tp3154
as(g983
g2328
tp3155
(lp3156
(g987
g2328
tp3157
as(g143
S'shipyard'
p3158
tp3159
(lp3160
(g137
g3158
tp3161
a(g451
g3158
tp3162
a(g453
g3158
tp3163
a(g455
g3158
tp3164
a(g457
g3158
tp3165
as(g159
g8
tp3166
(lp3167
(g155
g8
tp3168
as(g856
g2323
tp3169
(lp3170
(g860
g2323
tp3171
as(g571
S'plate'
p3172
tp3173
(lp3174
(g25
g3172
tp3175
as(g571
g604
tp3176
(lp3177
(g25
g604
tp3178
as(g1798
S'card_catalogue'
p3179
tp3180
(lp3181
(g1802
g3179
tp3182
as(g223
S'seashore'
p3183
tp3184
(lp3185
(g227
g3183
tp3186
as(g370
g248
tp3187
(lp3188
(g374
g248
tp3189
as(g695
S'tripledecker'
p3190
tp3191
(lp3192
(g699
g3190
tp3193
as(g126
S'boulder'
p3194
tp3195
(lp3196
(g130
g3194
tp3197
as(g215
S'anvil'
p3198
tp3199
(lp3200
(g211
g3198
tp3201
a(g596
g3198
tp3202
as(g130
g1307
tp3203
(lp3204
(g126
g1307
tp3205
as(g547
S'speed_skater'
p3206
tp3207
(lp3208
(g551
g3206
tp3209
a(g553
g3206
tp3210
as(g520
g604
tp3211
(lp3212
(g524
g604
tp3213
a(g526
g604
tp3214
as(g274
S'pillow'
p3215
tp3216
(lp3217
(g270
g3215
tp3218
a(g540
g3215
tp3219
as(g753
S'hummingbird'
p3220
tp3221
(lp3222
(g757
g3220
tp3223
as(g53
g2876
tp3224
(lp3225
(g57
g2876
tp3226
a(g59
g2876
tp3227
a(g61
g2876
tp3228
a(g63
g2876
tp3229
as(g88
S'grape'
p3230
tp3231
(lp3232
(g91
g3230
tp3233
as(g1509
S'spring'
p3234
tp3235
(lp3236
(g1513
g3234
tp3237
as(g27
g1554
tp3238
(lp3239
(g31
g1554
tp3240
a(g33
g1554
tp3241
as(S'balanced'
p3242
S'tightrope_walker'
p3243
tp3244
(lp3245
(S'unbalanced'
p3246
g3243
tp3247
as(g101
g287
tp3248
(lp3249
(g655
g287
tp3250
a(g657
g287
tp3251
a(g659
g287
tp3252
a(g99
g287
tp3253
a(g93
g287
tp3254
as(g233
S'surgeon'
p3255
tp3256
(lp3257
(g229
g3255
tp3258
a(g239
g3255
tp3259
as(g349
S'train'
p3260
tp3261
(lp3262
(g353
g3260
tp3263
a(g355
g3260
tp3264
a(g357
g3260
tp3265
as(g370
S'matador'
p3266
tp3267
(lp3268
(g374
g3266
tp3269
as(g189
S'coffin'
p3270
tp3271
(lp3272
(g193
g3270
tp3273
a(g195
g3270
tp3274
as(g93
g1510
tp3275
(lp3276
(g97
g1510
tp3277
a(g99
g1510
tp3278
a(g101
g1510
tp3279
as(g76
S'bathing_cap'
p3280
tp3281
(lp3282
(g80
g3280
tp3283
a(g82
g3280
tp3284
as(g143
S'chainsaw'
p3285
tp3286
(lp3287
(g137
g3285
tp3288
a(g451
g3285
tp3289
a(g453
g3285
tp3290
a(g455
g3285
tp3291
a(g457
g3285
tp3292
as(g1451
S'tree_stump'
p3293
tp3294
(lp3295
(g1455
g3293
tp3296
as(g137
S'rivet'
p3297
tp3298
(lp3299
(g141
g3297
tp3300
a(g143
g3297
tp3301
a(g145
g3297
tp3302
as(g31
g1554
tp3303
(lp3304
(g27
g1554
tp3305
a(g1063
g1554
tp3306
as(g439
S'library'
p3307
tp3308
(lp3309
(g443
g3307
tp3310
a(g445
g3307
tp3311
as(g359
S'hotdog'
p3312
tp3313
(lp3314
(g363
g3312
tp3315
as(g1426
S'fullback'
p3316
tp3317
(lp3318
(g1429
g3316
tp3319
as(g65
g387
tp3320
(lp3321
(g69
g387
tp3322
as(g19
g674
tp3323
(lp3324
(g23
g674
tp3325
a(g25
g674
tp3326
as(g23
S'schoolgirl'
p3327
tp3328
(lp3329
(g19
g3327
tp3330
as(g571
S'mast'
p3331
tp3332
(lp3333
(g25
g3331
tp3334
as(g1196
g241
tp3335
(lp3336
(g1200
g241
tp3337
as(g736
S'stump'
p3338
tp3339
(lp3340
(g740
g3338
tp3341
as(g7
S'pole'
p3342
tp3343
(lp3344
(g11
g3342
tp3345
as(g233
g1926
tp3346
(lp3347
(g229
g1926
tp3348
a(g239
g1926
tp3349
as(g270
g1854
tp3350
(lp3351
(g274
g1854
tp3352
as(g120
g3215
tp3353
(lp3354
(g124
g3215
tp3355
as(g370
g84
tp3356
(lp3357
(g374
g84
tp3358
as(g1046
S'soldier'
p3359
tp3360
(lp3361
(g1050
g3359
tp3362
a(g1052
g3359
tp3363
as(g19
g3198
tp3364
(lp3365
(g23
g3198
tp3366
a(g25
g3198
tp3367
as(g71
S'latte'
p3368
tp3369
(lp3370
(g25
g3368
tp3371
as(g233
S'cesspool'
p3372
tp3373
(lp3374
(g229
g3372
tp3375
a(g239
g3372
tp3376
as(g349
g156
tp3377
(lp3378
(g353
g156
tp3379
a(g355
g156
tp3380
a(g357
g156
tp3381
as(g65
S'turd'
p3382
tp3383
(lp3384
(g69
g3382
tp3385
as(g143
S'mink_coat'
p3386
tp3387
(lp3388
(g137
g3386
tp3389
a(g451
g3386
tp3390
a(g453
g3386
tp3391
a(g455
g3386
tp3392
a(g457
g3386
tp3393
as(g35
S'panda'
p3394
tp3395
(lp3396
(g39
g3394
tp3397
a(g41
g3394
tp3398
as(g65
S'ogre'
p3399
tp3400
(lp3401
(g69
g3399
tp3402
as(g76
S'dog_collar'
p3403
tp3404
(lp3405
(g80
g3403
tp3406
a(g82
g3403
tp3407
as(g559
S'quill'
p3408
tp3409
(lp3410
(g563
g3408
tp3411
as(g472
S'computer'
p3412
tp3413
(lp3414
(g476
g3412
tp3415
as(g349
g565
tp3416
(lp3417
(g353
g565
tp3418
a(g355
g565
tp3419
a(g357
g565
tp3420
as(g88
S'cucumber'
p3421
tp3422
(lp3423
(g91
g3421
tp3424
as(g1036
S'surgery'
p3425
tp3426
(lp3427
(g1040
g3425
tp3428
as(g57
S'hunchback'
p3429
tp3430
(lp3431
(g53
g3429
tp3432
as(g118
S'tea_ceremony'
p3433
tp3434
(lp3435
(g114
g3433
tp3436
as(g359
S'cub_scout'
p3437
tp3438
(lp3439
(g363
g3437
tp3440
as(g93
g36
tp3441
(lp3442
(g97
g36
tp3443
a(g99
g36
tp3444
a(g101
g36
tp3445
as(g53
g737
tp3446
(lp3447
(g57
g737
tp3448
a(g59
g737
tp3449
a(g61
g737
tp3450
a(g63
g737
tp3451
as(g43
S'citrus'
p3452
tp3453
(lp3454
(g47
g3452
tp3455
a(g49
g3452
tp3456
a(g51
g3452
tp3457
as(g1704
S'plum'
p3458
tp3459
(lp3460
(g1708
g3458
tp3461
as(g53
S'hoop'
p3462
tp3463
(lp3464
(g57
g3462
tp3465
a(g59
g3462
tp3466
a(g61
g3462
tp3467
a(g63
g3462
tp3468
as(g120
g648
tp3469
(lp3470
(g124
g648
tp3471
as(g88
g3458
tp3472
(lp3473
(g91
g3458
tp3474
as(g189
S'graveyard'
p3475
tp3476
(lp3477
(g193
g3475
tp3478
a(g195
g3475
tp3479
as(g5
g923
tp3480
(lp3481
(g1
g923
tp3482
as(g1451
S'referee'
p3483
tp3484
(lp3485
(g1455
g3483
tp3486
as(g27
g2119
tp3487
(lp3488
(g31
g2119
tp3489
a(g33
g2119
tp3490
as(g23
S'infant'
p3491
tp3492
(lp3493
(g19
g3491
tp3494
as(g972
S'sloth'
p3495
tp3496
(lp3497
(g968
g3495
tp3498
as(g223
S'swamp'
p3499
tp3500
(lp3501
(g227
g3499
tp3502
as(g251
S'failure'
p3503
tp3504
(lp3505
(g247
g3503
tp3506
as(S'frozen'
p3507
g1554
tp3508
(lp3509
(S'unfrozen'
p3510
g1554
tp3511
as(g137
S'axe'
p3512
tp3513
(lp3514
(g141
g3512
tp3515
a(g143
g3512
tp3516
a(g145
g3512
tp3517
as(g276
g2622
tp3518
(lp3519
(g280
g2622
tp3520
as(g229
S'pigsty'
p3521
tp3522
(lp3523
(g233
g3521
tp3524
as(g114
S'race_car'
p3525
tp3526
(lp3527
(g118
g3525
tp3528
as(g7
g399
tp3529
(lp3530
(g11
g399
tp3531
as(g93
g2497
tp3532
(lp3533
(g97
g2497
tp3534
a(g99
g2497
tp3535
a(g101
g2497
tp3536
as(g57
g322
tp3537
(lp3538
(g53
g322
tp3539
as(g17
S'prototype'
p3540
tp3541
(lp3542
(g13
g3540
tp3543
a(g1326
g3540
tp3544
as(g370
S'turkey'
p3545
tp3546
(lp3547
(g374
g3545
tp3548
as(g118
g3394
tp3549
(lp3550
(g114
g3394
tp3551
as(g13
S'memory'
p3552
tp3553
(lp3554
(g17
g3552
tp3555
as(g1426
g3359
tp3556
(lp3557
(g1429
g3359
tp3558
as(g205
g3127
tp3559
(lp3560
(g209
g3127
tp3561
as(g227
S'dust_devil'
p3562
tp3563
(lp3564
(g223
g3562
tp3565
a(g768
g3562
tp3566
a(g770
g3562
tp3567
as(g2754
S'spider_web'
p3568
tp3569
(lp3570
(g2757
g3568
tp3571
as(g137
g844
tp3572
(lp3573
(g141
g844
tp3574
a(g143
g844
tp3575
a(g145
g844
tp3576
as(g35
g3110
tp3577
(lp3578
(g39
g3110
tp3579
a(g41
g3110
tp3580
as(g120
g2681
tp3581
(lp3582
(g124
g2681
tp3583
as(g229
S'clock'
p3584
tp3585
(lp3586
(g233
g3584
tp3587
as(g217
g1075
tp3588
(lp3589
(g221
g1075
tp3590
as(g19
S'warrior'
p3591
tp3592
(lp3593
(g23
g3591
tp3594
a(g25
g3591
tp3595
as(g270
g399
tp3596
(lp3597
(g274
g399
tp3598
as(g994
S'woman'
p3599
tp3600
(lp3601
(g998
g3599
tp3602
as(g173
S'screw'
p3603
tp3604
(lp3605
(g177
g3603
tp3606
as(g286
g1221
tp3607
(lp3608
(g290
g1221
tp3609
a(g292
g1221
tp3610
a(g294
g1221
tp3611
a(g296
g1221
tp3612
a(g298
g1221
tp3613
a(g300
g1221
tp3614
as(g120
g302
tp3615
(lp3616
(g124
g302
tp3617
as(g1426
S'gym_rat'
p3618
tp3619
(lp3620
(g1429
g3618
tp3621
as(g159
S'alligator'
p3622
tp3623
(lp3624
(g155
g3622
tp3625
as(g1154
g2844
tp3626
(lp3627
(g1157
g2844
tp3628
as(g189
g8
tp3629
(lp3630
(g193
g8
tp3631
a(g195
g8
tp3632
as(g53
g2593
tp3633
(lp3634
(g57
g2593
tp3635
a(g59
g2593
tp3636
a(g61
g2593
tp3637
a(g63
g2593
tp3638
as(g155
g1307
tp3639
(lp3640
(g159
g1307
tp3641
as(g357
S'gourd'
p3642
tp3643
(lp3644
(g349
g3642
tp3645
as(g3242
S'cantilever_bridge'
p3646
tp3647
(lp3648
(g3246
g3646
tp3649
as(g1807
S'molotov'
p3650
tp3651
(lp3652
(g1811
g3650
tp3653
as(g43
g360
tp3654
(lp3655
(g47
g360
tp3656
a(g49
g360
tp3657
a(g51
g360
tp3658
as(S'tired'
p3659
S'dog'
p3660
tp3661
(lp3662
(S'rested'
p3663
g3660
tp3664
as(g270
S'electron'
p3665
tp3666
(lp3667
(g274
g3665
tp3668
as(g65
S'confrontation'
p3669
tp3670
(lp3671
(g69
g3669
tp3672
as(g189
g1554
tp3673
(lp3674
(g193
g1554
tp3675
a(g195
g1554
tp3676
as(g211
S'flower_petal'
p3677
tp3678
(lp3679
(g215
g3677
tp3680
as(g559
S'bayonet'
p3681
tp3682
(lp3683
(g563
g3681
tp3684
as(S'malignant'
p3685
S'dill_pickle'
p3686
tp3687
(lp3688
(S'benign'
p3689
g3686
tp3690
as(g247
g241
tp3691
(lp3692
(g251
g241
tp3693
as(g211
S'goose_egg'
p3694
tp3695
(lp3696
(g215
g3694
tp3697
as(g19
S'lion'
p3698
tp3699
(lp3700
(g23
g3698
tp3701
a(g25
g3698
tp3702
as(g215
S'mountain_bike'
p3703
tp3704
(lp3705
(g211
g3703
tp3706
a(g596
g3703
tp3707
as(g571
g3342
tp3708
(lp3709
(g25
g3342
tp3710
as(g968
g2336
tp3711
(lp3712
(g972
g2336
tp3713
as(g65
S'spider'
p3714
tp3715
(lp3716
(g69
g3714
tp3717
as(g19
g1307
tp3718
(lp3719
(g23
g1307
tp3720
a(g25
g1307
tp3721
as(g143
g2622
tp3722
(lp3723
(g137
g2622
tp3724
a(g451
g2622
tp3725
a(g453
g2622
tp3726
a(g455
g2622
tp3727
a(g457
g2622
tp3728
as(g93
g3512
tp3729
(lp3730
(g97
g3512
tp3731
a(g99
g3512
tp3732
a(g101
g3512
tp3733
as(g274
S'sponge_cake'
p3734
tp3735
(lp3736
(g270
g3734
tp3737
a(g540
g3734
tp3738
as(g274
g923
tp3739
(lp3740
(g270
g923
tp3741
a(g540
g923
tp3742
as(g274
S'glove'
p3743
tp3744
(lp3745
(g270
g3743
tp3746
a(g540
g3743
tp3747
as(g197
g248
tp3748
(lp3749
(g201
g248
tp3750
a(g203
g248
tp3751
as(g65
S'baboon'
p3752
tp3753
(lp3754
(g69
g3752
tp3755
as(g189
S'tripod'
p3756
tp3757
(lp3758
(g193
g3756
tp3759
a(g195
g3756
tp3760
as(g53
S'phone_cord'
p3761
tp3762
(lp3763
(g57
g3761
tp3764
a(g59
g3761
tp3765
a(g61
g3761
tp3766
a(g63
g3761
tp3767
as(g25
g447
tp3768
(lp3769
(g71
g447
tp3770
as(g1264
S'quilt'
p3771
tp3772
(lp3773
(g1267
g3771
tp3774
as(g233
S'crystal_ball'
p3775
tp3776
(lp3777
(g229
g3775
tp3778
a(g239
g3775
tp3779
as(g19
S'dinosaur'
p3780
tp3781
(lp3782
(g23
g3780
tp3783
a(g25
g3780
tp3784
as(g276
S'spring_chicken'
p3785
tp3786
(lp3787
(g280
g3785
tp3788
as(g1985
g248
tp3789
(lp3790
(g1989
g248
tp3791
as(g3685
S'toaster'
p3792
tp3793
(lp3794
(g3689
g3792
tp3795
as(g197
S'garden_hose'
p3796
tp3797
(lp3798
(g201
g3796
tp3799
a(g203
g3796
tp3800
as(S'exhausted'
p3801
g1482
tp3802
(lp3803
(S'unexhausted'
p3804
g1482
tp3805
as(g547
g277
tp3806
(lp3807
(g551
g277
tp3808
a(g553
g277
tp3809
as(g843
S'extract'
p3810
tp3811
(lp3812
(g847
g3810
tp3813
a(g143
g3810
tp3814
a(g850
g3810
tp3815
as(g520
S'sax'
p3816
tp3817
(lp3818
(g524
g3816
tp3819
a(g526
g3816
tp3820
as(g93
S'samurai'
p3821
tp3822
(lp3823
(g97
g3821
tp3824
a(g99
g3821
tp3825
a(g101
g3821
tp3826
as(g759
S'rain_forest'
p3827
tp3828
(lp3829
(g762
g3827
tp3830
as(g1046
S'football_game'
p3831
tp3832
(lp3833
(g1050
g3831
tp3834
a(g1052
g3831
tp3835
as(g2450
S'movie'
p3836
tp3837
(lp3838
(g2454
g3836
tp3839
a(g2456
g3836
tp3840
a(g1538
g3836
tp3841
as(g19
S'minotaur'
p3842
tp3843
(lp3844
(g23
g3842
tp3845
a(g25
g3842
tp3846
as(g270
S'sledge'
p3847
tp3848
(lp3849
(g274
g3847
tp3850
as(g223
S'monsoon'
p3851
tp3852
(lp3853
(g227
g3851
tp3854
as(g357
g1174
tp3855
(lp3856
(g349
g1174
tp3857
as(g571
g844
tp3858
(lp3859
(g25
g844
tp3860
as(g625
S'turnip'
p3861
tp3862
(lp3863
(g97
g3861
tp3864
as(S'diffuse'
p3865
S'daydream'
p3866
tp3867
(lp3868
(g137
g3866
tp3869
as(g370
S'tortoise'
p3870
tp3871
(lp3872
(g374
g3870
tp3873
as(g2748
S'diplomat'
p3874
tp3875
(lp3876
(g2752
g3874
tp3877
as(g7
S'flagpole'
p3878
tp3879
(lp3880
(g11
g3878
tp3881
as(g1807
S'sparkler'
p3882
tp3883
(lp3884
(g1811
g3882
tp3885
as(g65
g1874
tp3886
(lp3887
(g69
g1874
tp3888
as(g509
S'construction_worker'
p3889
tp3890
(lp3891
(g512
g3889
tp3892
as(g35
S'lentil'
p3893
tp3894
(lp3895
(g39
g3893
tp3896
a(g41
g3893
tp3897
as(g137
g1251
tp3898
(lp3899
(g141
g1251
tp3900
a(g143
g1251
tp3901
a(g145
g1251
tp3902
as(g705
S'rabbit'
p3903
tp3904
(lp3905
(g701
g3903
tp3906
as(g1615
g2107
tp3907
(lp3908
(g1619
g2107
tp3909
as(g118
g3870
tp3910
(lp3911
(g114
g3870
tp3912
as(g19
g1114
tp3913
(lp3914
(g23
g1114
tp3915
a(g25
g1114
tp3916
as(g93
S'dagger'
p3917
tp3918
(lp3919
(g97
g3917
tp3920
a(g99
g3917
tp3921
a(g101
g3917
tp3922
as(g5
S'daffodil'
p3923
tp3924
(lp3925
(g1
g3923
tp3926
as(g370
S'noel_coward'
p3927
tp3928
(lp3929
(g374
g3927
tp3930
as(g93
g3086
tp3931
(lp3932
(g97
g3086
tp3933
a(g99
g3086
tp3934
a(g101
g3086
tp3935
as(g1040
S'sunset'
p3936
tp3937
(lp3938
(g1036
g3936
tp3939
as(g211
S'jeweler'
p3940
tp3941
(lp3942
(g215
g3940
tp3943
as(S'heterosexual'
p3944
S'playboy'
p3945
tp3946
(lp3947
(S'bisexual'
p3948
g3945
tp3949
a(S'homosexual'
p3950
g3945
tp3951
as(g270
g3194
tp3952
(lp3953
(g274
g3194
tp3954
as(g349
S'steel'
p3955
tp3956
(lp3957
(g353
g3955
tp3958
a(g355
g3955
tp3959
a(g357
g3955
tp3960
as(g270
S'blimp'
p3961
tp3962
(lp3963
(g274
g3961
tp3964
as(g120
g3677
tp3965
(lp3966
(g124
g3677
tp3967
as(g247
S'angel'
p3968
tp3969
(lp3970
(g251
g3968
tp3971
as(g701
g1926
tp3972
(lp3973
(g705
g1926
tp3974
as(g76
S'condom'
p3975
tp3976
(lp3977
(g80
g3975
tp3978
a(g82
g3975
tp3979
as(g247
S'idol'
p3980
tp3981
(lp3982
(g251
g3980
tp3983
as(g93
S'bowie_knife'
p3984
tp3985
(lp3986
(g97
g3984
tp3987
a(g99
g3984
tp3988
a(g101
g3984
tp3989
as(g270
g2716
tp3990
(lp3991
(g274
g2716
tp3992
as(g130
S'dinner_table'
p3993
tp3994
(lp3995
(g126
g3993
tp3996
as(g173
g1114
tp3997
(lp3998
(g177
g1114
tp3999
as(g19
g190
tp4000
(lp4001
(g23
g190
tp4002
a(g25
g190
tp4003
as(S'adroit'
p4004
S'juggler'
p4005
tp4006
(lp4007
(S'maladroit'
p4008
g4005
tp4009
as(g120
g1188
tp4010
(lp4011
(g124
g1188
tp4012
as(g968
S'chess_match'
p4013
tp4014
(lp4015
(g972
g4013
tp4016
as(g357
S"jacko'lantern"
p4017
tp4018
(lp4019
(g349
g4017
tp4020
as(g120
g2716
tp4021
(lp4022
(g124
g2716
tp4023
as(g349
S'california_redwood'
p4024
tp4025
(lp4026
(g353
g4024
tp4027
a(g355
g4024
tp4028
a(g357
g4024
tp4029
as(g2754
S'mist'
p4030
tp4031
(lp4032
(g2757
g4030
tp4033
as(g93
S'falcon'
p4034
tp4035
(lp4036
(g97
g4034
tp4037
a(g99
g4034
tp4038
a(g101
g4034
tp4039
as(g211
g2270
tp4040
(lp4041
(g215
g2270
tp4042
as(g25
g3026
tp4043
(lp4044
(g71
g3026
tp4045
as(g520
S'aircraft_carrier'
p4046
tp4047
(lp4048
(g524
g4046
tp4049
a(g526
g4046
tp4050
as(g843
S'perfume'
p4051
tp4052
(lp4053
(g847
g4051
tp4054
a(g143
g4051
tp4055
a(g850
g4051
tp4056
as(g19
S'cedar_tree'
p4057
tp4058
(lp4059
(g23
g4057
tp4060
a(g25
g4057
tp4061
as(g101
S'redwood'
p4062
tp4063
(lp4064
(g655
g4062
tp4065
a(g657
g4062
tp4066
a(g659
g4062
tp4067
a(g99
g4062
tp4068
a(g93
g4062
tp4069
as(g120
g565
tp4070
(lp4071
(g124
g565
tp4072
as(g227
g652
tp4073
(lp4074
(g223
g652
tp4075
a(g768
g652
tp4076
a(g770
g652
tp4077
as(g759
S'briar'
p4078
tp4079
(lp4080
(g762
g4078
tp4081
as(g35
g2175
tp4082
(lp4083
(g39
g2175
tp4084
a(g41
g2175
tp4085
as(g625
g963
tp4086
(lp4087
(g97
g963
tp4088
as(g93
S'thorn'
p4089
tp4090
(lp4091
(g97
g4089
tp4092
a(g99
g4089
tp4093
a(g101
g4089
tp4094
as(g625
g2559
tp4095
(lp4096
(g97
g2559
tp4097
as(g357
S'shell'
p4098
tp4099
(lp4100
(g349
g4098
tp4101
as(g274
g1535
tp4102
(lp4103
(g270
g1535
tp4104
a(g540
g1535
tp4105
as(g520
S'master_bedroom'
p4106
tp4107
(lp4108
(g524
g4106
tp4109
a(g526
g4106
tp4110
as(g19
S'calf'
p4111
tp4112
(lp4113
(g23
g4111
tp4114
a(g25
g4111
tp4115
as(g2005
g626
tp4116
(lp4117
(g2009
g626
tp4118
as(g120
S'girl_scout'
p4119
tp4120
(lp4121
(g124
g4119
tp4122
as(g1403
S'porn'
p4123
tp4124
(lp4125
(g1407
g4123
tp4126
as(g247
S'ass'
p4127
tp4128
(lp4129
(g251
g4127
tp4130
as(g19
g630
tp4131
(lp4132
(g23
g630
tp4133
a(g25
g630
tp4134
as(g19
g648
tp4135
(lp4136
(g23
g648
tp4137
a(g25
g648
tp4138
as(g189
S'portrait'
p4139
tp4140
(lp4141
(g193
g4139
tp4142
a(g195
g4139
tp4143
as(g19
g2194
tp4144
(lp4145
(g23
g2194
tp4146
a(g25
g2194
tp4147
as(g359
g3491
tp4148
(lp4149
(g363
g3491
tp4150
as(g559
S'steeple'
p4151
tp4152
(lp4153
(g563
g4151
tp4154
as(g93
S'jaguar'
p4155
tp4156
(lp4157
(g97
g4155
tp4158
a(g99
g4155
tp4159
a(g101
g4155
tp4160
as(g262
S'rainbow'
p4161
tp4162
(lp4163
(g266
g4161
tp4164
a(g268
g4161
tp4165
as(g93
S'stiletto'
p4166
tp4167
(lp4168
(g97
g4166
tp4169
a(g99
g4166
tp4170
a(g101
g4166
tp4171
as(g274
g2270
tp4172
(lp4173
(g270
g2270
tp4174
a(g540
g2270
tp4175
as(S'breathless'
p4176
g2922
tp4177
(lp4178
(S'breathing'
p4179
g2922
tp4180
as(g229
S'prostitute'
p4181
tp4182
(lp4183
(g233
g4181
tp4184
as(g76
S'noose'
p4185
tp4186
(lp4187
(g80
g4185
tp4188
a(g82
g4185
tp4189
as(g114
S'sandwich'
p4190
tp4191
(lp4192
(g118
g4190
tp4193
as(g625
g2374
tp4194
(lp4195
(g97
g2374
tp4196
as(g1615
S'leader'
p4197
tp4198
(lp4199
(g1619
g4197
tp4200
as(g114
g1283
tp4201
(lp4202
(g118
g1283
tp4203
as(g349
S'ice_cube'
p4204
tp4205
(lp4206
(g353
g4204
tp4207
a(g355
g4204
tp4208
a(g357
g4204
tp4209
as(g211
S'ladybird'
p4210
tp4211
(lp4212
(g215
g4210
tp4213
as(g53
g598
tp4214
(lp4215
(g57
g598
tp4216
a(g59
g598
tp4217
a(g61
g598
tp4218
a(g63
g598
tp4219
as(g88
S'lover'
p4220
tp4221
(lp4222
(g91
g4220
tp4223
as(g3659
g1307
tp4224
(lp4225
(g3663
g1307
tp4226
as(g126
g958
tp4227
(lp4228
(g130
g958
tp4229
as(g114
S'whippet'
p4230
tp4231
(lp4232
(g118
g4230
tp4233
as(g1046
S'pants_suit'
p4234
tp4235
(lp4236
(g1050
g4234
tp4237
a(g1052
g4234
tp4238
as(g1036
S'tattoo'
p4239
tp4240
(lp4241
(g1040
g4239
tp4242
as(g120
S'knot'
p4243
tp4244
(lp4245
(g124
g4243
tp4246
as(g93
S'knife'
p4247
tp4248
(lp4249
(g97
g4247
tp4250
a(g99
g4247
tp4251
a(g101
g4247
tp4252
as(g2501
S'nose_job'
p4253
tp4254
(lp4255
(g2505
g4253
tp4256
a(g2507
g4253
tp4257
as(g1798
S'crystal'
p4258
tp4259
(lp4260
(g1802
g4258
tp4261
as(g2748
g3255
tp4262
(lp4263
(g2752
g3255
tp4264
as(g5
g536
tp4265
(lp4266
(g1
g536
tp4267
as(g118
S'milk_float'
p4268
tp4269
(lp4270
(g114
g4268
tp4271
as(g520
g467
tp4272
(lp4273
(g524
g467
tp4274
a(g526
g467
tp4275
as(g968
S'terrier'
p4276
tp4277
(lp4278
(g972
g4276
tp4279
as(g270
g565
tp4280
(lp4281
(g274
g565
tp4282
as(g114
S'racing_car'
p4283
tp4284
(lp4285
(g118
g4283
tp4286
as(g695
S'sirloin_steak'
p4287
tp4288
(lp4289
(g699
g4287
tp4290
as(g143
S'cushion'
p4291
tp4292
(lp4293
(g137
g4291
tp4294
a(g451
g4291
tp4295
a(g453
g4291
tp4296
a(g455
g4291
tp4297
a(g457
g4291
tp4298
as(g349
g642
tp4299
(lp4300
(g353
g642
tp4301
a(g355
g642
tp4302
a(g357
g642
tp4303
as(g5
S'mayfly'
p4304
tp4305
(lp4306
(g1
g4304
tp4307
as(g520
g3861
tp4308
(lp4309
(g524
g3861
tp4310
a(g526
g3861
tp4311
as(g2748
S'ninja'
p4312
tp4313
(lp4314
(g2752
g4312
tp4315
as(g7
S'tuning_fork'
p4316
tp4317
(lp4318
(g11
g4316
tp4319
as(g173
g127
tp4320
(lp4321
(g177
g127
tp4322
as(g13
S'scent'
p4323
tp4324
(lp4325
(g17
g4323
tp4326
as(g571
g1197
tp4327
(lp4328
(g25
g1197
tp4329
as(g120
S'twobyfour'
p4330
tp4331
(lp4332
(g124
g4330
tp4333
as(g19
g3260
tp4334
(lp4335
(g23
g3260
tp4336
a(g25
g3260
tp4337
as(g114
g2518
tp4338
(lp4339
(g118
g2518
tp4340
as(g1778
S'kudzu'
p4341
tp4342
(lp4343
(g1782
g4341
tp4344
as(g5
g1572
tp4345
(lp4346
(g1
g1572
tp4347
as(g1451
S'moth'
p4348
tp4349
(lp4350
(g1455
g4348
tp4351
as(g476
g8
tp4352
(lp4353
(g472
g8
tp4354
a(g2591
g8
tp4355
as(g520
S'date_rape'
p4356
tp4357
(lp4358
(g524
g4356
tp4359
a(g526
g4356
tp4360
as(g392
S'christmas_stocking'
p4361
tp4362
(lp4363
(g396
g4361
tp4364
a(g39
g4361
tp4365
as(g211
S'lotus'
p4366
tp4367
(lp4368
(g215
g4366
tp4369
as(g93
g467
tp4370
(lp4371
(g97
g467
tp4372
a(g99
g467
tp4373
a(g101
g467
tp4374
as(g3685
S'melanoma'
p4375
tp4376
(lp4377
(g3689
g4375
tp4378
as(g2005
S'drunkard'
p4379
tp4380
(lp4381
(g2009
g4379
tp4382
as(g143
S'blanket'
p4383
tp4384
(lp4385
(g137
g4383
tp4386
a(g451
g4383
tp4387
a(g453
g4383
tp4388
a(g455
g4383
tp4389
a(g457
g4383
tp4390
as(g189
g780
tp4391
(lp4392
(g193
g780
tp4393
a(g195
g780
tp4394
as(g13
S'brand'
p4395
tp4396
(lp4397
(g17
g4395
tp4398
as(g705
g3827
tp4399
(lp4400
(g701
g3827
tp4401
as(g155
g2497
tp4402
(lp4403
(g159
g2497
tp4404
as(g270
S'gravestone'
p4405
tp4406
(lp4407
(g274
g4405
tp4408
as(g65
g2502
tp4409
(lp4410
(g69
g2502
tp4411
as(g736
g948
tp4412
(lp4413
(g740
g948
tp4414
as(S'drained'
p4415
S'puppet'
p4416
tp4417
(lp4418
(S'undrained'
p4419
g4416
tp4420
as(g101
S'tree_branch'
p4421
tp4422
(lp4423
(g655
g4421
tp4424
a(g657
g4421
tp4425
a(g659
g4421
tp4426
a(g99
g4421
tp4427
a(g93
g4421
tp4428
as(g355
g1868
tp4429
(lp4430
(g353
g1868
tp4431
a(g349
g1868
tp4432
a(g483
g1868
tp4433
as(g173
g2323
tp4434
(lp4435
(g177
g2323
tp4436
as(g189
S'tomb'
p4437
tp4438
(lp4439
(g193
g4437
tp4440
a(g195
g4437
tp4441
as(g1426
S'track_star'
p4442
tp4443
(lp4444
(g1429
g4442
tp4445
as(g2262
S'shrimp'
p4446
tp4447
(lp4448
(g2266
g4446
tp4449
a(g2268
g4446
tp4450
as(g120
g312
tp4451
(lp4452
(g124
g312
tp4453
as(g35
S'candle'
p4454
tp4455
(lp4456
(g39
g4454
tp4457
a(g41
g4454
tp4458
as(g118
g873
tp4459
(lp4460
(g114
g873
tp4461
as(g57
g2668
tp4462
(lp4463
(g53
g2668
tp4464
as(g120
S'cheerleader'
p4465
tp4466
(lp4467
(g124
g4465
tp4468
as(g19
S'soda_cracker'
p4469
tp4470
(lp4471
(g23
g4469
tp4472
a(g25
g4469
tp4473
as(g2638
g2765
tp4474
(lp4475
(g2642
g2765
tp4476
as(g439
g2374
tp4477
(lp4478
(g443
g2374
tp4479
a(g445
g2374
tp4480
as(g215
S'hummer'
p4481
tp4482
(lp4483
(g211
g4481
tp4484
a(g596
g4481
tp4485
as(g147
S'gang'
p4486
tp4487
(lp4488
(g151
g4486
tp4489
a(g153
g4486
tp4490
as(g114
g2194
tp4491
(lp4492
(g118
g2194
tp4493
as(g856
S'life_raft'
p4494
tp4495
(lp4496
(g860
g4494
tp4497
as(g147
S'scrubbing_brush'
p4498
tp4499
(lp4500
(g151
g4498
tp4501
a(g153
g4498
tp4502
as(g19
S'hero'
p4503
tp4504
(lp4505
(g23
g4503
tp4506
a(g25
g4503
tp4507
as(g118
g2332
tp4508
(lp4509
(g114
g2332
tp4510
as(g88
S'kumquat'
p4511
tp4512
(lp4513
(g91
g4511
tp4514
as(g1403
S'baseball_game'
p4515
tp4516
(lp4517
(g1407
g4515
tp4518
as(g19
g3194
tp4519
(lp4520
(g23
g3194
tp4521
a(g25
g3194
tp4522
as(g227
S'sauvignon_blanc'
p4523
tp4524
(lp4525
(g223
g4523
tp4526
a(g768
g4523
tp4527
a(g770
g4523
tp4528
as(g3507
S'mask'
p4529
tp4530
(lp4531
(g3510
g4529
tp4532
as(g217
S'cigarette'
p4533
tp4534
(lp4535
(g221
g4533
tp4536
as(g472
g2551
tp4537
(lp4538
(g476
g2551
tp4539
as(g657
g2451
tp4540
(lp4541
(g101
g2451
tp4542
as(g19
g3399
tp4543
(lp4544
(g23
g3399
tp4545
a(g25
g3399
tp4546
as(g189
g4366
tp4547
(lp4548
(g193
g4366
tp4549
a(g195
g4366
tp4550
as(g262
S'specter'
p4551
tp4552
(lp4553
(g266
g4551
tp4554
a(g268
g4551
tp4555
as(g571
g1059
tp4556
(lp4557
(g25
g1059
tp4558
as(g2304
S'fist'
p4559
tp4560
(lp4561
(g2308
g4559
tp4562
a(g2310
g4559
tp4563
as(g705
S'garden'
p4564
tp4565
(lp4566
(g701
g4564
tp4567
as(g370
S'lame_duck'
p4568
tp4569
(lp4570
(g374
g4568
tp4571
as(g571
S'surfboard'
p4572
tp4573
(lp4574
(g25
g4572
tp4575
as(g211
g3847
tp4576
(lp4577
(g215
g3847
tp4578
as(g439
S'vault'
p4579
tp4580
(lp4581
(g443
g4579
tp4582
a(g445
g4579
tp4583
as(g753
S'cossack'
p4584
tp4585
(lp4586
(g757
g4584
tp4587
as(g559
S'knitting_needle'
p4588
tp4589
(lp4590
(g563
g4588
tp4591
as(g147
g8
tp4592
(lp4593
(g151
g8
tp4594
a(g153
g8
tp4595
as(g19
S'beast'
p4596
tp4597
(lp4598
(g23
g4596
tp4599
a(g25
g4596
tp4600
as(g655
S'swan'
p4601
tp4602
(lp4603
(g101
g4601
tp4604
a(g1167
g4601
tp4605
a(g1169
g4601
tp4606
as(g108
S'core_dump'
p4607
tp4608
(lp4609
(g112
g4607
tp4610
as(g65
g4596
tp4611
(lp4612
(g69
g4596
tp4613
as(g53
S'tire'
p4614
tp4615
(lp4616
(g57
g4614
tp4617
a(g59
g4614
tp4618
a(g61
g4614
tp4619
a(g63
g4614
tp4620
as(g118
S'caterpillar'
p4621
tp4622
(lp4623
(g114
g4621
tp4624
as(g349
g2950
tp4625
(lp4626
(g353
g2950
tp4627
a(g355
g2950
tp4628
a(g357
g2950
tp4629
as(g370
S'deer'
p4630
tp4631
(lp4632
(g374
g4630
tp4633
as(g7
S'bookcase'
p4634
tp4635
(lp4636
(g11
g4634
tp4637
as(g35
S'phone_book'
p4638
tp4639
(lp4640
(g39
g4638
tp4641
a(g41
g4638
tp4642
as(g370
g1118
tp4643
(lp4644
(g374
g1118
tp4645
as(g625
g496
tp4646
(lp4647
(g97
g496
tp4648
as(g35
S'suet_pudding'
p4649
tp4650
(lp4651
(g39
g4649
tp4652
a(g41
g4649
tp4653
as(g57
S'corkscrew'
p4654
tp4655
(lp4656
(g53
g4654
tp4657
as(g114
S'microwave_oven'
p4658
tp4659
(lp4660
(g118
g4658
tp4661
as(g2638
g1095
tp4662
(lp4663
(g2642
g1095
tp4664
as(g843
S'laser'
p4665
tp4666
(lp4667
(g847
g4665
tp4668
a(g143
g4665
tp4669
a(g850
g4665
tp4670
as(g571
g241
tp4671
(lp4672
(g25
g241
tp4673
as(g120
g2088
tp4674
(lp4675
(g124
g2088
tp4676
as(g349
S'iceberg'
p4677
tp4678
(lp4679
(g353
g4677
tp4680
a(g355
g4677
tp4681
a(g357
g4677
tp4682
as(g359
g1015
tp4683
(lp4684
(g363
g1015
tp4685
as(g349
S'slammer'
p4686
tp4687
(lp4688
(g353
g4686
tp4689
a(g355
g4686
tp4690
a(g357
g4686
tp4691
as(g23
S'slacker'
p4692
tp4693
(lp4694
(g19
g4692
tp4695
as(g374
S'straitjacket'
p4696
tp4697
(lp4698
(g370
g4696
tp4699
as(g120
S'hamster'
p4700
tp4701
(lp4702
(g124
g4700
tp4703
as(g753
g2088
tp4704
(lp4705
(g757
g2088
tp4706
as(g43
S'geisha_girl'
p4707
tp4708
(lp4709
(g47
g4707
tp4710
a(g49
g4707
tp4711
a(g51
g4707
tp4712
as(g439
S'deposit_account'
p4713
tp4714
(lp4715
(g443
g4713
tp4716
a(g445
g4713
tp4717
as(g625
S'salsa'
p4718
tp4719
(lp4720
(g97
g4718
tp4721
as(g211
g536
tp4722
(lp4723
(g215
g536
tp4724
as(g93
g4665
tp4725
(lp4726
(g97
g4665
tp4727
a(g99
g4665
tp4728
a(g101
g4665
tp4729
as(g223
S'octopus'
p4730
tp4731
(lp4732
(g227
g4730
tp4733
as(g1798
S'quadrille'
p4734
tp4735
(lp4736
(g1802
g4734
tp4737
as(g571
g3878
tp4738
(lp4739
(g25
g3878
tp4740
as(g736
g241
tp4741
(lp4742
(g740
g241
tp4743
as(g65
S'abortion'
p4744
tp4745
(lp4746
(g69
g4744
tp4747
as(g71
S'moped'
p4748
tp4749
(lp4750
(g25
g4748
tp4751
as(g2450
g1981
tp4752
(lp4753
(g2454
g1981
tp4754
a(g2456
g1981
tp4755
a(g1538
g1981
tp4756
as(g571
g1415
tp4757
(lp4758
(g25
g1415
tp4759
as(g359
S'guppy'
p4760
tp4761
(lp4762
(g363
g4760
tp4763
as(g1534
g2551
tp4764
(lp4765
(g1538
g2551
tp4766
as(g759
g2639
tp4767
(lp4768
(g762
g2639
tp4769
as(g357
g263
tp4770
(lp4771
(g349
g263
tp4772
as(g396
g3642
tp4773
(lp4774
(g392
g3642
tp4775
as(g374
S'teenager'
p4776
tp4777
(lp4778
(g370
g4776
tp4779
as(g972
S'steamroller'
p4780
tp4781
(lp4782
(g968
g4780
tp4783
as(g93
S'butter'
p4784
tp4785
(lp4786
(g97
g4784
tp4787
a(g99
g4784
tp4788
a(g101
g4784
tp4789
as(g31
S'coffin_nail'
p4790
tp4791
(lp4792
(g27
g4790
tp4793
a(g1063
g4790
tp4794
as(g1798
S'crystal_lattice'
p4795
tp4796
(lp4797
(g1802
g4795
tp4798
as(g19
g335
tp4799
(lp4800
(g23
g335
tp4801
a(g25
g335
tp4802
as(g223
S'puddle'
p4803
tp4804
(lp4805
(g227
g4803
tp4806
as(g856
S'horse_barn'
p4807
tp4808
(lp4809
(g860
g4807
tp4810
as(g3801
S'shipwreck_survivor'
p4811
tp4812
(lp4813
(g3804
g4811
tp4814
as(g233
S'butcher'
p4815
tp4816
(lp4817
(g229
g4815
tp4818
a(g239
g4815
tp4819
as(g197
S'elastomer'
p4820
tp4821
(lp4822
(g201
g4820
tp4823
a(g203
g4820
tp4824
as(g472
S'jigsaw_puzzle'
p4825
tp4826
(lp4827
(g476
g4825
tp4828
as(g247
S'metronome'
p4829
tp4830
(lp4831
(g251
g4829
tp4832
as(g93
g521
tp4833
(lp4834
(g97
g521
tp4835
a(g99
g521
tp4836
a(g101
g521
tp4837
as(g233
S'steam_whistle'
p4838
tp4839
(lp4840
(g229
g4838
tp4841
a(g239
g4838
tp4842
as(g35
S'toothpick'
p4843
tp4844
(lp4845
(g39
g4843
tp4846
a(g41
g4843
tp4847
as(g130
S'car'
p4848
tp4849
(lp4850
(g126
g4848
tp4851
as(g625
S'jackson_pollock'
p4852
tp4853
(lp4854
(g97
g4852
tp4855
as(g211
g1225
tp4856
(lp4857
(g215
g1225
tp4858
as(g35
g387
tp4859
(lp4860
(g39
g387
tp4861
a(g41
g387
tp4862
as(g197
S'bamboo'
p4863
tp4864
(lp4865
(g201
g4863
tp4866
a(g203
g4863
tp4867
as(g93
S'lemon'
p4868
tp4869
(lp4870
(g97
g4868
tp4871
a(g99
g4868
tp4872
a(g101
g4868
tp4873
as(g270
g1328
tp4874
(lp4875
(g274
g1328
tp4876
as(g19
g3139
tp4877
(lp4878
(g23
g3139
tp4879
a(g25
g3139
tp4880
as(g173
g350
tp4881
(lp4882
(g177
g350
tp4883
as(g57
S'boa_constrictor'
p4884
tp4885
(lp4886
(g53
g4884
tp4887
as(g547
g2982
tp4888
(lp4889
(g551
g2982
tp4890
a(g553
g2982
tp4891
as(g396
g3475
tp4892
(lp4893
(g392
g3475
tp4894
as(g349
S'launching_pad'
p4895
tp4896
(lp4897
(g353
g4895
tp4898
a(g355
g4895
tp4899
a(g357
g4895
tp4900
as(g118
S'photon'
p4901
tp4902
(lp4903
(g114
g4901
tp4904
as(g114
S'polecat'
p4905
tp4906
(lp4907
(g118
g4905
tp4908
as(g2304
g2198
tp4909
(lp4910
(g2308
g2198
tp4911
a(g2310
g2198
tp4912
as(g386
S'bucket'
p4913
tp4914
(lp4915
(g390
g4913
tp4916
as(g227
S'crust'
p4917
tp4918
(lp4919
(g223
g4917
tp4920
a(g768
g4917
tp4921
a(g770
g4917
tp4922
as(g71
g20
tp4923
(lp4924
(g25
g20
tp4925
as(g349
S'wall'
p4926
tp4927
(lp4928
(g353
g4926
tp4929
a(g355
g4926
tp4930
a(g357
g4926
tp4931
as(g439
S'placebo'
p4932
tp4933
(lp4934
(g443
g4932
tp4935
a(g445
g4932
tp4936
as(g97
S'hoe'
p4937
tp4938
(lp4939
(g625
g4937
tp4940
a(g808
g4937
tp4941
a(g93
g4937
tp4942
as(g197
g909
tp4943
(lp4944
(g201
g909
tp4945
a(g203
g909
tp4946
as(g559
S'parable'
p4947
tp4948
(lp4949
(g563
g4947
tp4950
as(g2754
S'paper_towel'
p4951
tp4952
(lp4953
(g2757
g4951
tp4954
as(g2147
S'prune'
p4955
tp4956
(lp4957
(g2151
g4955
tp4958
a(g2153
g4955
tp4959
as(g27
S'raconteur'
p4960
tp4961
(lp4962
(g31
g4960
tp4963
a(g33
g4960
tp4964
as(g2450
S'video_game'
p4965
tp4966
(lp4967
(g2454
g4965
tp4968
a(g2456
g4965
tp4969
a(g1538
g4965
tp4970
as(g53
S'expressway'
p4971
tp4972
(lp4973
(g57
g4971
tp4974
a(g59
g4971
tp4975
a(g61
g4971
tp4976
a(g63
g4971
tp4977
as(g35
S'sausage'
p4978
tp4979
(lp4980
(g39
g4978
tp4981
a(g41
g4978
tp4982
as(g3507
g8
tp4983
(lp4984
(g3510
g8
tp4985
as(g300
g2283
tp4986
(lp4987
(g286
g2283
tp4988
as(g19
g1585
tp4989
(lp4990
(g23
g1585
tp4991
a(g25
g1585
tp4992
as(g625
g1554
tp4993
(lp4994
(g97
g1554
tp4995
as(g53
g1897
tp4996
(lp4997
(g57
g1897
tp4998
a(g59
g1897
tp4999
a(g61
g1897
tp5000
a(g63
g1897
tp5001
as(g114
S'bullet_train'
p5002
tp5003
(lp5004
(g118
g5002
tp5005
as(g93
S'mud_pie'
p5006
tp5007
(lp5008
(g97
g5006
tp5009
a(g99
g5006
tp5010
a(g101
g5006
tp5011
as(g197
S'printer_cable'
p5012
tp5013
(lp5014
(g201
g5012
tp5015
a(g203
g5012
tp5016
as(g137
S'eggshell'
p5017
tp5018
(lp5019
(g141
g5017
tp5020
a(g143
g5017
tp5021
a(g145
g5017
tp5022
as(g1040
g2765
tp5023
(lp5024
(g1036
g2765
tp5025
as(g93
S'owl'
p5026
tp5027
(lp5028
(g97
g5026
tp5029
a(g99
g5026
tp5030
a(g101
g5026
tp5031
as(g1
S'metal_bar'
p5032
tp5033
(lp5034
(g5
g5032
tp5035
as(g1798
S'labyrinth'
p5036
tp5037
(lp5038
(g1802
g5036
tp5039
as(g571
g2950
tp5040
(lp5041
(g25
g2950
tp5042
as(g120
S'tomato'
p5043
tp5044
(lp5045
(g124
g5043
tp5046
as(g57
S'quack'
p5047
tp5048
(lp5049
(g53
g5047
tp5050
as(g1807
S'sprinter'
p5051
tp5052
(lp5053
(g1811
g5051
tp5054
as(g625
S'cricket'
p5055
tp5056
(lp5057
(g97
g5055
tp5058
as(g211
g2551
tp5059
(lp5060
(g215
g2551
tp5061
as(g19
g1209
tp5062
(lp5063
(g23
g1209
tp5064
a(g25
g1209
tp5065
as(g349
S'linebacker'
p5066
tp5067
(lp5068
(g353
g5066
tp5069
a(g355
g5066
tp5070
a(g357
g5066
tp5071
as(g520
S'corvette'
p5072
tp5073
(lp5074
(g524
g5072
tp5075
a(g526
g5072
tp5076
as(g43
S'lily'
p5077
tp5078
(lp5079
(g47
g5077
tp5080
a(g49
g5077
tp5081
a(g51
g5077
tp5082
as(g349
S'battering_ram'
p5083
tp5084
(lp5085
(g353
g5083
tp5086
a(g355
g5083
tp5087
a(g357
g5083
tp5088
as(g143
S'cymbal'
p5089
tp5090
(lp5091
(g137
g5089
tp5092
a(g451
g5089
tp5093
a(g453
g5089
tp5094
a(g455
g5089
tp5095
a(g457
g5089
tp5096
as(g137
S'brickbat'
p5097
tp5098
(lp5099
(g141
g5097
tp5100
a(g143
g5097
tp5101
a(g145
g5097
tp5102
as(g93
S"queen's_counsel"
p5103
tp5104
(lp5105
(g97
g5103
tp5106
a(g99
g5103
tp5107
a(g101
g5103
tp5108
as(g76
g4559
tp5109
(lp5110
(g80
g4559
tp5111
a(g82
g4559
tp5112
as(g126
g241
tp5113
(lp5114
(g130
g241
tp5115
as(g270
g84
tp5116
(lp5117
(g274
g84
tp5118
as(g559
S'pikestaff'
p5119
tp5120
(lp5121
(g563
g5119
tp5122
as(g118
g4677
tp5123
(lp5124
(g114
g4677
tp5125
as(g736
g489
tp5126
(lp5127
(g740
g489
tp5128
as(g173
g4481
tp5129
(lp5130
(g177
g4481
tp5131
as(g27
g2782
tp5132
(lp5133
(g31
g2782
tp5134
a(g33
g2782
tp5135
as(g559
g936
tp5136
(lp5137
(g563
g936
tp5138
as(g370
g4312
tp5139
(lp5140
(g374
g4312
tp5141
as(g31
g3475
tp5142
(lp5143
(g27
g3475
tp5144
a(g1063
g3475
tp5145
as(g205
S'jail'
p5146
tp5147
(lp5148
(g209
g5146
tp5149
as(g1431
S'jackal'
p5150
tp5151
(lp5152
(g1434
g5150
tp5153
as(g571
S'coat_hanger'
p5154
tp5155
(lp5156
(g25
g5154
tp5157
as(g1154
S'lamprey'
p5158
tp5159
(lp5160
(g1157
g5158
tp5161
as(g1403
S'norman_rockwell'
p5162
tp5163
(lp5164
(g1407
g5162
tp5165
as(g130
g3194
tp5166
(lp5167
(g126
g3194
tp5168
as(g7
S'chessboard'
p5169
tp5170
(lp5171
(g11
g5169
tp5172
as(g130
g1217
tp5173
(lp5174
(g126
g1217
tp5175
as(g439
S'drug'
p5176
tp5177
(lp5178
(g443
g5176
tp5179
a(g445
g5176
tp5180
as(g455
S'harlot'
p5181
tp5182
(lp5183
(g1146
g5181
tp5184
a(g143
g5181
tp5185
as(g229
S'greaser'
p5186
tp5187
(lp5188
(g233
g5186
tp5189
as(g7
g241
tp5190
(lp5191
(g11
g241
tp5192
as(g1621
g3660
tp5193
(lp5194
(g1624
g3660
tp5195
as(g137
g5083
tp5196
(lp5197
(g141
g5083
tp5198
a(g143
g5083
tp5199
a(g145
g5083
tp5200
as(g118
S'hippo'
p5201
tp5202
(lp5203
(g114
g5201
tp5204
as(g19
g2332
tp5205
(lp5206
(g23
g2332
tp5207
a(g25
g2332
tp5208
as(g57
S'question_mark'
p5209
tp5210
(lp5211
(g53
g5209
tp5212
as(g1807
S'coil_spring'
p5213
tp5214
(lp5215
(g1811
g5213
tp5216
as(g93
S'pencil'
p5217
tp5218
(lp5219
(g97
g5217
tp5220
a(g99
g5217
tp5221
a(g101
g5217
tp5222
as(g274
S'leaf'
p5223
tp5224
(lp5225
(g270
g5223
tp5226
a(g540
g5223
tp5227
as(g520
S'plumber'
p5228
tp5229
(lp5230
(g524
g5228
tp5231
a(g526
g5228
tp5232
as(g101
g1649
tp5233
(lp5234
(g655
g1649
tp5235
a(g657
g1649
tp5236
a(g659
g1649
tp5237
a(g99
g1649
tp5238
a(g93
g1649
tp5239
as(g159
S'moose'
p5240
tp5241
(lp5242
(g155
g5240
tp5243
as(S'developed'
p5244
S'quarter_horse'
p5245
tp5246
(lp5247
(S'undeveloped'
p5248
g5245
tp5249
as(g1798
S'fire_drill'
p5250
tp5251
(lp5252
(g1802
g5250
tp5253
as(g2748
g399
tp5254
(lp5255
(g2752
g399
tp5256
as(g229
S'stripper'
p5257
tp5258
(lp5259
(g233
g5257
tp5260
as(g386
g253
tp5261
(lp5262
(g390
g253
tp5263
as(g270
S'cannonball'
p5264
tp5265
(lp5266
(g274
g5264
tp5267
as(g114
S'washcloth'
p5268
tp5269
(lp5270
(g118
g5268
tp5271
as(g13
g2765
tp5272
(lp5273
(g17
g2765
tp5274
as(g571
S'mohawk'
p5275
tp5276
(lp5277
(g25
g5275
tp5278
as(g114
g1649
tp5279
(lp5280
(g118
g1649
tp5281
as(g2896
S'bed'
p5282
tp5283
(lp5284
(g2900
g5282
tp5285
as(g223
S'sink'
p5286
tp5287
(lp5288
(g227
g5286
tp5289
as(g370
g648
tp5290
(lp5291
(g374
g648
tp5292
as(g57
g198
tp5293
(lp5294
(g53
g198
tp5295
as(g13
g4161
tp5296
(lp5297
(g17
g4161
tp5298
as(g197
g241
tp5299
(lp5300
(g201
g241
tp5301
a(g203
g241
tp5302
as(g126
S'building'
p5303
tp5304
(lp5305
(g130
g5303
tp5306
as(g856
S'cobweb'
p5307
tp5308
(lp5309
(g860
g5307
tp5310
as(g31
g3780
tp5311
(lp5312
(g27
g3780
tp5313
a(g1063
g3780
tp5314
as(g2896
S'toothbrush'
p5315
tp5316
(lp5317
(g2900
g5315
tp5318
as(g93
S'chisel'
p5319
tp5320
(lp5321
(g97
g5319
tp5322
a(g99
g5319
tp5323
a(g101
g5319
tp5324
as(g2638
g1689
tp5325
(lp5326
(g2642
g1689
tp5327
as(g43
S'herb_garden'
p5328
tp5329
(lp5330
(g47
g5328
tp5331
a(g49
g5328
tp5332
a(g51
g5328
tp5333
as(g31
S'heroin_addiction'
p5334
tp5335
(lp5336
(g27
g5334
tp5337
a(g1063
g5334
tp5338
as(g625
g2026
tp5339
(lp5340
(g97
g2026
tp5341
as(g65
g702
tp5342
(lp5343
(g69
g702
tp5344
as(g1426
S'footballer'
p5345
tp5346
(lp5347
(g1429
g5345
tp5348
as(g173
S'saltine'
p5349
tp5350
(lp5351
(g177
g5349
tp5352
as(g357
S'bell'
p5353
tp5354
(lp5355
(g349
g5353
tp5356
as(g1426
S'marathoner'
p5357
tp5358
(lp5359
(g1429
g5357
tp5360
as(g23
g1318
tp5361
(lp5362
(g19
g1318
tp5363
as(g43
S'daisy'
p5364
tp5365
(lp5366
(g47
g5364
tp5367
a(g49
g5364
tp5368
a(g51
g5364
tp5369
as(g370
g3007
tp5370
(lp5371
(g374
g3007
tp5372
as(g2304
S'sunday_school'
p5373
tp5374
(lp5375
(g2308
g5373
tp5376
a(g2310
g5373
tp5377
as(g227
g1874
tp5378
(lp5379
(g223
g1874
tp5380
a(g768
g1874
tp5381
a(g770
g1874
tp5382
as(g120
g447
tp5383
(lp5384
(g124
g447
tp5385
as(S'dilute'
p5386
S'solution'
p5387
tp5388
(lp5389
(S'undiluted'
p5390
g5387
tp5391
as(g114
S'prairie_fire'
p5392
tp5393
(lp5394
(g118
g5392
tp5395
as(g93
S'dog_turd'
p5396
tp5397
(lp5398
(g97
g5396
tp5399
a(g99
g5396
tp5400
a(g101
g5396
tp5401
as(g211
g4348
tp5402
(lp5403
(g215
g4348
tp5404
as(g286
g3495
tp5405
(lp5406
(g290
g3495
tp5407
a(g292
g3495
tp5408
a(g294
g3495
tp5409
a(g296
g3495
tp5410
a(g298
g3495
tp5411
a(g300
g3495
tp5412
as(g274
S'windbreaker'
p5413
tp5414
(lp5415
(g270
g5413
tp5416
a(g540
g5413
tp5417
as(g270
S'engine'
p5418
tp5419
(lp5420
(g274
g5418
tp5421
as(g571
g737
tp5422
(lp5423
(g25
g737
tp5424
as(g1196
S'chair'
p5425
tp5426
(lp5427
(g1200
g5425
tp5428
as(g357
g2639
tp5429
(lp5430
(g349
g2639
tp5431
as(g695
g1139
tp5432
(lp5433
(g699
g1139
tp5434
as(g4176
g1482
tp5435
(lp5436
(g4179
g1482
tp5437
as(g1196
g4098
tp5438
(lp5439
(g1200
g4098
tp5440
as(g23
g2459
tp5441
(lp5442
(g19
g2459
tp5443
as(g856
g3070
tp5444
(lp5445
(g860
g3070
tp5446
as(S'gradual'
p5447
g1217
tp5448
(lp5449
(S'sudden'
p5450
g1217
tp5451
a(S'steep'
p5452
g1217
tp5453
as(g559
g4166
tp5454
(lp5455
(g563
g4166
tp5456
as(g1807
g2628
tp5457
(lp5458
(g1811
g2628
tp5459
as(g217
g72
tp5460
(lp5461
(g221
g72
tp5462
as(g19
g702
tp5463
(lp5464
(g23
g702
tp5465
a(g25
g702
tp5466
as(g276
S'hamburger'
p5467
tp5468
(lp5469
(g280
g5467
tp5470
as(g349
g4579
tp5471
(lp5472
(g353
g4579
tp5473
a(g355
g4579
tp5474
a(g357
g4579
tp5475
as(g370
S'charlie_parker'
p5476
tp5477
(lp5478
(g374
g5476
tp5479
as(g201
S'motherinlaw'
p5480
tp5481
(lp5482
(g197
g5480
tp5483
a(g177
g5480
tp5484
as(S'unitary'
p5485
S'choir'
p5486
tp5487
(lp5488
(S'federal'
p5489
g5486
tp5490
as(g197
g2072
tp5491
(lp5492
(g201
g2072
tp5493
a(g203
g2072
tp5494
as(g211
g1868
tp5495
(lp5496
(g215
g1868
tp5497
as(g5244
S'model_t'
p5498
tp5499
(lp5500
(g5248
g5498
tp5501
as(g520
S'dancer'
p5502
tp5503
(lp5504
(g524
g5502
tp5505
a(g526
g5502
tp5506
as(g43
S'dew'
p5507
tp5508
(lp5509
(g47
g5507
tp5510
a(g49
g5507
tp5511
a(g51
g5507
tp5512
as(g1426
S'greyhound'
p5513
tp5514
(lp5515
(g1429
g5513
tp5516
as(g227
S'martini'
p5517
tp5518
(lp5519
(g223
g5517
tp5520
a(g768
g5517
tp5521
a(g770
g5517
tp5522
as(g270
g1299
tp5523
(lp5524
(g274
g1299
tp5525
as(g93
S'hatchet'
p5526
tp5527
(lp5528
(g97
g5526
tp5529
a(g99
g5526
tp5530
a(g101
g5526
tp5531
as(g625
S'fish_stick'
p5532
tp5533
(lp5534
(g97
g5532
tp5535
as(g370
g3780
tp5536
(lp5537
(g374
g3780
tp5538
as(g114
S'hornet'
p5539
tp5540
(lp5541
(g118
g5539
tp5542
as(g856
g4843
tp5543
(lp5544
(g860
g4843
tp5545
as(g472
S'drinking_glass'
p5546
tp5547
(lp5548
(g476
g5546
tp5549
as(g1196
g4926
tp5550
(lp5551
(g1200
g4926
tp5552
as(g559
g5217
tp5553
(lp5554
(g563
g5217
tp5555
as(g349
S'bench_vise'
p5556
tp5557
(lp5558
(g353
g5556
tp5559
a(g355
g5556
tp5560
a(g357
g5556
tp5561
as(g1534
g4161
tp5562
(lp5563
(g1538
g4161
tp5564
as(g114
g4926
tp5565
(lp5566
(g118
g4926
tp5567
as(g1891
S'hydrangea'
p5568
tp5569
(lp5570
(g1895
g5568
tp5571
as(g43
S'queen'
p5572
tp5573
(lp5574
(g47
g5572
tp5575
a(g49
g5572
tp5576
a(g51
g5572
tp5577
as(g23
g3568
tp5578
(lp5579
(g19
g3568
tp5580
as(g13
S'thought'
p5581
tp5582
(lp5583
(g17
g5581
tp5584
as(g19
g4665
tp5585
(lp5586
(g23
g4665
tp5587
a(g25
g4665
tp5588
as(g300
g780
tp5589
(lp5590
(g286
g780
tp5591
as(g571
g5213
tp5592
(lp5593
(g25
g5213
tp5594
as(g571
S'toy_soldier'
p5595
tp5596
(lp5597
(g25
g5595
tp5598
as(g120
S'nut'
p5599
tp5600
(lp5601
(g124
g5599
tp5602
as(g286
S'brain'
p5603
tp5604
(lp5605
(g290
g5603
tp5606
a(g292
g5603
tp5607
a(g294
g5603
tp5608
a(g296
g5603
tp5609
a(g298
g5603
tp5610
a(g300
g5603
tp5611
as(g93
g1868
tp5612
(lp5613
(g97
g1868
tp5614
a(g99
g1868
tp5615
a(g101
g1868
tp5616
as(g93
S'electron_microscope'
p5617
tp5618
(lp5619
(g97
g5617
tp5620
a(g99
g5617
tp5621
a(g101
g5617
tp5622
as(g705
S'compost_pile'
p5623
tp5624
(lp5625
(g701
g5623
tp5626
as(g114
S'jetliner'
p5627
tp5628
(lp5629
(g118
g5627
tp5630
as(g1431
S'coyote'
p5631
tp5632
(lp5633
(g1434
g5631
tp5634
as(g3242
S'gyroscope'
p5635
tp5636
(lp5637
(g3246
g5635
tp5638
as(g120
S'root'
p5639
tp5640
(lp5641
(g124
g5639
tp5642
as(g270
g3368
tp5643
(lp5644
(g274
g3368
tp5645
as(g2262
g873
tp5646
(lp5647
(g2266
g873
tp5648
a(g2268
g873
tp5649
as(g276
g1554
tp5650
(lp5651
(g280
g1554
tp5652
as(g118
g2765
tp5653
(lp5654
(g114
g2765
tp5655
as(g657
S'theme_park'
p5656
tp5657
(lp5658
(g101
g5656
tp5659
as(g3242
S'pyramid'
p5660
tp5661
(lp5662
(g3246
g5660
tp5663
as(g93
S'pocketknife'
p5664
tp5665
(lp5666
(g97
g5664
tp5667
a(g99
g5664
tp5668
a(g101
g5664
tp5669
as(g76
g1188
tp5670
(lp5671
(g80
g1188
tp5672
a(g82
g1188
tp5673
as(g211
S'abattoir'
p5674
tp5675
(lp5676
(g215
g5674
tp5677
as(g274
S'breeze'
p5678
tp5679
(lp5680
(g270
g5678
tp5681
a(g540
g5678
tp5682
as(g126
g335
tp5683
(lp5684
(g130
g335
tp5685
as(g1615
S'administrator'
p5686
tp5687
(lp5688
(g1619
g5686
tp5689
as(g1798
S'funeral'
p5690
tp5691
(lp5692
(g1802
g5690
tp5693
as(g270
g1476
tp5694
(lp5695
(g274
g1476
tp5696
as(g114
g3220
tp5697
(lp5698
(g118
g3220
tp5699
as(g370
S'harp'
p5700
tp5701
(lp5702
(g374
g5700
tp5703
as(g1196
g3412
tp5704
(lp5705
(g1200
g3412
tp5706
as(g2896
S'bedroom'
p5707
tp5708
(lp5709
(g2900
g5707
tp5710
as(g35
S'telephone_book'
p5711
tp5712
(lp5713
(g39
g5711
tp5714
a(g41
g5711
tp5715
as(g76
g4579
tp5716
(lp5717
(g80
g4579
tp5718
a(g82
g4579
tp5719
as(g65
g873
tp5720
(lp5721
(g69
g873
tp5722
as(g2304
g371
tp5723
(lp5724
(g2308
g371
tp5725
a(g2310
g371
tp5726
as(g173
g3703
tp5727
(lp5728
(g177
g3703
tp5729
as(g43
S'maggot'
p5730
tp5731
(lp5732
(g47
g5730
tp5733
a(g49
g5730
tp5734
a(g51
g5730
tp5735
as(g1426
g909
tp5736
(lp5737
(g1429
g909
tp5738
as(g93
g844
tp5739
(lp5740
(g97
g844
tp5741
a(g99
g844
tp5742
a(g101
g844
tp5743
as(g114
S'fetus'
p5744
tp5745
(lp5746
(g118
g5744
tp5747
as(g370
g5502
tp5748
(lp5749
(g374
g5502
tp5750
as(g1615
S'insect'
p5751
tp5752
(lp5753
(g1619
g5751
tp5754
as(g57
S'counterfeiter'
p5755
tp5756
(lp5757
(g53
g5755
tp5758
as(g2262
g2497
tp5759
(lp5760
(g2266
g2497
tp5761
a(g2268
g2497
tp5762
as(g276
S'cadaver'
p5763
tp5764
(lp5765
(g280
g5763
tp5766
as(g76
g3743
tp5767
(lp5768
(g80
g3743
tp5769
a(g82
g3743
tp5770
as(g3685
S'tumour'
p5771
tp5772
(lp5773
(g3689
g5771
tp5774
as(g93
S'scalpel'
p5775
tp5776
(lp5777
(g97
g5775
tp5778
a(g99
g5775
tp5779
a(g101
g5775
tp5780
as(g856
g5201
tp5781
(lp5782
(g860
g5201
tp5783
as(g197
S'cinder_block'
p5784
tp5785
(lp5786
(g201
g5784
tp5787
a(g203
g5784
tp5788
as(g35
g1104
tp5789
(lp5790
(g39
g1104
tp5791
a(g41
g1104
tp5792
as(g227
g5349
tp5793
(lp5794
(g223
g5349
tp5795
a(g768
g5349
tp5796
a(g770
g5349
tp5797
as(g118
S'dirge'
p5798
tp5799
(lp5800
(g114
g5798
tp5801
as(g233
S'tin_whistle'
p5802
tp5803
(lp5804
(g229
g5802
tp5805
a(g239
g5802
tp5806
as(g223
g2497
tp5807
(lp5808
(g227
g2497
tp5809
as(g233
S'dust'
p5810
tp5811
(lp5812
(g229
g5810
tp5813
a(g239
g5810
tp5814
as(g274
g1792
tp5815
(lp5816
(g270
g1792
tp5817
a(g540
g1792
tp5818
as(g2262
S'jelly'
p5819
tp5820
(lp5821
(g2266
g5819
tp5822
a(g2268
g5819
tp5823
as(g1615
S'desktop_computer'
p5824
tp5825
(lp5826
(g1619
g5824
tp5827
as(g370
S'marionette'
p5828
tp5829
(lp5830
(g374
g5828
tp5831
as(g101
S'mermaid'
p5832
tp5833
(lp5834
(g655
g5832
tp5835
a(g657
g5832
tp5836
a(g659
g5832
tp5837
a(g99
g5832
tp5838
a(g93
g5832
tp5839
as(g120
S'automobile_tire'
p5840
tp5841
(lp5842
(g124
g5840
tp5843
as(g93
g804
tp5844
(lp5845
(g97
g804
tp5846
a(g99
g804
tp5847
a(g101
g804
tp5848
as(g118
g3495
tp5849
(lp5850
(g114
g3495
tp5851
as(g143
g857
tp5852
(lp5853
(g137
g857
tp5854
a(g451
g857
tp5855
a(g453
g857
tp5856
a(g455
g857
tp5857
a(g457
g857
tp5858
as(g247
S'opal'
p5859
tp5860
(lp5861
(g251
g5859
tp5862
as(g19
g1217
tp5863
(lp5864
(g23
g1217
tp5865
a(g25
g1217
tp5866
as(g495
g3698
tp5867
(lp5868
(g499
g3698
tp5869
a(g501
g3698
tp5870
a(g503
g3698
tp5871
as(g88
S'fruit'
p5872
tp5873
(lp5874
(g91
g5872
tp5875
as(g65
S'bulldog'
p5876
tp5877
(lp5878
(g69
g5876
tp5879
as(g1046
S'stealth_fighter'
p5880
tp5881
(lp5882
(g1050
g5880
tp5883
a(g1052
g5880
tp5884
as(g1
g2593
tp5885
(lp5886
(g5
g2593
tp5887
as(g1534
S'cotton_candy'
p5888
tp5889
(lp5890
(g1538
g5888
tp5891
as(g114
g2656
tp5892
(lp5893
(g118
g2656
tp5894
as(g76
S'mason_jar'
p5895
tp5896
(lp5897
(g80
g5895
tp5898
a(g82
g5895
tp5899
as(g370
g5083
tp5900
(lp5901
(g374
g5083
tp5902
as(g3685
S'necromancer'
p5903
tp5904
(lp5905
(g3689
g5903
tp5906
as(g439
S'cocoon'
p5907
tp5908
(lp5909
(g443
g5907
tp5910
a(g445
g5907
tp5911
as(g229
S'sewer'
p5912
tp5913
(lp5914
(g233
g5912
tp5915
as(g211
g923
tp5916
(lp5917
(g215
g923
tp5918
as(g274
S'veil'
p5919
tp5920
(lp5921
(g270
g5919
tp5922
a(g540
g5919
tp5923
as(g349
g714
tp5924
(lp5925
(g353
g714
tp5926
a(g355
g714
tp5927
a(g357
g714
tp5928
as(g968
g4465
tp5929
(lp5930
(g972
g4465
tp5931
as(g211
g3714
tp5932
(lp5933
(g215
g3714
tp5934
as(g211
g5307
tp5935
(lp5936
(g215
g5307
tp5937
as(g35
S'pincushion'
p5938
tp5939
(lp5940
(g39
g5938
tp5941
a(g41
g5938
tp5942
as(g120
S'armor'
p5943
tp5944
(lp5945
(g124
g5943
tp5946
as(g137
g5876
tp5947
(lp5948
(g141
g5876
tp5949
a(g143
g5876
tp5950
a(g145
g5876
tp5951
as(g114
g399
tp5952
(lp5953
(g118
g399
tp5954
as(g520
g2856
tp5955
(lp5956
(g524
g2856
tp5957
a(g526
g2856
tp5958
as(g211
g3923
tp5959
(lp5960
(g215
g3923
tp5961
as(g93
S'switchblade'
p5962
tp5963
(lp5964
(g97
g5962
tp5965
a(g99
g5962
tp5966
a(g101
g5962
tp5967
as(g520
S'oil_change'
p5968
tp5969
(lp5970
(g524
g5968
tp5971
a(g526
g5968
tp5972
as(g3242
S'nut_case'
p5973
tp5974
(lp5975
(g3246
g5973
tp5976
as(g76
S'treasure_chest'
p5977
tp5978
(lp5979
(g80
g5977
tp5980
a(g82
g5977
tp5981
as(g19
g440
tp5982
(lp5983
(g23
g440
tp5984
a(g25
g440
tp5985
as(g274
g121
tp5986
(lp5987
(g270
g121
tp5988
a(g540
g121
tp5989
as(g370
g3255
tp5990
(lp5991
(g374
g3255
tp5992
as(g286
g1149
tp5993
(lp5994
(g290
g1149
tp5995
a(g292
g1149
tp5996
a(g294
g1149
tp5997
a(g296
g1149
tp5998
a(g298
g1149
tp5999
a(g300
g1149
tp6000
as(g7
g3412
tp6001
(lp6002
(g11
g3412
tp6003
as(g472
g2568
tp6004
(lp6005
(g476
g2568
tp6006
as(g559
S'poniard'
p6007
tp6008
(lp6009
(g563
g6007
tp6010
as(g76
S'colander'
p6011
tp6012
(lp6013
(g80
g6011
tp6014
a(g82
g6011
tp6015
as(g1040
S'shooting_star'
p6016
tp6017
(lp6018
(g1036
g6016
tp6019
as(g197
S'acrobat'
p6020
tp6021
(lp6022
(g201
g6020
tp6023
a(g203
g6020
tp6024
as(g118
g958
tp6025
(lp6026
(g114
g958
tp6027
as(g2005
g2965
tp6028
(lp6029
(g2009
g2965
tp6030
as(g270
g642
tp6031
(lp6032
(g274
g642
tp6033
as(g233
g3382
tp6034
(lp6035
(g229
g3382
tp6036
a(g239
g3382
tp6037
as(g120
S'ranger'
p6038
tp6039
(lp6040
(g124
g6038
tp6041
as(g114
S'modem'
p6042
tp6043
(lp6044
(g118
g6042
tp6045
as(g357
S'tunnel'
p6046
tp6047
(lp6048
(g349
g6046
tp6049
as(g93
S'meat_cleaver'
p6050
tp6051
(lp6052
(g97
g6050
tp6053
a(g99
g6050
tp6054
a(g101
g6050
tp6055
as(g43
g2551
tp6056
(lp6057
(g47
g2551
tp6058
a(g49
g2551
tp6059
a(g51
g2551
tp6060
as(g93
g3139
tp6061
(lp6062
(g97
g3139
tp6063
a(g99
g3139
tp6064
a(g101
g3139
tp6065
as(g126
S'waxwork'
p6066
tp6067
(lp6068
(g130
g6066
tp6069
as(g114
g5631
tp6070
(lp6071
(g118
g5631
tp6072
as(g2147
S'walnut'
p6073
tp6074
(lp6075
(g2151
g6073
tp6076
a(g2153
g6073
tp6077
as(g1704
g1139
tp6078
(lp6079
(g1708
g1139
tp6080
as(S'concrete'
p6081
g1415
tp6082
(lp6083
(S'abstract'
p6084
g1415
tp6085
as(g559
S'volleyball'
p6086
tp6087
(lp6088
(g563
g6086
tp6089
as(g4004
g1585
tp6090
(lp6091
(g4008
g1585
tp6092
as(g625
g3475
tp6093
(lp6094
(g97
g3475
tp6095
as(g1704
S'apricot'
p6096
tp6097
(lp6098
(g1708
g6096
tp6099
as(g43
S'princess'
p6100
tp6101
(lp6102
(g47
g6100
tp6103
a(g49
g6100
tp6104
a(g51
g6100
tp6105
as(g274
S'sledgehammer'
p6106
tp6107
(lp6108
(g270
g6106
tp6109
a(g540
g6106
tp6110
as(g1196
g604
tp6111
(lp6112
(g1200
g604
tp6113
as(g229
g1104
tp6114
(lp6115
(g233
g1104
tp6116
as(g359
g1868
tp6117
(lp6118
(g363
g1868
tp6119
as(g76
S'bracelet'
p6120
tp6121
(lp6122
(g80
g6120
tp6123
a(g82
g6120
tp6124
as(g31
g5763
tp6125
(lp6126
(g27
g5763
tp6127
a(g1063
g5763
tp6128
as(g23
S'mouse'
p6129
tp6130
(lp6131
(g19
g6129
tp6132
as(g35
g1751
tp6133
(lp6134
(g39
g1751
tp6135
a(g41
g1751
tp6136
as(g723
S'lily_pad'
p6137
tp6138
(lp6139
(g727
g6137
tp6140
as(g137
g2030
tp6141
(lp6142
(g141
g2030
tp6143
a(g143
g2030
tp6144
a(g145
g2030
tp6145
as(g659
S'cabbage'
p6146
tp6147
(lp6148
(g101
g6146
tp6149
as(g571
S'board'
p6150
tp6151
(lp6152
(g25
g6150
tp6153
as(g701
S'hospital_ward'
p6154
tp6155
(lp6156
(g705
g6154
tp6157
as(g114
g5513
tp6158
(lp6159
(g118
g5513
tp6160
as(g1040
S'mandala'
p6161
tp6162
(lp6163
(g1036
g6161
tp6164
as(g227
g1641
tp6165
(lp6166
(g223
g1641
tp6167
a(g768
g1641
tp6168
a(g770
g1641
tp6169
as(g93
S'rifle_shot'
p6170
tp6171
(lp6172
(g97
g6170
tp6173
a(g99
g6170
tp6174
a(g101
g6170
tp6175
as(g189
g3194
tp6176
(lp6177
(g193
g3194
tp6178
a(g195
g3194
tp6179
as(g211
g1921
tp6180
(lp6181
(g215
g1921
tp6182
as(g71
g302
tp6183
(lp6184
(g25
g302
tp6185
as(g355
S'savings_account'
p6186
tp6187
(lp6188
(g353
g6186
tp6189
a(g349
g6186
tp6190
a(g483
g6186
tp6191
as(g349
S'bison'
p6192
tp6193
(lp6194
(g353
g6192
tp6195
a(g355
g6192
tp6196
a(g357
g6192
tp6197
as(g657
S'glass_eye'
p6198
tp6199
(lp6200
(g101
g6198
tp6201
as(g1426
S'mountain_goat'
p6202
tp6203
(lp6204
(g1429
g6202
tp6205
as(g2996
g4776
tp6206
(lp6207
(g3000
g4776
tp6208
a(g3002
g4776
tp6209
a(g88
g4776
tp6210
a(g3005
g4776
tp6211
as(g349
S'counterweight'
p6212
tp6213
(lp6214
(g353
g6212
tp6215
a(g355
g6212
tp6216
a(g357
g6212
tp6217
as(g229
S'toilet_seat'
p6218
tp6219
(lp6220
(g233
g6218
tp6221
as(g349
g3127
tp6222
(lp6223
(g353
g3127
tp6224
a(g355
g3127
tp6225
a(g357
g3127
tp6226
as(g19
g277
tp6227
(lp6228
(g23
g277
tp6229
a(g25
g277
tp6230
as(g159
g2123
tp6231
(lp6232
(g155
g2123
tp6233
as(g1534
S'croissant'
p6234
tp6235
(lp6236
(g1538
g6234
tp6237
as(g120
g5876
tp6238
(lp6239
(g124
g5876
tp6240
as(g53
g811
tp6241
(lp6242
(g57
g811
tp6243
a(g59
g811
tp6244
a(g61
g811
tp6245
a(g63
g811
tp6246
as(g120
g2497
tp6247
(lp6248
(g124
g2497
tp6249
as(g5
S'foetus'
p6250
tp6251
(lp6252
(g1
g6250
tp6253
as(g101
g1197
tp6254
(lp6255
(g655
g1197
tp6256
a(g657
g1197
tp6257
a(g659
g1197
tp6258
a(g99
g1197
tp6259
a(g93
g1197
tp6260
as(g19
g350
tp6261
(lp6262
(g23
g350
tp6263
a(g25
g350
tp6264
as(g53
S'circle'
p6265
tp6266
(lp6267
(g57
g6265
tp6268
a(g59
g6265
tp6269
a(g61
g6265
tp6270
a(g63
g6265
tp6271
as(g211
g3198
tp6272
(lp6273
(g215
g3198
tp6274
as(g27
g8
tp6275
(lp6276
(g31
g8
tp6277
a(g33
g8
tp6278
as(g7
g3756
tp6279
(lp6280
(g11
g3756
tp6281
as(g571
g3917
tp6282
(lp6283
(g25
g3917
tp6284
as(g137
g4247
tp6285
(lp6286
(g141
g4247
tp6287
a(g143
g4247
tp6288
a(g145
g4247
tp6289
as(g276
S'apple'
p6290
tp6291
(lp6292
(g280
g6290
tp6293
as(g108
S'reference_book'
p6294
tp6295
(lp6296
(g112
g6294
tp6297
as(g53
S'mobius_strip'
p6298
tp6299
(lp6300
(g57
g6298
tp6301
a(g59
g6298
tp6302
a(g61
g6298
tp6303
a(g63
g6298
tp6304
as(g1798
S'checker_board'
p6305
tp6306
(lp6307
(g1802
g6305
tp6308
as(g1807
g440
tp6309
(lp6310
(g1811
g440
tp6311
as(g114
S'racehorse'
p6312
tp6313
(lp6314
(g118
g6312
tp6315
as(g276
S'stallion'
p6316
tp6317
(lp6318
(g280
g6316
tp6319
as(g547
g1605
tp6320
(lp6321
(g551
g1605
tp6322
a(g553
g1605
tp6323
as(g1040
g4304
tp6324
(lp6325
(g1036
g4304
tp6326
as(g53
S'lance'
p6327
tp6328
(lp6329
(g57
g6327
tp6330
a(g59
g6327
tp6331
a(g61
g6327
tp6332
a(g63
g6327
tp6333
as(g31
g3139
tp6334
(lp6335
(g27
g3139
tp6336
a(g1063
g3139
tp6337
as(g19
g2611
tp6338
(lp6339
(g23
g2611
tp6340
a(g25
g2611
tp6341
as(g355
S'treasury_bond'
p6342
tp6343
(lp6344
(g353
g6342
tp6345
a(g349
g6342
tp6346
a(g483
g6342
tp6347
as(g71
S'gun'
p6348
tp6349
(lp6350
(g25
g6348
tp6351
as(g1196
g8
tp6352
(lp6353
(g1200
g8
tp6354
as(g143
S'icepick'
p6355
tp6356
(lp6357
(g137
g6355
tp6358
a(g451
g6355
tp6359
a(g453
g6355
tp6360
a(g455
g6355
tp6361
a(g457
g6355
tp6362
as(g270
g415
tp6363
(lp6364
(g274
g415
tp6365
as(g476
S'child'
p6366
tp6367
(lp6368
(g472
g6366
tp6369
a(g2591
g6366
tp6370
as(g2754
S'tissue_paper'
p6371
tp6372
(lp6373
(g2757
g6371
tp6374
as(g53
g6150
tp6375
(lp6376
(g57
g6150
tp6377
a(g59
g6150
tp6378
a(g61
g6150
tp6379
a(g63
g6150
tp6380
as(g137
S'river_boulder'
p6381
tp6382
(lp6383
(g141
g6381
tp6384
a(g143
g6381
tp6385
a(g145
g6381
tp6386
as(g286
S'anthill'
p6387
tp6388
(lp6389
(g290
g6387
tp6390
a(g292
g6387
tp6391
a(g294
g6387
tp6392
a(g296
g6387
tp6393
a(g298
g6387
tp6394
a(g300
g6387
tp6395
as(g88
S'pippin'
p6396
tp6397
(lp6398
(g91
g6396
tp6399
as(g189
S'sculpture'
p6400
tp6401
(lp6402
(g193
g6400
tp6403
a(g195
g6400
tp6404
as(g211
S'layer_cake'
p6405
tp6406
(lp6407
(g215
g6405
tp6408
as(g211
S'baby_bird'
p6409
tp6410
(lp6411
(g215
g6409
tp6412
as(g7
g3359
tp6413
(lp6414
(g11
g3359
tp6415
as(g4176
S'nightmare'
p6416
tp6417
(lp6418
(g4179
g6416
tp6419
as(g211
S'seismograph'
p6420
tp6421
(lp6422
(g215
g6420
tp6423
as(g5
g852
tp6424
(lp6425
(g1
g852
tp6426
as(g93
g6327
tp6427
(lp6428
(g97
g6327
tp6429
a(g99
g6327
tp6430
a(g101
g6327
tp6431
as(g93
S'bobby_pin'
p6432
tp6433
(lp6434
(g97
g6432
tp6435
a(g99
g6432
tp6436
a(g101
g6432
tp6437
as(g1534
S'haiku'
p6438
tp6439
(lp6440
(g1538
g6438
tp6441
as(g76
S'cell_membrane'
p6442
tp6443
(lp6444
(g80
g6442
tp6445
a(g82
g6442
tp6446
as(g1
g302
tp6447
(lp6448
(g5
g302
tp6449
as(g7
g4696
tp6450
(lp6451
(g11
g4696
tp6452
as(g1036
S'scar'
p6453
tp6454
(lp6455
(g1040
g6453
tp6456
as(g211
g2765
tp6457
(lp6458
(g215
g2765
tp6459
as(g1778
S'birdnest'
p6460
tp6461
(lp6462
(g1782
g6460
tp6463
as(g370
S'ballet_master'
p6464
tp6465
(lp6466
(g374
g6464
tp6467
as(g2005
S'bb_gun'
p6468
tp6469
(lp6470
(g2009
g6468
tp6471
as(g1431
S'coward'
p6472
tp6473
(lp6474
(g1434
g6472
tp6475
as(g274
g1931
tp6476
(lp6477
(g270
g1931
tp6478
a(g540
g1931
tp6479
as(g159
g2088
tp6480
(lp6481
(g155
g2088
tp6482
as(g1426
g4155
tp6483
(lp6484
(g1429
g4155
tp6485
as(g201
g241
tp6486
(lp6487
(g197
g241
tp6488
a(g177
g241
tp6489
as(S'unsteady'
p6490
S'canoe'
p6491
tp6492
(lp6493
(S'steady'
p6494
g6491
tp6495
as(g118
g3961
tp6496
(lp6497
(g114
g3961
tp6498
as(g97
g679
tp6499
(lp6500
(g625
g679
tp6501
a(g808
g679
tp6502
a(g93
g679
tp6503
as(g71
g4932
tp6504
(lp6505
(g25
g4932
tp6506
as(g114
g674
tp6507
(lp6508
(g118
g674
tp6509
as(g233
S'toilet'
p6510
tp6511
(lp6512
(g229
g6510
tp6513
a(g239
g6510
tp6514
as(g274
S'smile'
p6515
tp6516
(lp6517
(g270
g6515
tp6518
a(g540
g6515
tp6519
as(g1798
S'museum'
p6520
tp6521
(lp6522
(g1802
g6520
tp6523
as(g118
g5763
tp6524
(lp6525
(g114
g5763
tp6526
as(g205
g1724
tp6527
(lp6528
(g209
g1724
tp6529
as(g53
g3681
tp6530
(lp6531
(g57
g3681
tp6532
a(g59
g3681
tp6533
a(g61
g3681
tp6534
a(g63
g3681
tp6535
as(g76
S'thermos_bottle'
p6536
tp6537
(lp6538
(g80
g6536
tp6539
a(g82
g6536
tp6540
as(g251
S'defect'
p6541
tp6542
(lp6543
(g247
g6541
tp6544
as(g189
S'sphinx'
p6545
tp6546
(lp6547
(g193
g6545
tp6548
a(g195
g6545
tp6549
as(g101
g2459
tp6550
(lp6551
(g655
g2459
tp6552
a(g657
g2459
tp6553
a(g659
g2459
tp6554
a(g99
g2459
tp6555
a(g93
g2459
tp6556
as(g197
g1099
tp6557
(lp6558
(g201
g1099
tp6559
a(g203
g1099
tp6560
as(g53
g1337
tp6561
(lp6562
(g57
g1337
tp6563
a(g59
g1337
tp6564
a(g61
g1337
tp6565
a(g63
g1337
tp6566
as(g753
g1149
tp6567
(lp6568
(g757
g1149
tp6569
as(g217
S'rattler'
p6570
tp6571
(lp6572
(g221
g6570
tp6573
as(g571
g1202
tp6574
(lp6575
(g25
g1202
tp6576
as(S'irreversible'
p6577
S'lobotomy'
p6578
tp6579
(lp6580
(S'reversible'
p6581
g6578
tp6582
as(g147
S'highland'
p6583
tp6584
(lp6585
(g151
g6583
tp6586
a(g153
g6583
tp6587
as(g43
S'primrose'
p6588
tp6589
(lp6590
(g47
g6588
tp6591
a(g49
g6588
tp6592
a(g51
g6588
tp6593
as(g137
g2716
tp6594
(lp6595
(g141
g2716
tp6596
a(g143
g2716
tp6597
a(g145
g2716
tp6598
as(g374
g415
tp6599
(lp6600
(g370
g415
tp6601
as(g53
g4161
tp6602
(lp6603
(g57
g4161
tp6604
a(g59
g4161
tp6605
a(g61
g4161
tp6606
a(g63
g4161
tp6607
as(g1534
g415
tp6608
(lp6609
(g1538
g415
tp6610
as(g65
S'rhinoceros'
p6611
tp6612
(lp6613
(g69
g6611
tp6614
as(g559
g5660
tp6615
(lp6616
(g563
g5660
tp6617
as(g173
g4330
tp6618
(lp6619
(g177
g4330
tp6620
as(g983
S'constellation'
p6621
tp6622
(lp6623
(g987
g6621
tp6624
as(g753
S'weathercock'
p6625
tp6626
(lp6627
(g757
g6625
tp6628
as(g5248
g6366
tp6629
(lp6630
(g5244
g6366
tp6631
a(S'exploited'
p6632
g6366
tp6633
as(g349
g4405
tp6634
(lp6635
(g353
g4405
tp6636
a(g355
g4405
tp6637
a(g357
g4405
tp6638
as(g520
S'cowboy'
p6639
tp6640
(lp6641
(g524
g6639
tp6642
a(g526
g6639
tp6643
as(g559
g1792
tp6644
(lp6645
(g563
g1792
tp6646
as(g370
S'cat_burglar'
p6647
tp6648
(lp6649
(g374
g6647
tp6650
as(g13
S'phantom'
p6651
tp6652
(lp6653
(g17
g6651
tp6654
as(g5
S'snowdrop'
p6655
tp6656
(lp6657
(g1
g6655
tp6658
as(g2748
S'musician'
p6659
tp6660
(lp6661
(g2752
g6659
tp6662
as(g101
S'waterfall'
p6663
tp6664
(lp6665
(g655
g6663
tp6666
a(g657
g6663
tp6667
a(g659
g6663
tp6668
a(g99
g6663
tp6669
a(g93
g6663
tp6670
as(g35
g2222
tp6671
(lp6672
(g39
g2222
tp6673
a(g41
g2222
tp6674
as(g5
g2551
tp6675
(lp6676
(g1
g2551
tp6677
as(g233
S'clinic'
p6678
tp6679
(lp6680
(g229
g6678
tp6681
a(g239
g6678
tp6682
as(S'unbreakable'
p6683
g2716
tp6684
(lp6685
(S'breakable'
p6686
g2716
tp6687
as(g1534
S'lump_sum'
p6688
tp6689
(lp6690
(g1538
g6688
tp6691
as(g1704
g5043
tp6692
(lp6693
(g1708
g5043
tp6694
as(g118
S'dung_beetle'
p6695
tp6696
(lp6697
(g114
g6695
tp6698
as(g120
g3622
tp6699
(lp6700
(g124
g3622
tp6701
as(g43
S'spray'
p6702
tp6703
(lp6704
(g47
g6702
tp6705
a(g49
g6702
tp6706
a(g51
g6702
tp6707
as(g270
g1188
tp6708
(lp6709
(g274
g1188
tp6710
as(g524
S'wicker'
p6711
tp6712
(lp6713
(g520
g6711
tp6714
as(g349
g127
tp6715
(lp6716
(g353
g127
tp6717
a(g355
g127
tp6718
a(g357
g127
tp6719
as(g559
g1868
tp6720
(lp6721
(g563
g1868
tp6722
as(g968
g4776
tp6723
(lp6724
(g972
g4776
tp6725
as(g65
S'elephant_seal'
p6726
tp6727
(lp6728
(g69
g6726
tp6729
as(g349
S'muscle'
p6730
tp6731
(lp6732
(g353
g6730
tp6733
a(g355
g6730
tp6734
a(g357
g6730
tp6735
as(g1509
S'bungee_cord'
p6736
tp6737
(lp6738
(g1513
g6736
tp6739
as(g1398
S'goat'
p6740
tp6741
(lp6742
(g25
g6740
tp6743
as(g270
g387
tp6744
(lp6745
(g274
g387
tp6746
as(g19
S'steel_trap'
p6747
tp6748
(lp6749
(g23
g6747
tp6750
a(g25
g6747
tp6751
as(g19
S'ape'
p6752
tp6753
(lp6754
(g23
g6752
tp6755
a(g25
g6752
tp6756
as(g19
g5240
tp6757
(lp6758
(g23
g5240
tp6759
a(g25
g5240
tp6760
as(g349
g28
tp6761
(lp6762
(g353
g28
tp6763
a(g355
g28
tp6764
a(g357
g28
tp6765
as(g19
g1318
tp6766
(lp6767
(g23
g1318
tp6768
a(g25
g1318
tp6769
as(g93
g1174
tp6770
(lp6771
(g97
g1174
tp6772
a(g99
g1174
tp6773
a(g101
g1174
tp6774
as(g1615
g714
tp6775
(lp6776
(g1619
g714
tp6777
as(g571
g954
tp6778
(lp6779
(g25
g954
tp6780
as(g571
S'popsicle'
p6781
tp6782
(lp6783
(g25
g6781
tp6784
as(g270
S'log'
p6785
tp6786
(lp6787
(g274
g6785
tp6788
as(g93
S'stiletto_heel'
p6789
tp6790
(lp6791
(g97
g6789
tp6792
a(g99
g6789
tp6793
a(g101
g6789
tp6794
as(g23
g1233
tp6795
(lp6796
(g19
g1233
tp6797
as(g370
S'prince'
p6798
tp6799
(lp6800
(g374
g6798
tp6801
as(g211
S'crane'
p6802
tp6803
(lp6804
(g215
g6802
tp6805
as(g173
g1197
tp6806
(lp6807
(g177
g1197
tp6808
as(g35
S'heifer'
p6809
tp6810
(lp6811
(g39
g6809
tp6812
a(g41
g6809
tp6813
as(g120
S'bounty_hunter'
p6814
tp6815
(lp6816
(g124
g6814
tp6817
as(g370
g1314
tp6818
(lp6819
(g374
g1314
tp6820
as(g1196
g4529
tp6821
(lp6822
(g1200
g4529
tp6823
as(g130
g862
tp6824
(lp6825
(g126
g862
tp6826
as(g19
S'titan'
p6827
tp6828
(lp6829
(g23
g6827
tp6830
a(g25
g6827
tp6831
as(g1778
S'grapevine'
p6832
tp6833
(lp6834
(g1782
g6832
tp6835
as(g233
g183
tp6836
(lp6837
(g229
g183
tp6838
a(g239
g183
tp6839
as(g120
S'haircut'
p6840
tp6841
(lp6842
(g124
g6840
tp6843
as(g93
S'marble'
p6844
tp6845
(lp6846
(g97
g6844
tp6847
a(g99
g6844
tp6848
a(g101
g6844
tp6849
as(g472
g2336
tp6850
(lp6851
(g476
g2336
tp6852
as(g137
g4926
tp6853
(lp6854
(g141
g4926
tp6855
a(g143
g4926
tp6856
a(g145
g4926
tp6857
as(g520
S'sump_pump'
p6858
tp6859
(lp6860
(g524
g6858
tp6861
a(g526
g6858
tp6862
as(g274
g6234
tp6863
(lp6864
(g270
g6234
tp6865
a(g540
g6234
tp6866
as(g53
S'boomerang'
p6867
tp6868
(lp6869
(g57
g6867
tp6870
a(g59
g6867
tp6871
a(g61
g6867
tp6872
a(g63
g6867
tp6873
as(g247
S'pearl'
p6874
tp6875
(lp6876
(g251
g6874
tp6877
as(g137
g8
tp6878
(lp6879
(g141
g8
tp6880
a(g143
g8
tp6881
a(g145
g8
tp6882
as(g227
g2497
tp6883
(lp6884
(g223
g2497
tp6885
a(g768
g2497
tp6886
a(g770
g2497
tp6887
as(g93
g1897
tp6888
(lp6889
(g97
g1897
tp6890
a(g99
g1897
tp6891
a(g101
g1897
tp6892
as(g1534
g212
tp6893
(lp6894
(g1538
g212
tp6895
as(g65
g2175
tp6896
(lp6897
(g69
g2175
tp6898
as(g227
S'death_valley'
p6899
tp6900
(lp6901
(g223
g6899
tp6902
a(g768
g6899
tp6903
a(g770
g6899
tp6904
as(g2501
g5223
tp6905
(lp6906
(g2505
g5223
tp6907
a(g2507
g5223
tp6908
as(g53
g3878
tp6909
(lp6910
(g57
g3878
tp6911
a(g59
g3878
tp6912
a(g61
g3878
tp6913
a(g63
g3878
tp6914
as(g173
g4843
tp6915
(lp6916
(g177
g4843
tp6917
as(g5
g6409
tp6918
(lp6919
(g1
g6409
tp6920
as(g93
g2030
tp6921
(lp6922
(g97
g2030
tp6923
a(g99
g2030
tp6924
a(g101
g2030
tp6925
as(g229
g1011
tp6926
(lp6927
(g233
g1011
tp6928
as(g472
S'metropolis'
p6929
tp6930
(lp6931
(g476
g6929
tp6932
as(g349
S'planet'
p6933
tp6934
(lp6935
(g353
g6933
tp6936
a(g355
g6933
tp6937
a(g357
g6933
tp6938
as(g274
g447
tp6939
(lp6940
(g270
g447
tp6941
a(g540
g447
tp6942
as(g93
S'lens'
p6943
tp6944
(lp6945
(g97
g6943
tp6946
a(g99
g6943
tp6947
a(g101
g6943
tp6948
as(g147
g630
tp6949
(lp6950
(g151
g630
tp6951
a(g153
g630
tp6952
as(g1
g746
tp6953
(lp6954
(g5
g746
tp6955
as(g189
g800
tp6956
(lp6957
(g193
g800
tp6958
a(g195
g800
tp6959
as(g114
g4034
tp6960
(lp6961
(g118
g4034
tp6962
as(g137
g405
tp6963
(lp6964
(g141
g405
tp6965
a(g143
g405
tp6966
a(g145
g405
tp6967
as(g19
S'titanium'
p6968
tp6969
(lp6970
(g23
g6968
tp6971
a(g25
g6968
tp6972
as(g7
g2568
tp6973
(lp6974
(g11
g2568
tp6975
as(g97
S'mallet'
p6976
tp6977
(lp6978
(g625
g6976
tp6979
a(g808
g6976
tp6980
a(g93
g6976
tp6981
as(g173
g399
tp6982
(lp6983
(g177
g399
tp6984
as(g159
g5201
tp6985
(lp6986
(g155
g5201
tp6987
as(g1704
S'strawberry'
p6988
tp6989
(lp6990
(g1708
g6988
tp6991
as(g205
g6371
tp6992
(lp6993
(g209
g6371
tp6994
as(g316
g8
tp6995
(lp6996
(g320
g8
tp6997
as(g509
g3194
tp6998
(lp6999
(g512
g3194
tp7000
as(g472
g1365
tp7001
(lp7002
(g476
g1365
tp7003
as(g3865
g2765
tp7004
(lp7005
(g137
g2765
tp7006
as(g223
S'seal'
p7007
tp7008
(lp7009
(g227
g7007
tp7010
as(g19
g28
tp7011
(lp7012
(g23
g28
tp7013
a(g25
g28
tp7014
as(g270
g1118
tp7015
(lp7016
(g274
g1118
tp7017
as(g1431
g3026
tp7018
(lp7019
(g1434
g3026
tp7020
as(g968
g4155
tp7021
(lp7022
(g972
g4155
tp7023
as(g1615
S'hacker'
p7024
tp7025
(lp7026
(g1619
g7024
tp7027
as(g695
S'carcass'
p7028
tp7029
(lp7030
(g699
g7028
tp7031
as(g1704
S'filet_mignon'
p7032
tp7033
(lp7034
(g1708
g7032
tp7035
as(g227
S'beaver'
p7036
tp7037
(lp7038
(g223
g7036
tp7039
a(g768
g7036
tp7040
a(g770
g7036
tp7041
as(g349
g3194
tp7042
(lp7043
(g353
g3194
tp7044
a(g355
g3194
tp7045
a(g357
g3194
tp7046
as(g270
g5784
tp7047
(lp7048
(g274
g5784
tp7049
as(g53
S'hem'
p7050
tp7051
(lp7052
(g57
g7050
tp7053
a(g59
g7050
tp7054
a(g61
g7050
tp7055
a(g63
g7050
tp7056
as(g3507
g6781
tp7057
(lp7058
(g3510
g6781
tp7059
as(g270
g3022
tp7060
(lp7061
(g274
g3022
tp7062
as(g6683
g8
tp7063
(lp7064
(g6686
g8
tp7065
as(g53
S'die'
p7066
tp7067
(lp7068
(g57
g7066
tp7069
a(g59
g7066
tp7070
a(g61
g7066
tp7071
a(g63
g7066
tp7072
as(g43
S'lettuce'
p7073
tp7074
(lp7075
(g47
g7073
tp7076
a(g49
g7073
tp7077
a(g51
g7073
tp7078
as(g5
S'dove'
p7079
tp7080
(lp7081
(g1
g7079
tp7082
as(g76
S'bowstring'
p7083
tp7084
(lp7085
(g80
g7083
tp7086
a(g82
g7083
tp7087
as(g571
g2731
tp7088
(lp7089
(g25
g2731
tp7090
as(g93
S'meatball'
p7091
tp7092
(lp7093
(g97
g7091
tp7094
a(g99
g7091
tp7095
a(g101
g7091
tp7096
as(g93
S'carving_knife'
p7097
tp7098
(lp7099
(g97
g7097
tp7100
a(g99
g7097
tp7101
a(g101
g7097
tp7102
as(g126
g489
tp7103
(lp7104
(g130
g489
tp7105
as(g2450
g857
tp7106
(lp7107
(g2454
g857
tp7108
a(g2456
g857
tp7109
a(g1538
g857
tp7110
as(g205
g4579
tp7111
(lp7112
(g209
g4579
tp7113
as(S'untidy'
p7114
g4776
tp7115
(lp7116
(S'tidy'
p7117
g4776
tp7118
as(g559
g804
tp7119
(lp7120
(g563
g804
tp7121
as(g23
S'babe'
p7122
tp7123
(lp7124
(g19
g7122
tp7125
as(g229
g2502
tp7126
(lp7127
(g233
g2502
tp7128
as(g2262
g862
tp7129
(lp7130
(g2266
g862
tp7131
a(g2268
g862
tp7132
as(g357
S'hoax'
p7133
tp7134
(lp7135
(g349
g7133
tp7136
as(g229
S'street_fighter'
p7137
tp7138
(lp7139
(g233
g7137
tp7140
as(g227
S'herring'
p7141
tp7142
(lp7143
(g223
g7141
tp7144
a(g768
g7141
tp7145
a(g770
g7141
tp7146
as(S'unformed'
p7147
g7122
tp7148
(lp7149
(S'formed'
p7150
g7122
tp7151
as(g137
g521
tp7152
(lp7153
(g141
g521
tp7154
a(g143
g521
tp7155
a(g145
g521
tp7156
as(g137
g3194
tp7157
(lp7158
(g141
g3194
tp7159
a(g143
g3194
tp7160
a(g145
g3194
tp7161
as(g290
S'mussel'
p7162
tp7163
(lp7164
(g286
g7162
tp7165
a(g493
g7162
tp7166
as(g137
g4559
tp7167
(lp7168
(g141
g4559
tp7169
a(g143
g4559
tp7170
a(g145
g4559
tp7171
as(g93
S'wood_chisel'
p7172
tp7173
(lp7174
(g97
g7172
tp7175
a(g99
g7172
tp7176
a(g101
g7172
tp7177
as(g5
g2336
tp7178
(lp7179
(g1
g2336
tp7180
as(g93
S'banana'
p7181
tp7182
(lp7183
(g97
g7181
tp7184
a(g99
g7181
tp7185
a(g101
g7181
tp7186
as(g137
g5264
tp7187
(lp7188
(g141
g5264
tp7189
a(g143
g5264
tp7190
a(g145
g5264
tp7191
as(g270
g1307
tp7192
(lp7193
(g274
g1307
tp7194
as(g118
g1217
tp7195
(lp7196
(g114
g1217
tp7197
as(g7
g1554
tp7198
(lp7199
(g11
g1554
tp7200
as(g189
S'sniper'
p7201
tp7202
(lp7203
(g193
g7201
tp7204
a(g195
g7201
tp7205
as(S'substantive'
p7206
S'burger'
p7207
tp7208
(lp7209
(S'adjective'
p7210
g7207
tp7211
as(g114
g1585
tp7212
(lp7213
(g118
g1585
tp7214
as(g571
g5763
tp7215
(lp7216
(g25
g5763
tp7217
as(g114
S'pocket_calculator'
p7218
tp7219
(lp7220
(g118
g7218
tp7221
as(g370
g1131
tp7222
(lp7223
(g374
g1131
tp7224
as(g189
g2593
tp7225
(lp7226
(g193
g2593
tp7227
a(g195
g2593
tp7228
as(g2450
S'prosthesis'
p7229
tp7230
(lp7231
(g2454
g7229
tp7232
a(g2456
g7229
tp7233
a(g1538
g7229
tp7234
as(g357
g66
tp7235
(lp7236
(g349
g66
tp7237
as(g723
S'doctor'
p7238
tp7239
(lp7240
(g727
g7238
tp7241
as(g374
S'unicycle'
p7242
tp7243
(lp7244
(g370
g7242
tp7245
as(g57
g5213
tp7246
(lp7247
(g53
g5213
tp7248
as(g7
g302
tp7249
(lp7250
(g11
g302
tp7251
as(g286
g862
tp7252
(lp7253
(g290
g862
tp7254
a(g292
g862
tp7255
a(g294
g862
tp7256
a(g296
g862
tp7257
a(g298
g862
tp7258
a(g300
g862
tp7259
as(g120
g5480
tp7260
(lp7261
(g124
g5480
tp7262
as(g27
g2283
tp7263
(lp7264
(g31
g2283
tp7265
a(g33
g2283
tp7266
as(g396
g4098
tp7267
(lp7268
(g392
g4098
tp7269
as(g143
S'shag_rug'
p7270
tp7271
(lp7272
(g137
g7270
tp7273
a(g451
g7270
tp7274
a(g453
g7270
tp7275
a(g455
g7270
tp7276
a(g457
g7270
tp7277
as(g137
g489
tp7278
(lp7279
(g141
g489
tp7280
a(g143
g489
tp7281
a(g145
g489
tp7282
as(g2638
g121
tp7283
(lp7284
(g2642
g121
tp7285
as(g93
g3255
tp7286
(lp7287
(g97
g3255
tp7288
a(g99
g3255
tp7289
a(g101
g3255
tp7290
as(g300
S'dormouse'
p7291
tp7292
(lp7293
(g286
g7291
tp7294
as(g197
S'string'
p7295
tp7296
(lp7297
(g201
g7295
tp7298
a(g203
g7295
tp7299
as(g370
g1854
tp7300
(lp7301
(g374
g1854
tp7302
as(g571
g5828
tp7303
(lp7304
(g25
g5828
tp7305
as(g547
g5072
tp7306
(lp7307
(g551
g5072
tp7308
a(g553
g5072
tp7309
as(g130
S'watch'
p7310
tp7311
(lp7312
(g126
g7310
tp7313
as(g349
S'swiss_cheese'
p7314
tp7315
(lp7316
(g353
g7314
tp7317
a(g355
g7314
tp7318
a(g357
g7314
tp7319
as(g65
S'louse'
p7320
tp7321
(lp7322
(g69
g7320
tp7323
as(g396
g4932
tp7324
(lp7325
(g392
g4932
tp7326
as(g197
S'slipper'
p7327
tp7328
(lp7329
(g201
g7327
tp7330
a(g203
g7327
tp7331
as(g114
g6611
tp7332
(lp7333
(g118
g6611
tp7334
as(g968
g1318
tp7335
(lp7336
(g972
g1318
tp7337
as(g1154
g1751
tp7338
(lp7339
(g1157
g1751
tp7340
as(g262
S'poem'
p7341
tp7342
(lp7343
(g266
g7341
tp7344
a(g268
g7341
tp7345
as(g88
S'berry'
p7346
tp7347
(lp7348
(g91
g7346
tp7349
as(g7147
S'newborn'
p7350
tp7351
(lp7352
(g7150
g7350
tp7353
as(g1798
S'honeycomb'
p7354
tp7355
(lp7356
(g1802
g7354
tp7357
as(g274
g936
tp7358
(lp7359
(g270
g936
tp7360
a(g540
g936
tp7361
as(g53
g2349
tp7362
(lp7363
(g57
g2349
tp7364
a(g59
g2349
tp7365
a(g61
g2349
tp7366
a(g63
g2349
tp7367
as(g559
g3917
tp7368
(lp7369
(g563
g3917
tp7370
as(g370
g674
tp7371
(lp7372
(g374
g674
tp7373
as(g370
g963
tp7374
(lp7375
(g374
g963
tp7376
as(g65
S'crab'
p7377
tp7378
(lp7379
(g69
g7377
tp7380
as(g466
g8
tp7381
(lp7382
(g470
g8
tp7383
as(g19
g1580
tp7384
(lp7385
(g23
g1580
tp7386
a(g25
g1580
tp7387
as(g143
g3917
tp7388
(lp7389
(g137
g3917
tp7390
a(g451
g3917
tp7391
a(g453
g3917
tp7392
a(g455
g3917
tp7393
a(g457
g3917
tp7394
as(g392
S'sandbag'
p7395
tp7396
(lp7397
(g396
g7395
tp7398
a(g39
g7395
tp7399
as(g274
g2611
tp7400
(lp7401
(g270
g2611
tp7402
a(g540
g2611
tp7403
as(g35
S'monk'
p7404
tp7405
(lp7406
(g39
g7404
tp7407
a(g41
g7404
tp7408
as(g1534
S'anchovy'
p7409
tp7410
(lp7411
(g1538
g7409
tp7412
as(g571
g8
tp7413
(lp7414
(g25
g8
tp7415
as(g211
S'tissue'
p7416
tp7417
(lp7418
(g215
g7416
tp7419
as(g994
S'boy'
p7420
tp7421
(lp7422
(g998
g7420
tp7423
as(g1154
S'earthworm'
p7424
tp7425
(lp7426
(g1157
g7424
tp7427
as(g147
S'cement_mixer'
p7428
tp7429
(lp7430
(g151
g7428
tp7431
a(g153
g7428
tp7432
as(g19
g824
tp7433
(lp7434
(g23
g824
tp7435
a(g25
g824
tp7436
as(g76
g958
tp7437
(lp7438
(g80
g958
tp7439
a(g82
g958
tp7440
as(g43
g7346
tp7441
(lp7442
(g47
g7346
tp7443
a(g49
g7346
tp7444
a(g51
g7346
tp7445
as(g520
S'mackerel'
p7446
tp7447
(lp7448
(g524
g7446
tp7449
a(g526
g7446
tp7450
as(g759
S'monolith'
p7451
tp7452
(lp7453
(g762
g7451
tp7454
as(g76
g282
tp7455
(lp7456
(g80
g282
tp7457
a(g82
g282
tp7458
as(g137
S'steel_plate'
p7459
tp7460
(lp7461
(g141
g7459
tp7462
a(g143
g7459
tp7463
a(g145
g7459
tp7464
as(g3801
S'exhaust_pipe'
p7465
tp7466
(lp7467
(g3804
g7465
tp7468
as(g147
g2131
tp7469
(lp7470
(g151
g2131
tp7471
a(g153
g2131
tp7472
as(g53
S'gun_barrel'
p7473
tp7474
(lp7475
(g57
g7473
tp7476
a(g59
g7473
tp7477
a(g61
g7473
tp7478
a(g63
g7473
tp7479
as(g173
g2593
tp7480
(lp7481
(g177
g2593
tp7482
as(g189
S'crypt'
p7483
tp7484
(lp7485
(g193
g7483
tp7486
a(g195
g7483
tp7487
as(g215
g335
tp7488
(lp7489
(g211
g335
tp7490
a(g596
g335
tp7491
as(g53
g7083
tp7492
(lp7493
(g57
g7083
tp7494
a(g59
g7083
tp7495
a(g61
g7083
tp7496
a(g63
g7083
tp7497
as(g300
S'doormat'
p7498
tp7499
(lp7500
(g286
g7498
tp7501
as(g93
g3421
tp7502
(lp7503
(g97
g3421
tp7504
a(g99
g3421
tp7505
a(g101
g3421
tp7506
as(g215
S'jeep'
p7507
tp7508
(lp7509
(g211
g7507
tp7510
a(g596
g7507
tp7511
as(g65
S'pug'
p7512
tp7513
(lp7514
(g69
g7512
tp7515
as(g547
g824
tp7516
(lp7517
(g551
g824
tp7518
a(g553
g824
tp7519
as(g1426
S'sportsman'
p7520
tp7521
(lp7522
(g1429
g7520
tp7523
as(g118
S'cripple'
p7524
tp7525
(lp7526
(g114
g7524
tp7527
as(g7
g1229
tp7528
(lp7529
(g11
g1229
tp7530
as(g93
S'spatula'
p7531
tp7532
(lp7533
(g97
g7531
tp7534
a(g99
g7531
tp7535
a(g101
g7531
tp7536
as(g53
g5217
tp7537
(lp7538
(g57
g5217
tp7539
a(g59
g5217
tp7540
a(g61
g5217
tp7541
a(g63
g5217
tp7542
as(g370
g909
tp7543
(lp7544
(g374
g909
tp7545
as(g349
g1122
tp7546
(lp7547
(g353
g1122
tp7548
a(g355
g1122
tp7549
a(g357
g1122
tp7550
as(g2450
S'documentary'
p7551
tp7552
(lp7553
(g2454
g7551
tp7554
a(g2456
g7551
tp7555
a(g1538
g7551
tp7556
as(g31
S'doornail'
p7557
tp7558
(lp7559
(g27
g7557
tp7560
a(g1063
g7557
tp7561
as(g43
g5678
tp7562
(lp7563
(g47
g5678
tp7564
a(g49
g5678
tp7565
a(g51
g5678
tp7566
as(g229
S'swine'
p7567
tp7568
(lp7569
(g233
g7567
tp7570
as(g101
S'songbird'
p7571
tp7572
(lp7573
(g655
g7571
tp7574
a(g657
g7571
tp7575
a(g659
g7571
tp7576
a(g99
g7571
tp7577
a(g93
g7571
tp7578
as(g392
S'harvest_moon'
p7579
tp7580
(lp7581
(g396
g7579
tp7582
a(g39
g7579
tp7583
as(g3685
S'tumor'
p7584
tp7585
(lp7586
(g3689
g7584
tp7587
as(g120
g1874
tp7588
(lp7589
(g124
g1874
tp7590
as(g856
g1251
tp7591
(lp7592
(g860
g1251
tp7593
as(g120
g415
tp7594
(lp7595
(g124
g415
tp7596
as(g4004
g3220
tp7597
(lp7598
(g4008
g3220
tp7599
as(g23
g3677
tp7600
(lp7601
(g19
g3677
tp7602
as(g120
g1447
tp7603
(lp7604
(g124
g1447
tp7605
as(g76
S'barnacle'
p7606
tp7607
(lp7608
(g80
g7606
tp7609
a(g82
g7606
tp7610
as(g270
g6106
tp7611
(lp7612
(g274
g6106
tp7613
as(g120
g702
tp7614
(lp7615
(g124
g702
tp7616
as(g1426
g2026
tp7617
(lp7618
(g1429
g2026
tp7619
as(g223
S'rain'
p7620
tp7621
(lp7622
(g227
g7620
tp7623
as(S'homogenous'
p7624
g467
tp7625
(lp7626
(g819
g467
tp7627
as(g7
S'cell_wall'
p7628
tp7629
(lp7630
(g11
g7628
tp7631
as(g19
S'bomb_shelter'
p7632
tp7633
(lp7634
(g23
g7632
tp7635
a(g25
g7632
tp7636
as(g130
g2656
tp7637
(lp7638
(g126
g2656
tp7639
as(g1403
S'boy_scout'
p7640
tp7641
(lp7642
(g1407
g7640
tp7643
as(g357
S'jackolantern'
p7644
tp7645
(lp7646
(g349
g7644
tp7647
as(g120
g4677
tp7648
(lp7649
(g124
g4677
tp7650
as(g1036
g2328
tp7651
(lp7652
(g1040
g2328
tp7653
as(g120
g399
tp7654
(lp7655
(g124
g399
tp7656
as(g2501
g1197
tp7657
(lp7658
(g2505
g1197
tp7659
a(g2507
g1197
tp7660
as(g19
S'mountaineer'
p7661
tp7662
(lp7663
(g23
g7661
tp7664
a(g25
g7661
tp7665
as(g118
g1318
tp7666
(lp7667
(g114
g1318
tp7668
as(g130
g28
tp7669
(lp7670
(g126
g28
tp7671
as(g114
g5051
tp7672
(lp7673
(g118
g5051
tp7674
as(g205
g1799
tp7675
(lp7676
(g209
g1799
tp7677
as(g223
S'marsh'
p7678
tp7679
(lp7680
(g227
g7678
tp7681
as(g2147
g5603
tp7682
(lp7683
(g2151
g5603
tp7684
a(g2153
g5603
tp7685
as(g65
S'mud'
p7686
tp7687
(lp7688
(g69
g7686
tp7689
as(g197
g399
tp7690
(lp7691
(g201
g399
tp7692
a(g203
g399
tp7693
as(g197
S'hairpin'
p7694
tp7695
(lp7696
(g201
g7694
tp7697
a(g203
g7694
tp7698
as(g2748
S'artisan'
p7699
tp7700
(lp7701
(g2752
g7699
tp7702
as(g211
g1710
tp7703
(lp7704
(g215
g1710
tp7705
as(g19
g5334
tp7706
(lp7707
(g23
g5334
tp7708
a(g25
g5334
tp7709
as(g143
g2497
tp7710
(lp7711
(g137
g2497
tp7712
a(g451
g2497
tp7713
a(g453
g2497
tp7714
a(g455
g2497
tp7715
a(g457
g2497
tp7716
as(g1615
S'typhoon'
p7717
tp7718
(lp7719
(g1619
g7717
tp7720
as(g396
g4437
tp7721
(lp7722
(g392
g4437
tp7723
as(g19
S'atom_bomb'
p7724
tp7725
(lp7726
(g23
g7724
tp7727
a(g25
g7724
tp7728
as(g130
g8
tp7729
(lp7730
(g126
g8
tp7731
as(g968
S'centipede'
p7732
tp7733
(lp7734
(g972
g7732
tp7735
as(g625
S'fiddler'
p7736
tp7737
(lp7738
(g97
g7736
tp7739
as(g5
g2459
tp7740
(lp7741
(g1
g2459
tp7742
as(g520
S'mullet'
p7743
tp7744
(lp7745
(g524
g7743
tp7746
a(g526
g7743
tp7747
as(g7206
g4803
tp7748
(lp7749
(g7210
g4803
tp7750
as(g759
g156
tp7751
(lp7752
(g762
g156
tp7753
as(g472
S'library_catalog'
p7754
tp7755
(lp7756
(g476
g7754
tp7757
as(g370
g1390
tp7758
(lp7759
(g374
g1390
tp7760
as(g197
g6747
tp7761
(lp7762
(g201
g6747
tp7763
a(g203
g6747
tp7764
as(g19
g7717
tp7765
(lp7766
(g23
g7717
tp7767
a(g25
g7717
tp7768
as(g114
g3870
tp7769
(lp7770
(g118
g3870
tp7771
as(g53
S'chopstick'
p7772
tp7773
(lp7774
(g57
g7772
tp7775
a(g59
g7772
tp7776
a(g61
g7772
tp7777
a(g63
g7772
tp7778
as(g695
g691
tp7779
(lp7780
(g699
g691
tp7781
as(g143
g2414
tp7782
(lp7783
(g137
g2414
tp7784
a(g451
g2414
tp7785
a(g453
g2414
tp7786
a(g455
g2414
tp7787
a(g457
g2414
tp7788
as(S'ill'
p7789
g2283
tp7790
(lp7791
(g1624
g2283
tp7792
as(g856
g7632
tp7793
(lp7794
(g860
g7632
tp7795
as(g120
g2934
tp7796
(lp7797
(g124
g2934
tp7798
as(g76
g156
tp7799
(lp7800
(g80
g156
tp7801
a(g82
g156
tp7802
as(g27
g3792
tp7803
(lp7804
(g31
g3792
tp7805
a(g33
g3792
tp7806
as(g2748
S'artist'
p7807
tp7808
(lp7809
(g2752
g7807
tp7810
as(g211
g3194
tp7811
(lp7812
(g215
g3194
tp7813
as(g223
S'sop'
p7814
tp7815
(lp7816
(g227
g7814
tp7817
as(g7
S'logic_diagram'
p7818
tp7819
(lp7820
(g11
g7818
tp7821
as(g53
g2030
tp7822
(lp7823
(g57
g2030
tp7824
a(g59
g2030
tp7825
a(g61
g2030
tp7826
a(g63
g2030
tp7827
as(g1426
g2982
tp7828
(lp7829
(g1429
g2982
tp7830
as(g205
g2436
tp7831
(lp7832
(g209
g2436
tp7833
as(g270
S'destroyer'
p7834
tp7835
(lp7836
(g274
g7834
tp7837
as(g657
g800
tp7838
(lp7839
(g101
g800
tp7840
as(g7
S'tax_form'
p7841
tp7842
(lp7843
(g11
g7841
tp7844
as(g357
g954
tp7845
(lp7846
(g349
g954
tp7847
as(g2262
g7181
tp7848
(lp7849
(g2266
g7181
tp7850
a(g2268
g7181
tp7851
as(g274
S'pebble'
p7852
tp7853
(lp7854
(g270
g7852
tp7855
a(g540
g7852
tp7856
as(g520
g3338
tp7857
(lp7858
(g524
g3338
tp7859
a(g526
g3338
tp7860
as(g1621
g3382
tp7861
(lp7862
(g1624
g3382
tp7863
as(g114
S'comet'
p7864
tp7865
(lp7866
(g118
g7864
tp7867
as(g3507
S'snowman'
p7868
tp7869
(lp7870
(g3510
g7868
tp7871
as(g520
S'dictionary'
p7872
tp7873
(lp7874
(g524
g7872
tp7875
a(g526
g7872
tp7876
as(g7
S'clamp'
p7877
tp7878
(lp7879
(g11
g7877
tp7880
as(g19
g746
tp7881
(lp7882
(g23
g746
tp7883
a(g25
g746
tp7884
as(g93
S'dart'
p7885
tp7886
(lp7887
(g97
g7885
tp7888
a(g99
g7885
tp7889
a(g101
g7885
tp7890
as(g93
S'razorblade'
p7891
tp7892
(lp7893
(g97
g7891
tp7894
a(g99
g7891
tp7895
a(g101
g7891
tp7896
as(g65
g4621
tp7897
(lp7898
(g69
g4621
tp7899
as(g270
g4481
tp7900
(lp7901
(g274
g4481
tp7902
as(g571
g663
tp7903
(lp7904
(g25
g663
tp7905
as(g270
g2323
tp7906
(lp7907
(g274
g2323
tp7908
as(g396
S'ghost_town'
p7909
tp7910
(lp7911
(g392
g7909
tp7912
as(g370
g1689
tp7913
(lp7914
(g374
g1689
tp7915
as(g1807
S'megaton_bomb'
p7916
tp7917
(lp7918
(g1811
g7916
tp7919
as(g274
g5307
tp7920
(lp7921
(g270
g5307
tp7922
a(g540
g5307
tp7923
as(g705
S'queen_bee'
p7924
tp7925
(lp7926
(g701
g7924
tp7927
as(g159
g271
tp7928
(lp7929
(g155
g271
tp7930
as(g1778
S'kudzu_vine'
p7931
tp7932
(lp7933
(g1782
g7931
tp7934
as(g19
g302
tp7935
(lp7936
(g23
g302
tp7937
a(g25
g302
tp7938
as(g559
S'pike'
p7939
tp7940
(lp7941
(g563
g7939
tp7942
as(g23
g2551
tp7943
(lp7944
(g19
g2551
tp7945
as(g53
S'arrow'
p7946
tp7947
(lp7948
(g57
g7946
tp7949
a(g59
g7946
tp7950
a(g61
g7946
tp7951
a(g63
g7946
tp7952
as(g5
g963
tp7953
(lp7954
(g1
g963
tp7955
as(g625
S'nightingale'
p7956
tp7957
(lp7958
(g97
g7956
tp7959
as(g1451
g3086
tp7960
(lp7961
(g1455
g3086
tp7962
as(g5447
S'trickle'
p7963
tp7964
(lp7965
(g5450
g7963
tp7966
a(g5452
g7963
tp7967
as(g143
g3215
tp7968
(lp7969
(g137
g3215
tp7970
a(g451
g3215
tp7971
a(g453
g3215
tp7972
a(g455
g3215
tp7973
a(g457
g3215
tp7974
as(g547
g630
tp7975
(lp7976
(g551
g630
tp7977
a(g553
g630
tp7978
as(g286
S'monkey'
p7979
tp7980
(lp7981
(g290
g7979
tp7982
a(g292
g7979
tp7983
a(g294
g7979
tp7984
a(g296
g7979
tp7985
a(g298
g7979
tp7986
a(g300
g7979
tp7987
as(g137
g1283
tp7988
(lp7989
(g141
g1283
tp7990
a(g143
g1283
tp7991
a(g145
g1283
tp7992
as(g1798
S'stampede'
p7993
tp7994
(lp7995
(g1802
g7993
tp7996
as(g723
g7584
tp7997
(lp7998
(g727
g7584
tp7999
as(g120
g8
tp8000
(lp8001
(g124
g8
tp8002
as(g19
S'daisy_cutter'
p8003
tp8004
(lp8005
(g23
g8003
tp8006
a(g25
g8003
tp8007
as(g1
S'worker_bee'
p8008
tp8009
(lp8010
(g5
g8008
tp8011
as(g19
g1054
tp8012
(lp8013
(g23
g1054
tp8014
a(g25
g1054
tp8015
as(g1332
g1447
tp8016
(lp8017
(g1335
g1447
tp8018
as(g101
S'toupee'
p8019
tp8020
(lp8021
(g655
g8019
tp8022
a(g657
g8019
tp8023
a(g659
g8019
tp8024
a(g99
g8019
tp8025
a(g93
g8019
tp8026
as(g211
g5077
tp8027
(lp8028
(g215
g5077
tp8029
as(g19
g811
tp8030
(lp8031
(g23
g811
tp8032
a(g25
g811
tp8033
as(g159
g1209
tp8034
(lp8035
(g155
g1209
tp8036
as(g2748
g3086
tp8037
(lp8038
(g2752
g3086
tp8039
as(g723
S'bra'
p8040
tp8041
(lp8042
(g727
g8040
tp8043
as(g137
g4790
tp8044
(lp8045
(g141
g4790
tp8046
a(g143
g4790
tp8047
a(g145
g4790
tp8048
as(g270
g2611
tp8049
(lp8050
(g274
g2611
tp8051
as(g35
g5201
tp8052
(lp8053
(g39
g5201
tp8054
a(g41
g5201
tp8055
as(g93
g399
tp8056
(lp8057
(g97
g399
tp8058
a(g99
g399
tp8059
a(g101
g399
tp8060
as(g76
g2414
tp8061
(lp8062
(g80
g2414
tp8063
a(g82
g2414
tp8064
as(g547
g2656
tp8065
(lp8066
(g551
g2656
tp8067
a(g553
g2656
tp8068
as(g211
g3255
tp8069
(lp8070
(g215
g3255
tp8071
as(g19
g909
tp8072
(lp8073
(g23
g909
tp8074
a(g25
g909
tp8075
as(g2638
g536
tp8076
(lp8077
(g2642
g536
tp8078
as(g349
g241
tp8079
(lp8080
(g353
g241
tp8081
a(g355
g241
tp8082
a(g357
g241
tp8083
as(g76
g393
tp8084
(lp8085
(g80
g393
tp8086
a(g82
g393
tp8087
as(g93
g6976
tp8088
(lp8089
(g97
g6976
tp8090
a(g99
g6976
tp8091
a(g101
g6976
tp8092
as(g114
S'puma'
p8093
tp8094
(lp8095
(g118
g8093
tp8096
as(g19
S'wild_boar'
p8097
tp8098
(lp8099
(g23
g8097
tp8100
a(g25
g8097
tp8101
as(g1426
g1605
tp8102
(lp8103
(g1429
g1605
tp8104
as(g520
g691
tp8105
(lp8106
(g524
g691
tp8107
a(g526
g691
tp8108
as(g229
S'sewer_rat'
p8109
tp8110
(lp8111
(g233
g8109
tp8112
as(g76
S'tennis_racquet'
p8113
tp8114
(lp8115
(g80
g8113
tp8116
a(g82
g8113
tp8117
as(g736
g3293
tp8118
(lp8119
(g740
g3293
tp8120
as(g211
S'neurosurgeon'
p8121
tp8122
(lp8123
(g215
g8121
tp8124
as(g472
g5036
tp8125
(lp8126
(g476
g5036
tp8127
as(g159
g1307
tp8128
(lp8129
(g155
g1307
tp8130
as(g571
S'hardtop'
p8131
tp8132
(lp8133
(g25
g8131
tp8134
as(g472
g5603
tp8135
(lp8136
(g476
g5603
tp8137
as(g120
g277
tp8138
(lp8139
(g124
g277
tp8140
as(g2304
S'tightrope'
p8141
tp8142
(lp8143
(g2308
g8141
tp8144
a(g2310
g8141
tp8145
as(g114
g1015
tp8146
(lp8147
(g118
g1015
tp8148
as(g137
g3198
tp8149
(lp8150
(g141
g3198
tp8151
a(g143
g3198
tp8152
a(g145
g3198
tp8153
as(g211
g5507
tp8154
(lp8155
(g215
g5507
tp8156
as(g370
S'bride'
p8157
tp8158
(lp8159
(g374
g8157
tp8160
as(g374
g387
tp8161
(lp8162
(g370
g387
tp8163
as(g247
S'picture_postcard'
p8164
tp8165
(lp8166
(g251
g8164
tp8167
as(g571
g598
tp8168
(lp8169
(g25
g598
tp8170
as(g6081
S'rumor'
p8171
tp8172
(lp8173
(g6084
g8171
tp8174
as(g6577
S'birth'
p8175
tp8176
(lp8177
(g6581
g8175
tp8178
as(g2638
S'sigh'
p8179
tp8180
(lp8181
(g2642
g8179
tp8182
as(g274
S'grasshopper'
p8183
tp8184
(lp8185
(g270
g8183
tp8186
a(g540
g8183
tp8187
as(g19
g4780
tp8188
(lp8189
(g23
g4780
tp8190
a(g25
g4780
tp8191
as(g5244
g5744
tp8192
(lp8193
(g5248
g5744
tp8194
as(g118
g3139
tp8195
(lp8196
(g114
g3139
tp8197
as(g65
g3660
tp8198
(lp8199
(g69
g3660
tp8200
as(g43
g1059
tp8201
(lp8202
(g47
g1059
tp8203
a(g49
g1059
tp8204
a(g51
g1059
tp8205
as(g1778
g2782
tp8206
(lp8207
(g1782
g2782
tp8208
as(g520
S'stomach_pump'
p8209
tp8210
(lp8211
(g524
g8209
tp8212
a(g526
g8209
tp8213
as(g370
g4601
tp8214
(lp8215
(g374
g4601
tp8216
as(g53
g431
tp8217
(lp8218
(g57
g431
tp8219
a(g59
g431
tp8220
a(g61
g431
tp8221
a(g63
g431
tp8222
as(g19
g1515
tp8223
(lp8224
(g23
g1515
tp8225
a(g25
g1515
tp8226
as(g1046
S'manicure'
p8227
tp8228
(lp8229
(g1050
g8227
tp8230
a(g1052
g8227
tp8231
as(g23
g360
tp8232
(lp8233
(g19
g360
tp8234
as(g349
g3591
tp8235
(lp8236
(g353
g3591
tp8237
a(g355
g3591
tp8238
a(g357
g3591
tp8239
as(g114
S'missile'
p8240
tp8241
(lp8242
(g118
g8240
tp8243
as(g270
S'artillery_shell'
p8244
tp8245
(lp8246
(g274
g8244
tp8247
as(g120
g844
tp8248
(lp8249
(g124
g844
tp8250
as(g205
S'password'
p8251
tp8252
(lp8253
(g209
g8251
tp8254
as(g571
g2222
tp8255
(lp8256
(g25
g2222
tp8257
as(g472
S'root_canal'
p8258
tp8259
(lp8260
(g476
g8258
tp8261
as(g65
g230
tp8262
(lp8263
(g69
g230
tp8264
as(g31
g2559
tp8265
(lp8266
(g27
g2559
tp8267
a(g1063
g2559
tp8268
as(g520
S'hairball'
p8269
tp8270
(lp8271
(g524
g8269
tp8272
a(g526
g8269
tp8273
as(g189
g2374
tp8274
(lp8275
(g193
g2374
tp8276
a(g195
g2374
tp8277
as(g1798
S'lattice'
p8278
tp8279
(lp8280
(g1802
g8278
tp8281
as(g211
g2459
tp8282
(lp8283
(g215
g2459
tp8284
as(g159
g3698
tp8285
(lp8286
(g155
g3698
tp8287
as(g370
g1733
tp8288
(lp8289
(g374
g1733
tp8290
as(g559
S'pentagon'
p8291
tp8292
(lp8293
(g563
g8291
tp8294
as(g509
S'sport'
p8295
tp8296
(lp8297
(g512
g8295
tp8298
as(g137
S'tire_iron'
p8299
tp8300
(lp8301
(g141
g8299
tp8302
a(g143
g8299
tp8303
a(g145
g8299
tp8304
as(g7206
g4190
tp8305
(lp8306
(g7210
g4190
tp8307
as(g118
S'hearse'
p8308
tp8309
(lp8310
(g114
g8308
tp8311
as(g35
S'ballpoint_pen'
p8312
tp8313
(lp8314
(g39
g8312
tp8315
a(g41
g8312
tp8316
as(g120
g2991
tp8317
(lp8318
(g124
g2991
tp8319
as(g201
g4057
tp8320
(lp8321
(g197
g4057
tp8322
a(g177
g4057
tp8323
as(g1704
S'grapefruit'
p8324
tp8325
(lp8326
(g1708
g8324
tp8327
as(g23
S'pygmy'
p8328
tp8329
(lp8330
(g19
g8328
tp8331
as(g114
g3903
tp8332
(lp8333
(g118
g3903
tp8334
as(g559
g5775
tp8335
(lp8336
(g563
g5775
tp8337
as(g76
g1510
tp8338
(lp8339
(g80
g1510
tp8340
a(g82
g1510
tp8341
as(g19
S'striker'
p8342
tp8343
(lp8344
(g23
g8342
tp8345
a(g25
g8342
tp8346
as(g3685
S'tapeworm'
p8347
tp8348
(lp8349
(g3689
g8347
tp8350
as(g233
S'nun'
p8351
tp8352
(lp8353
(g229
g8351
tp8354
a(g239
g8351
tp8355
as(g120
g1482
tp8356
(lp8357
(g124
g1482
tp8358
as(g994
S'girdle'
p8359
tp8360
(lp8361
(g998
g8359
tp8362
as(g355
S'money_market'
p8363
tp8364
(lp8365
(g353
g8363
tp8366
a(g349
g8363
tp8367
a(g483
g8363
tp8368
as(g19
S'superman'
p8369
tp8370
(lp8371
(g23
g8369
tp8372
a(g25
g8369
tp8373
as(g120
g350
tp8374
(lp8375
(g124
g350
tp8376
as(g968
g3870
tp8377
(lp8378
(g972
g3870
tp8379
as(g5
g1181
tp8380
(lp8381
(g1
g1181
tp8382
as(g547
g1374
tp8383
(lp8384
(g551
g1374
tp8385
a(g553
g1374
tp8386
as(g53
S'rake'
p8387
tp8388
(lp8389
(g57
g8387
tp8390
a(g59
g8387
tp8391
a(g61
g8387
tp8392
a(g63
g8387
tp8393
as(g173
g737
tp8394
(lp8395
(g177
g737
tp8396
as(g118
S'granny'
p8397
tp8398
(lp8399
(g114
g8397
tp8400
as(g223
g8109
tp8401
(lp8402
(g227
g8109
tp8403
as(g27
g1303
tp8404
(lp8405
(g31
g1303
tp8406
a(g33
g1303
tp8407
as(g856
g3756
tp8408
(lp8409
(g860
g3756
tp8410
as(g65
S'tiger_shark'
p8411
tp8412
(lp8413
(g69
g8411
tp8414
as(g392
S'tick'
p8415
tp8416
(lp8417
(g396
g8415
tp8418
a(g39
g8415
tp8419
as(g120
g3955
tp8420
(lp8421
(g124
g3955
tp8422
as(g93
S'cudgel'
p8423
tp8424
(lp8425
(g97
g8423
tp8426
a(g99
g8423
tp8427
a(g101
g8423
tp8428
as(g93
g3681
tp8429
(lp8430
(g97
g3681
tp8431
a(g99
g3681
tp8432
a(g101
g3681
tp8433
as(g3659
g3495
tp8434
(lp8435
(g3663
g3495
tp8436
as(g120
S'matron'
p8437
tp8438
(lp8439
(g124
g8437
tp8440
as(g1534
S'sitcom'
p8441
tp8442
(lp8443
(g1538
g8441
tp8444
as(g856
g277
tp8445
(lp8446
(g860
g277
tp8447
as(g197
S'yogi'
p8448
tp8449
(lp8450
(g201
g8448
tp8451
a(g203
g8448
tp8452
as(g274
g2765
tp8453
(lp8454
(g270
g2765
tp8455
a(g540
g2765
tp8456
as(g197
S'noodle'
p8457
tp8458
(lp8459
(g201
g8457
tp8460
a(g203
g8457
tp8461
as(g65
S'harp_seal'
p8462
tp8463
(lp8464
(g69
g8462
tp8465
as(g349
g1188
tp8466
(lp8467
(g353
g1188
tp8468
a(g355
g1188
tp8469
a(g357
g1188
tp8470
as(g76
g8359
tp8471
(lp8472
(g80
g8359
tp8473
a(g82
g8359
tp8474
as(g270
S'bus'
p8475
tp8476
(lp8477
(g274
g8475
tp8478
as(g35
g1868
tp8479
(lp8480
(g39
g1868
tp8481
a(g41
g1868
tp8482
as(g349
g2716
tp8483
(lp8484
(g353
g2716
tp8485
a(g355
g2716
tp8486
a(g357
g2716
tp8487
as(g571
g6400
tp8488
(lp8489
(g25
g6400
tp8490
as(g439
S'goldfish_bowl'
p8491
tp8492
(lp8493
(g443
g8491
tp8494
a(g445
g8491
tp8495
as(g147
g2001
tp8496
(lp8497
(g151
g2001
tp8498
a(g153
g2001
tp8499
as(g19
g844
tp8500
(lp8501
(g23
g844
tp8502
a(g25
g844
tp8503
as(g2450
g2639
tp8504
(lp8505
(g2454
g2639
tp8506
a(g2456
g2639
tp8507
a(g1538
g2639
tp8508
as(g472
g804
tp8509
(lp8510
(g476
g804
tp8511
as(g19
S'twister'
p8512
tp8513
(lp8514
(g23
g8512
tp8515
a(g25
g8512
tp8516
as(g7
g6150
tp8517
(lp8518
(g11
g6150
tp8519
as(g509
g1322
tp8520
(lp8521
(g512
g1322
tp8522
as(g386
g6438
tp8523
(lp8524
(g390
g6438
tp8525
as(g994
S'girl'
p8526
tp8527
(lp8528
(g998
g8526
tp8529
as(g159
g1149
tp8530
(lp8531
(g155
g1149
tp8532
as(g2147
S'jelly_bean'
p8533
tp8534
(lp8535
(g2151
g8533
tp8536
a(g2153
g8533
tp8537
as(g856
g2611
tp8538
(lp8539
(g860
g2611
tp8540
as(g3685
g3372
tp8541
(lp8542
(g3689
g3372
tp8543
as(g571
g8387
tp8544
(lp8545
(g25
g8387
tp8546
as(g53
g6170
tp8547
(lp8548
(g57
g6170
tp8549
a(g59
g6170
tp8550
a(g61
g6170
tp8551
a(g63
g6170
tp8552
as(g4004
S'richelieu'
p8553
tp8554
(lp8555
(g4008
g8553
tp8556
as(g370
g3220
tp8557
(lp8558
(g374
g3220
tp8559
as(g53
g4654
tp8560
(lp8561
(g57
g4654
tp8562
a(g59
g4654
tp8563
a(g61
g4654
tp8564
a(g63
g4654
tp8565
as(g53
g2526
tp8566
(lp8567
(g57
g2526
tp8568
a(g59
g2526
tp8569
a(g61
g2526
tp8570
a(g63
g2526
tp8571
as(g1704
g7181
tp8572
(lp8573
(g1708
g7181
tp8574
as(g35
g28
tp8575
(lp8576
(g39
g28
tp8577
a(g41
g28
tp8578
as(g31
g8
tp8579
(lp8580
(g27
g8
tp8581
a(g1063
g8
tp8582
as(g571
S'crutch'
p8583
tp8584
(lp8585
(g25
g8583
tp8586
as(g101
S'bowel_movement'
p8587
tp8588
(lp8589
(g655
g8587
tp8590
a(g657
g8587
tp8591
a(g659
g8587
tp8592
a(g99
g8587
tp8593
a(g93
g8587
tp8594
as(g88
g2622
tp8595
(lp8596
(g91
g2622
tp8597
as(g2147
g3870
tp8598
(lp8599
(g2151
g3870
tp8600
a(g2153
g3870
tp8601
as(g472
S'supercomputer'
p8602
tp8603
(lp8604
(g476
g8602
tp8605
as(g659
S'grace'
p8606
tp8607
(lp8608
(g101
g8606
tp8609
as(g270
g6611
tp8610
(lp8611
(g274
g6611
tp8612
as(g370
S'antelope'
p8613
tp8614
(lp8615
(g374
g8613
tp8616
as(g286
g614
tp8617
(lp8618
(g290
g614
tp8619
a(g292
g614
tp8620
a(g294
g614
tp8621
a(g296
g614
tp8622
a(g298
g614
tp8623
a(g300
g614
tp8624
as(g370
g5201
tp8625
(lp8626
(g374
g5201
tp8627
as(g114
g5264
tp8628
(lp8629
(g118
g5264
tp8630
as(g2262
S'fishing_worm'
p8631
tp8632
(lp8633
(g2266
g8631
tp8634
a(g2268
g8631
tp8635
as(g211
S'blossom'
p8636
tp8637
(lp8638
(g215
g8636
tp8639
as(g233
S'truck_stop'
p8640
tp8641
(lp8642
(g229
g8640
tp8643
a(g239
g8640
tp8644
as(g472
S'fusion_reactor'
p8645
tp8646
(lp8647
(g476
g8645
tp8648
as(g143
g3743
tp8649
(lp8650
(g137
g3743
tp8651
a(g451
g3743
tp8652
a(g453
g3743
tp8653
a(g455
g3743
tp8654
a(g457
g3743
tp8655
as(g349
g3198
tp8656
(lp8657
(g353
g3198
tp8658
a(g355
g3198
tp8659
a(g357
g3198
tp8660
as(g120
S'cape_buffalo'
p8661
tp8662
(lp8663
(g124
g8661
tp8664
as(g659
S'miracle'
p8665
tp8666
(lp8667
(g101
g8665
tp8668
as(g2450
g2107
tp8669
(lp8670
(g2454
g2107
tp8671
a(g2456
g2107
tp8672
a(g1538
g2107
tp8673
as(g1046
g3599
tp8674
(lp8675
(g1050
g3599
tp8676
a(g1052
g3599
tp8677
as(g520
S'cruise_missile'
p8678
tp8679
(lp8680
(g524
g8678
tp8681
a(g526
g8678
tp8682
as(g695
S'broiler'
p8683
tp8684
(lp8685
(g699
g8683
tp8686
as(g27
g3139
tp8687
(lp8688
(g31
g3139
tp8689
a(g33
g3139
tp8690
as(g143
S'ear_lobe'
p8691
tp8692
(lp8693
(g137
g8691
tp8694
a(g451
g8691
tp8695
a(g453
g8691
tp8696
a(g455
g8691
tp8697
a(g457
g8691
tp8698
as(g286
S'squirrel'
p8699
tp8700
(lp8701
(g290
g8699
tp8702
a(g292
g8699
tp8703
a(g294
g8699
tp8704
a(g296
g8699
tp8705
a(g298
g8699
tp8706
a(g300
g8699
tp8707
as(g173
g3698
tp8708
(lp8709
(g177
g3698
tp8710
as(g3507
g1217
tp8711
(lp8712
(g3510
g1217
tp8713
as(g571
S'broomstick'
p8714
tp8715
(lp8716
(g25
g8714
tp8717
as(g215
g7428
tp8718
(lp8719
(g211
g7428
tp8720
a(g596
g7428
tp8721
as(g349
g3756
tp8722
(lp8723
(g353
g3756
tp8724
a(g355
g3756
tp8725
a(g357
g3756
tp8726
as(g53
S'chimney'
p8727
tp8728
(lp8729
(g57
g8727
tp8730
a(g59
g8727
tp8731
a(g61
g8727
tp8732
a(g63
g8727
tp8733
as(g23
g536
tp8734
(lp8735
(g19
g536
tp8736
as(g13
g419
tp8737
(lp8738
(g17
g419
tp8739
as(g114
S'bobsled'
p8740
tp8741
(lp8742
(g118
g8740
tp8743
as(g35
S'suckling_pig'
p8744
tp8745
(lp8746
(g39
g8744
tp8747
a(g41
g8744
tp8748
as(g53
g2587
tp8749
(lp8750
(g57
g2587
tp8751
a(g59
g2587
tp8752
a(g61
g2587
tp8753
a(g63
g2587
tp8754
as(g211
g5678
tp8755
(lp8756
(g215
g5678
tp8757
as(g93
g3215
tp8758
(lp8759
(g97
g3215
tp8760
a(g99
g3215
tp8761
a(g101
g3215
tp8762
as(g723
S'wife'
p8763
tp8764
(lp8765
(g727
g8763
tp8766
as(g93
S'awl'
p8767
tp8768
(lp8769
(g97
g8767
tp8770
a(g99
g8767
tp8771
a(g101
g8767
tp8772
as(g23
g4951
tp8773
(lp8774
(g19
g4951
tp8775
as(g520
S'chick'
p8776
tp8777
(lp8778
(g524
g8776
tp8779
a(g526
g8776
tp8780
as(g856
g4046
tp8781
(lp8782
(g860
g4046
tp8783
as(g229
S'ditch_digger'
p8784
tp8785
(lp8786
(g233
g8784
tp8787
as(g1534
S'entree'
p8788
tp8789
(lp8790
(g1538
g8788
tp8791
as(g370
S'ballet_dancer'
p8792
tp8793
(lp8794
(g374
g8792
tp8795
as(g93
g1149
tp8796
(lp8797
(g97
g1149
tp8798
a(g99
g1149
tp8799
a(g101
g1149
tp8800
as(g349
S'shield'
p8801
tp8802
(lp8803
(g353
g8801
tp8804
a(g355
g8801
tp8805
a(g357
g8801
tp8806
as(g43
S'rose'
p8807
tp8808
(lp8809
(g47
g8807
tp8810
a(g49
g8807
tp8811
a(g51
g8807
tp8812
as(g370
g3243
tp8813
(lp8814
(g374
g3243
tp8815
as(g723
g5425
tp8816
(lp8817
(g727
g5425
tp8818
as(g370
g5832
tp8819
(lp8820
(g374
g5832
tp8821
as(g93
g4258
tp8822
(lp8823
(g97
g4258
tp8824
a(g99
g4258
tp8825
a(g101
g4258
tp8826
as(g223
g7141
tp8827
(lp8828
(g227
g7141
tp8829
as(g705
g891
tp8830
(lp8831
(g701
g891
tp8832
as(g695
S'pumpkin_seed'
p8833
tp8834
(lp8835
(g699
g8833
tp8836
as(g233
g2551
tp8837
(lp8838
(g229
g2551
tp8839
a(g239
g2551
tp8840
as(g370
S'swordsman'
p8841
tp8842
(lp8843
(g374
g8841
tp8844
as(g197
g2358
tp8845
(lp8846
(g201
g2358
tp8847
a(g203
g2358
tp8848
as(g159
g1104
tp8849
(lp8850
(g155
g1104
tp8851
as(g270
g5876
tp8852
(lp8853
(g274
g5876
tp8854
as(g571
g3955
tp8855
(lp8856
(g25
g3955
tp8857
as(g35
g746
tp8858
(lp8859
(g39
g746
tp8860
a(g41
g746
tp8861
as(g2748
g1632
tp8862
(lp8863
(g2752
g1632
tp8864
as(g53
g7885
tp8865
(lp8866
(g57
g7885
tp8867
a(g59
g7885
tp8868
a(g61
g7885
tp8869
a(g63
g7885
tp8870
as(g126
g8
tp8871
(lp8872
(g130
g8
tp8873
as(g571
g3139
tp8874
(lp8875
(g25
g3139
tp8876
as(g571
S'broom'
p8877
tp8878
(lp8879
(g25
g8877
tp8880
as(g118
g6042
tp8881
(lp8882
(g114
g6042
tp8883
as(g130
S'mountie'
p8884
tp8885
(lp8886
(g126
g8884
tp8887
as(g276
S'wheat_germ'
p8888
tp8889
(lp8890
(g280
g8888
tp8891
as(g2638
S'glider'
p8892
tp8893
(lp8894
(g2642
g8892
tp8895
as(g35
g1585
tp8896
(lp8897
(g39
g1585
tp8898
a(g41
g1585
tp8899
as(g159
g1131
tp8900
(lp8901
(g155
g1131
tp8902
as(g13
S'curse'
p8903
tp8904
(lp8905
(g17
g8903
tp8906
as(g349
g899
tp8907
(lp8908
(g353
g899
tp8909
a(g355
g899
tp8910
a(g357
g899
tp8911
as(g520
S'thong'
p8912
tp8913
(lp8914
(g524
g8912
tp8915
a(g526
g8912
tp8916
as(g7114
g2175
tp8917
(lp8918
(g7117
g2175
tp8919
as(g1778
S'chinese_puzzle'
p8920
tp8921
(lp8922
(g1782
g8920
tp8923
as(g2996
g6366
tp8924
(lp8925
(g3000
g6366
tp8926
a(g3002
g6366
tp8927
a(g88
g6366
tp8928
a(g3005
g6366
tp8929
as(g223
S'lake'
p8930
tp8931
(lp8932
(g227
g8930
tp8933
as(g657
g4965
tp8934
(lp8935
(g101
g4965
tp8936
as(g276
S'junk_food'
p8937
tp8938
(lp8939
(g280
g8937
tp8940
as(g7
g1415
tp8941
(lp8942
(g11
g1415
tp8943
as(g76
S'leotard'
p8944
tp8945
(lp8946
(g80
g8944
tp8947
a(g82
g8944
tp8948
as(g223
g271
tp8949
(lp8950
(g227
g271
tp8951
as(g6081
g263
tp8952
(lp8953
(g6084
g263
tp8954
as(g93
g6747
tp8955
(lp8956
(g97
g6747
tp8957
a(g99
g6747
tp8958
a(g101
g6747
tp8959
as(g13
g3866
tp8960
(lp8961
(g17
g3866
tp8962
as(g19
g2593
tp8963
(lp8964
(g23
g2593
tp8965
a(g25
g2593
tp8966
as(g357
S'cave'
p8967
tp8968
(lp8969
(g349
g8967
tp8970
as(g137
g542
tp8971
(lp8972
(g141
g542
tp8973
a(g143
g542
tp8974
a(g145
g542
tp8975
as(g215
g20
tp8976
(lp8977
(g211
g20
tp8978
a(g596
g20
tp8979
as(g118
g2336
tp8980
(lp8981
(g114
g2336
tp8982
as(g189
S'picture'
p8983
tp8984
(lp8985
(g193
g8983
tp8986
a(g195
g8983
tp8987
as(g114
g1307
tp8988
(lp8989
(g118
g1307
tp8990
as(g93
g1337
tp8991
(lp8992
(g97
g1337
tp8993
a(g99
g1337
tp8994
a(g101
g1337
tp8995
as(g120
g714
tp8996
(lp8997
(g124
g714
tp8998
as(g3865
g2526
tp8999
(lp9000
(g137
g2526
tp9001
as(g349
g8
tp9002
(lp9003
(g353
g8
tp9004
a(g355
g8
tp9005
a(g357
g8
tp9006
as(g1196
g742
tp9007
(lp9008
(g1200
g742
tp9009
as(g520
S'tease'
p9010
tp9011
(lp9012
(g524
g9010
tp9013
a(g526
g9010
tp9014
as(g2996
S'schoolboy'
p9015
tp9016
(lp9017
(g3000
g9015
tp9018
a(g3002
g9015
tp9019
a(g88
g9015
tp9020
a(g3005
g9015
tp9021
as(g173
g714
tp9022
(lp9023
(g177
g714
tp9024
as(g1807
S'meteor_shower'
p9025
tp9026
(lp9027
(g1811
g9025
tp9028
as(g370
g2459
tp9029
(lp9030
(g374
g2459
tp9031
as(g968
g862
tp9032
(lp9033
(g972
g862
tp9034
as(g571
g2876
tp9035
(lp9036
(g25
g2876
tp9037
as(g120
S'pirate'
p9038
tp9039
(lp9040
(g124
g9038
tp9041
as(g3242
g5502
tp9042
(lp9043
(g3246
g5502
tp9044
as(g23
g1760
tp9045
(lp9046
(g19
g1760
tp9047
as(g1615
S'judge'
p9048
tp9049
(lp9050
(g1619
g9048
tp9051
as(g205
g156
tp9052
(lp9053
(g209
g156
tp9054
as(g856
g565
tp9055
(lp9056
(g860
g565
tp9057
as(g19
g447
tp9058
(lp9059
(g23
g447
tp9060
a(g25
g447
tp9061
as(g7
S'fatwah'
p9062
tp9063
(lp9064
(g11
g9062
tp9065
as(g65
g3338
tp9066
(lp9067
(g69
g3338
tp9068
as(g35
g415
tp9069
(lp9070
(g39
g415
tp9071
a(g41
g415
tp9072
as(g695
S'sirloin'
p9073
tp9074
(lp9075
(g699
g9073
tp9076
as(g35
g1510
tp9077
(lp9078
(g39
g1510
tp9079
a(g41
g1510
tp9080
as(g357
S'drain'
p9081
tp9082
(lp9083
(g349
g9081
tp9084
as(g3659
S'cliche'
p9085
tp9086
(lp9087
(g3663
g9085
tp9088
as(g1798
g3584
tp9089
(lp9090
(g1802
g3584
tp9091
as(g114
S'blink'
p9092
tp9093
(lp9094
(g118
g9092
tp9095
as(g233
S'palace'
p9096
tp9097
(lp9098
(g229
g9096
tp9099
a(g239
g9096
tp9100
as(g759
g8
tp9101
(lp9102
(g762
g8
tp9103
as(g137
S'mike_tyson'
p9104
tp9105
(lp9106
(g141
g9104
tp9107
a(g143
g9104
tp9108
a(g145
g9104
tp9109
as(g57
g6867
tp9110
(lp9111
(g53
g6867
tp9112
as(g1431
S'field_mouse'
p9113
tp9114
(lp9115
(g1434
g9113
tp9116
as(g349
g5819
tp9117
(lp9118
(g353
g5819
tp9119
a(g355
g5819
tp9120
a(g357
g5819
tp9121
as(g1778
g8269
tp9122
(lp9123
(g1782
g8269
tp9124
as(g114
g714
tp9125
(lp9126
(g118
g714
tp9127
as(g57
S'water_moccasin'
p9128
tp9129
(lp9130
(g53
g9128
tp9131
as(g137
g2349
tp9132
(lp9133
(g141
g2349
tp9134
a(g143
g2349
tp9135
a(g145
g2349
tp9136
as(g53
g3342
tp9137
(lp9138
(g57
g3342
tp9139
a(g59
g3342
tp9140
a(g61
g3342
tp9141
a(g63
g3342
tp9142
as(g53
g1181
tp9143
(lp9144
(g57
g1181
tp9145
a(g59
g1181
tp9146
a(g61
g1181
tp9147
a(g63
g1181
tp9148
as(g35
S'finger'
p9149
tp9150
(lp9151
(g39
g9149
tp9152
a(g41
g9149
tp9153
as(g76
S'vise'
p9154
tp9155
(lp9156
(g80
g9154
tp9157
a(g82
g9154
tp9158
as(g19
S'chipmunk'
p9159
tp9160
(lp9161
(g23
g9159
tp9162
a(g25
g9159
tp9163
as(g65
S'fart'
p9164
tp9165
(lp9166
(g69
g9164
tp9167
as(g370
g7079
tp9168
(lp9169
(g374
g7079
tp9170
as(g274
g1649
tp9171
(lp9172
(g270
g1649
tp9173
a(g540
g1649
tp9174
as(g7
g5032
tp9175
(lp9176
(g11
g5032
tp9177
as(g147
S'grater'
p9178
tp9179
(lp9180
(g151
g9178
tp9181
a(g153
g9178
tp9182
as(g7
S'telegraph_post'
p9183
tp9184
(lp9185
(g11
g9183
tp9186
as(g143
S'roadside'
p9187
tp9188
(lp9189
(g137
g9187
tp9190
a(g451
g9187
tp9191
a(g453
g9187
tp9192
a(g455
g9187
tp9193
a(g457
g9187
tp9194
as(g396
g8967
tp9195
(lp9196
(g392
g8967
tp9197
as(g137
S'flint'
p9198
tp9199
(lp9200
(g141
g9198
tp9201
a(g143
g9198
tp9202
a(g145
g9198
tp9203
as(g2450
g8
tp9204
(lp9205
(g2454
g8
tp9206
a(g2456
g8
tp9207
a(g1538
g8
tp9208
as(g983
S'fate'
p9209
tp9210
(lp9211
(g987
g9209
tp9212
as(g1798
g3307
tp9213
(lp9214
(g1802
g3307
tp9215
as(g19
g548
tp9216
(lp9217
(g23
g548
tp9218
a(g25
g548
tp9219
as(g114
g6316
tp9220
(lp9221
(g118
g6316
tp9222
as(g274
g3022
tp9223
(lp9224
(g270
g3022
tp9225
a(g540
g3022
tp9226
as(g270
S'neutron_star'
p9227
tp9228
(lp9229
(g274
g9227
tp9230
as(g472
S'aircraft_engine'
p9231
tp9232
(lp9233
(g476
g9231
tp9234
as(g120
g2872
tp9235
(lp9236
(g124
g2872
tp9237
as(g968
g1233
tp9238
(lp9239
(g972
g1233
tp9240
as(g205
g7632
tp9241
(lp9242
(g209
g7632
tp9243
as(g262
S'concept'
p9244
tp9245
(lp9246
(g266
g9244
tp9247
a(g268
g9244
tp9248
as(g1426
S'swimmer'
p9249
tp9250
(lp9251
(g1429
g9249
tp9252
as(g1704
g2902
tp9253
(lp9254
(g1708
g2902
tp9255
as(g274
g287
tp9256
(lp9257
(g270
g287
tp9258
a(g540
g287
tp9259
as(g93
S'machete'
p9260
tp9261
(lp9262
(g97
g9260
tp9263
a(g99
g9260
tp9264
a(g101
g9260
tp9265
as(g392
g282
tp9266
(lp9267
(g396
g282
tp9268
a(g39
g282
tp9269
as(g93
S'vixen'
p9270
tp9271
(lp9272
(g97
g9270
tp9273
a(g99
g9270
tp9274
a(g101
g9270
tp9275
as(g657
S'fairy_tale'
p9276
tp9277
(lp9278
(g101
g9276
tp9279
as(g137
S'sock'
p9280
tp9281
(lp9282
(g141
g9280
tp9283
a(g143
g9280
tp9284
a(g145
g9280
tp9285
as(g215
S'lumberjack'
p9286
tp9287
(lp9288
(g211
g9286
tp9289
a(g596
g9286
tp9290
as(g93
g2140
tp9291
(lp9292
(g97
g2140
tp9293
a(g99
g2140
tp9294
a(g101
g2140
tp9295
as(g3507
g241
tp9296
(lp9297
(g3510
g241
tp9298
as(g229
S'stable'
p9299
tp9300
(lp9301
(g233
g9299
tp9302
as(g270
g746
tp9303
(lp9304
(g274
g746
tp9305
as(g118
g3780
tp9306
(lp9307
(g114
g3780
tp9308
as(g1798
S'golf_course'
p9309
tp9310
(lp9311
(g1802
g9309
tp9312
as(g120
g6639
tp9313
(lp9314
(g124
g6639
tp9315
as(g114
S'supernova'
p9316
tp9317
(lp9318
(g118
g9316
tp9319
as(g108
S'treatise'
p9320
tp9321
(lp9322
(g112
g9320
tp9323
as(g143
S'chamois_cloth'
p9324
tp9325
(lp9326
(g137
g9324
tp9327
a(g451
g9324
tp9328
a(g453
g9324
tp9329
a(g455
g9324
tp9330
a(g457
g9324
tp9331
as(g1398
g3903
tp9332
(lp9333
(g25
g3903
tp9334
as(g1196
g1118
tp9335
(lp9336
(g1200
g1118
tp9337
as(g223
S'river'
p9338
tp9339
(lp9340
(g227
g9338
tp9341
as(g143
g1605
tp9342
(lp9343
(g137
g1605
tp9344
a(g451
g1605
tp9345
a(g453
g1605
tp9346
a(g455
g1605
tp9347
a(g457
g1605
tp9348
as(g93
S'armpit'
p9349
tp9350
(lp9351
(g97
g9349
tp9352
a(g99
g9349
tp9353
a(g101
g9349
tp9354
as(g114
g3139
tp9355
(lp9356
(g118
g3139
tp9357
as(g93
S'steak_knife'
p9358
tp9359
(lp9360
(g97
g9358
tp9361
a(g99
g9358
tp9362
a(g101
g9358
tp9363
as(g197
g4421
tp9364
(lp9365
(g201
g4421
tp9366
a(g203
g4421
tp9367
as(g1431
g2518
tp9368
(lp9369
(g1434
g2518
tp9370
as(g7206
g447
tp9371
(lp9372
(g7210
g447
tp9373
as(g472
S'mainframe_computer'
p9374
tp9375
(lp9376
(g476
g9374
tp9377
as(g147
S'squall'
p9378
tp9379
(lp9380
(g151
g9378
tp9381
a(g153
g9378
tp9382
as(g159
S'beggar'
p9383
tp9384
(lp9385
(g155
g9383
tp9386
as(g173
g536
tp9387
(lp9388
(g177
g536
tp9389
as(g147
S'file'
p9390
tp9391
(lp9392
(g151
g9390
tp9393
a(g153
g9390
tp9394
as(g1196
g399
tp9395
(lp9396
(g1200
g399
tp9397
as(g101
S'plant'
p9398
tp9399
(lp9400
(g655
g9398
tp9401
a(g657
g9398
tp9402
a(g659
g9398
tp9403
a(g99
g9398
tp9404
a(g93
g9398
tp9405
as(g396
S'wasteland'
p9406
tp9407
(lp9408
(g392
g9406
tp9409
as(g197
S'spaghetti'
p9410
tp9411
(lp9412
(g201
g9410
tp9413
a(g203
g9410
tp9414
as(g7
g3139
tp9415
(lp9416
(g11
g3139
tp9417
as(g35
g190
tp9418
(lp9419
(g39
g190
tp9420
a(g41
g190
tp9421
as(g147
g2982
tp9422
(lp9423
(g151
g2982
tp9424
a(g153
g2982
tp9425
as(g349
S'tin_can'
p9426
tp9427
(lp9428
(g353
g9426
tp9429
a(g355
g9426
tp9430
a(g357
g9426
tp9431
as(g983
g844
tp9432
(lp9433
(g987
g844
tp9434
as(g53
S'sidewinder'
p9435
tp9436
(lp9437
(g57
g9435
tp9438
a(g59
g9435
tp9439
a(g61
g9435
tp9440
a(g63
g9435
tp9441
as(g274
g212
tp9442
(lp9443
(g270
g212
tp9444
a(g540
g212
tp9445
as(g155
g1314
tp9446
(lp9447
(g159
g1314
tp9448
as(g2748
S'wizard'
p9449
tp9450
(lp9451
(g2752
g9449
tp9452
as(g65
S'blister'
p9453
tp9454
(lp9455
(g69
g9453
tp9456
as(g274
S'membrane'
p9457
tp9458
(lp9459
(g270
g9457
tp9460
a(g540
g9457
tp9461
as(g173
S'plow_horse'
p9462
tp9463
(lp9464
(g177
g9462
tp9465
as(g357
S'clay_pipe'
p9466
tp9467
(lp9468
(g349
g9466
tp9469
as(g2005
g2497
tp9470
(lp9471
(g2009
g2497
tp9472
as(g274
g7079
tp9473
(lp9474
(g270
g7079
tp9475
a(g540
g7079
tp9476
as(g1621
S'parrot'
p9477
tp9478
(lp9479
(g1624
g9477
tp9480
as(g114
S'meteor'
p9481
tp9482
(lp9483
(g118
g9481
tp9484
as(g359
S'skull'
p9485
tp9486
(lp9487
(g363
g9485
tp9488
as(g23
S'fruit_fly'
p9489
tp9490
(lp9491
(g19
g9489
tp9492
as(g723
g1905
tp9493
(lp9494
(g727
g1905
tp9495
as(g93
S'serpent'
p9496
tp9497
(lp9498
(g97
g9496
tp9499
a(g99
g9496
tp9500
a(g101
g9496
tp9501
as(g71
g1675
tp9502
(lp9503
(g25
g1675
tp9504
as(g43
g8930
tp9505
(lp9506
(g47
g8930
tp9507
a(g49
g8930
tp9508
a(g51
g8930
tp9509
as(g114
S'microwave'
p9510
tp9511
(lp9512
(g118
g9510
tp9513
as(g23
g6366
tp9514
(lp9515
(g19
g6366
tp9516
as(g215
S'cabin'
p9517
tp9518
(lp9519
(g211
g9517
tp9520
a(g596
g9517
tp9521
as(g349
g1611
tp9522
(lp9523
(g353
g1611
tp9524
a(g355
g1611
tp9525
a(g357
g1611
tp9526
as(g571
g2568
tp9527
(lp9528
(g25
g2568
tp9529
as(g114
g4155
tp9530
(lp9531
(g118
g4155
tp9532
as(g1426
g5257
tp9533
(lp9534
(g1429
g5257
tp9535
as(g4176
S'marathon'
p9536
tp9537
(lp9538
(g4179
g9536
tp9539
as(g76
S'suture'
p9540
tp9541
(lp9542
(g80
g9540
tp9543
a(g82
g9540
tp9544
as(g472
S'zoo'
p9545
tp9546
(lp9547
(g476
g9545
tp9548
as(g1985
S'shrug'
p9549
tp9550
(lp9551
(g1989
g9549
tp9552
as(g120
g6611
tp9553
(lp9554
(g124
g6611
tp9555
as(g276
g1307
tp9556
(lp9557
(g280
g1307
tp9558
as(g655
S'steroid'
p9559
tp9560
(lp9561
(g101
g9559
tp9562
a(g1167
g9559
tp9563
a(g1169
g9559
tp9564
as(g571
S'superstructure'
p9565
tp9566
(lp9567
(g25
g9565
tp9568
as(g173
S'bridge'
p9569
tp9570
(lp9571
(g177
g9569
tp9572
as(g118
S'oil_tanker'
p9573
tp9574
(lp9575
(g114
g9573
tp9576
as(g994
g2973
tp9577
(lp9578
(g998
g2973
tp9579
as(S'wrinkly'
p9580
g4955
tp9581
(lp9582
(g2151
g4955
tp9583
as(g571
g1554
tp9584
(lp9585
(g25
g1554
tp9586
as(g23
S'willow_tree'
p9587
tp9588
(lp9589
(g19
g9587
tp9590
as(g201
g8
tp9591
(lp9592
(g197
g8
tp9593
a(g177
g8
tp9594
as(g559
g2140
tp9595
(lp9596
(g563
g2140
tp9597
as(g35
S'ham'
p9598
tp9599
(lp9600
(g39
g9598
tp9601
a(g41
g9598
tp9602
as(g1431
S'wimp'
p9603
tp9604
(lp9605
(g1434
g9603
tp9606
as(g147
S'lady'
p9607
tp9608
(lp9609
(g151
g9607
tp9610
a(g153
g9607
tp9611
as(g93
g2123
tp9612
(lp9613
(g97
g2123
tp9614
a(g99
g2123
tp9615
a(g101
g2123
tp9616
as(g137
g3215
tp9617
(lp9618
(g141
g3215
tp9619
a(g143
g3215
tp9620
a(g145
g3215
tp9621
as(g120
S'navy_seal'
p9622
tp9623
(lp9624
(g124
g9622
tp9625
as(g93
S'rapier'
p9626
tp9627
(lp9628
(g97
g9626
tp9629
a(g99
g9626
tp9630
a(g101
g9626
tp9631
as(g547
S'paperclip'
p9632
tp9633
(lp9634
(g551
g9632
tp9635
a(g553
g9632
tp9636
as(g211
g5751
tp9637
(lp9638
(g215
g5751
tp9639
as(g173
g3756
tp9640
(lp9641
(g177
g3756
tp9642
as(S'filled'
p9643
g4361
tp9644
(lp9645
(S'unfilled'
p9646
g4361
tp9647
as(g5244
g8877
tp9648
(lp9649
(g5248
g8877
tp9650
as(g9643
g1510
tp9651
(lp9652
(g9646
g1510
tp9653
as(g114
S'roadrunner'
p9654
tp9655
(lp9656
(g118
g9654
tp9657
as(g370
g253
tp9658
(lp9659
(g374
g253
tp9660
as(g439
g1188
tp9661
(lp9662
(g443
g1188
tp9663
a(g445
g1188
tp9664
as(g736
g642
tp9665
(lp9666
(g740
g642
tp9667
as(g374
g3495
tp9668
(lp9669
(g370
g3495
tp9670
as(g120
g3359
tp9671
(lp9672
(g124
g3359
tp9673
as(g349
g2323
tp9674
(lp9675
(g353
g2323
tp9676
a(g355
g2323
tp9677
a(g357
g2323
tp9678
as(g19
g1188
tp9679
(lp9680
(g23
g1188
tp9681
a(g25
g1188
tp9682
as(g120
S'sofa_bed'
p9683
tp9684
(lp9685
(g124
g9683
tp9686
as(g520
S'engine_block'
p9687
tp9688
(lp9689
(g524
g9687
tp9690
a(g526
g9687
tp9691
as(g147
g4089
tp9692
(lp9693
(g151
g4089
tp9694
a(g153
g4089
tp9695
as(g53
g2950
tp9696
(lp9697
(g57
g2950
tp9698
a(g59
g2950
tp9699
a(g61
g2950
tp9700
a(g63
g2950
tp9701
as(g520
g3780
tp9702
(lp9703
(g524
g3780
tp9704
a(g526
g3780
tp9705
as(g53
S'ruler'
p9706
tp9707
(lp9708
(g57
g9706
tp9709
a(g59
g9706
tp9710
a(g61
g9706
tp9711
a(g63
g9706
tp9712
as(g5244
S'housefly'
p9713
tp9714
(lp9715
(g5248
g9713
tp9716
as(g118
S'turtle'
p9717
tp9718
(lp9719
(g114
g9717
tp9720
as(g1798
S'polka_dot'
p9721
tp9722
(lp9723
(g1802
g9721
tp9724
as(g173
S'axe_handle'
p9725
tp9726
(lp9727
(g177
g9725
tp9728
as(g1196
g6348
tp9729
(lp9730
(g1200
g6348
tp9731
as(g520
S'file_cabinet'
p9732
tp9733
(lp9734
(g524
g9732
tp9735
a(g526
g9732
tp9736
as(g43
g7620
tp9737
(lp9738
(g47
g7620
tp9739
a(g49
g7620
tp9740
a(g51
g7620
tp9741
as(g88
g6988
tp9742
(lp9743
(g91
g6988
tp9744
as(g1807
g9316
tp9745
(lp9746
(g1811
g9316
tp9747
as(g31
S'possum'
p9748
tp9749
(lp9750
(g27
g9748
tp9751
a(g1063
g9748
tp9752
as(g856
S'forklift'
p9753
tp9754
(lp9755
(g860
g9753
tp9756
as(g120
g6073
tp9757
(lp9758
(g124
g6073
tp9759
as(g2638
g852
tp9760
(lp9761
(g2642
g852
tp9762
as(g274
g2551
tp9763
(lp9764
(g270
g2551
tp9765
a(g540
g2551
tp9766
as(g520
S'peacock'
p9767
tp9768
(lp9769
(g524
g9767
tp9770
a(g526
g9767
tp9771
as(g93
g3408
tp9772
(lp9773
(g97
g3408
tp9774
a(g99
g3408
tp9775
a(g101
g3408
tp9776
as(g370
g415
tp9777
(lp9778
(g374
g415
tp9779
as(g559
S'ice_pick'
p9780
tp9781
(lp9782
(g563
g9780
tp9783
as(g736
S'doorpost'
p9784
tp9785
(lp9786
(g740
g9784
tp9787
as(g76
g954
tp9788
(lp9789
(g80
g954
tp9790
a(g82
g954
tp9791
as(g374
g7524
tp9792
(lp9793
(g370
g7524
tp9794
as(g76
S'locker'
p9795
tp9796
(lp9797
(g80
g9795
tp9798
a(g82
g9795
tp9799
as(g93
g72
tp9800
(lp9801
(g97
g72
tp9802
a(g99
g72
tp9803
a(g101
g72
tp9804
as(g23
g5307
tp9805
(lp9806
(g19
g5307
tp9807
as(g349
g335
tp9808
(lp9809
(g353
g335
tp9810
a(g355
g335
tp9811
a(g357
g335
tp9812
as(g270
g3198
tp9813
(lp9814
(g274
g3198
tp9815
as(g625
g3220
tp9816
(lp9817
(g97
g3220
tp9818
as(g19
g5876
tp9819
(lp9820
(g23
g5876
tp9821
a(g25
g5876
tp9822
as(g1704
g36
tp9823
(lp9824
(g1708
g36
tp9825
as.