(lp0
(S'graceful'
p1
S'swan'
p2
tp3
a(g1
S'ballerina'
p4
tp5
a(g1
S'gazelle'
p6
tp7
a(g1
S'dancer'
p8
tp9
a(g1
S'butterfly'
p10
tp11
a(g1
S'cat'
p12
tp13
a(g1
S'deer'
p14
tp15
a(g1
S'bird'
p16
tp17
a(g1
S'panther'
p18
tp19
a(g1
S'dolphin'
p20
tp21
a(g1
S'ballet_dancer'
p22
tp23
a(g1
S'noel_coward'
p24
tp25
a(g1
S'gymnast'
p26
tp27
a(g1
S'tightrope_walker'
p28
tp29
a(g1
S'antelope'
p30
tp31
a(g1
S'stork'
p32
tp33
a(g1
S'hummingbird'
p34
tp35
a(g1
S'matador'
p36
tp37
a(g1
S'leopard'
p38
tp39
a(g1
S'swallow'
p40
tp41
a(g1
S'eagle'
p42
tp43
a(g1
S'bride'
p44
tp45
a(g1
S'flower'
p46
tp47
a(g1
S'surgeon'
p48
tp49
a(g1
S'cheetah'
p50
tp51
a(g1
S'minuet'
p52
tp53
a(g1
S'swordsman'
p54
tp55
a(g1
S'mermaid'
p56
tp57
a(g1
S'dove'
p58
tp59
a(g1
S'prince'
p60
tp61
a(g1
S'giraffe'
p62
tp63
a(g1
S'colt'
p64
tp65
a(g1
S'ninja'
p66
tp67
a(g1
S'ballet_master'
p68
tp69
a(g1
S'charlie_parker'
p70
tp71
a(g1
S'poet'
p72
tp73
a(g1
S'cat_burglar'
p74
tp75
a(g1
S'mountain_lion'
p76
tp77
a(g1
S'sparrow'
p78
tp79
a(g1
S'supermodel'
p80
tp81
a(g1
S'harp'
p82
tp83
a(g1
S'elephant'
p84
tp85
a(g1
S'refrigerator'
p86
tp87
a(g1
S'hippo'
p88
tp89
a(g1
S'tortoise'
p90
tp91
a(g1
S'truck'
p92
tp93
a(g1
S'lame_duck'
p94
tp95
a(g1
S'sheep'
p96
tp97
a(g1
S'marionette'
p98
tp99
a(g1
S'dinosaur'
p100
tp101
a(g1
S'rhino'
p102
tp103
a(g1
S'soap_opera'
p104
tp105
a(g1
S'camel'
p106
tp107
a(g1
S'walrus'
p108
tp109
a(g1
S'penguin'
p110
tp111
a(g1
S'brick'
p112
tp113
a(g1
S'hippopotamus'
p114
tp115
a(g1
S'battering_ram'
p116
tp117
a(g1
S'bulldozer'
p118
tp119
a(g1
S'turkey'
p120
tp121
a(S'spry'
p122
g12
tp123
a(g122
S'kitten'
p124
tp125
a(g122
S'puppy'
p126
tp127
a(g122
S'squirrel'
p128
tp129
a(g122
S'teenager'
p130
tp131
a(g122
S'gopher'
p132
tp133
a(g122
S'schoolboy'
p134
tp135
a(S'agile'
p136
S'track_star'
p137
tp138
a(g136
S'goat'
p139
tp140
a(g136
g12
tp141
a(g136
S'monkey'
p142
tp143
a(g136
g50
tp144
a(g136
g10
tp145
a(g136
g66
tp146
a(g136
g22
tp147
a(g136
g18
tp148
a(g136
S'acrobat'
p149
tp150
a(g136
S'hare'
p151
tp152
a(g136
S'rabbit'
p153
tp154
a(g136
g26
tp155
a(g136
S'spitfire'
p156
tp157
a(g136
g20
tp158
a(g136
S'cruiser'
p159
tp160
a(g136
S'grasshopper'
p161
tp162
a(g136
S'thief'
p163
tp164
a(g136
g4
tp165
a(g136
g6
tp166
a(g136
S'mountain_goat'
p167
tp168
a(g136
S'youngster'
p169
tp170
a(g136
S'barge'
p171
tp172
a(g136
S'mountain'
p173
tp174
a(g136
g84
tp175
a(g136
S'turtle'
p176
tp177
a(g136
S'telephone_pole'
p178
tp179
a(S'supple'
p180
S'snake'
p181
tp182
a(g180
g26
tp183
a(g180
g12
tp184
a(g180
S'bow'
p185
tp186
a(g180
S'willow'
p187
tp188
a(g180
S'whip'
p189
tp190
a(g180
g169
tp191
a(g180
S'garden_hose'
p192
tp193
a(g180
S'harlequin'
p194
tp195
a(g180
g149
tp196
a(g180
S'scarf'
p197
tp198
a(g180
S'trampoline'
p199
tp200
a(g180
S'reed'
p201
tp202
a(g180
S'eel'
p203
tp204
a(g180
S'skyscraper'
p205
tp206
a(g180
S'steel'
p207
tp208
a(S'active'
p209
S'beehive'
p210
tp211
a(g209
S'bee'
p212
tp213
a(g209
g128
tp214
a(g209
S'anthill'
p215
tp216
a(g209
S'adventure'
p217
tp218
a(g209
S'brain'
p219
tp220
a(g209
g142
tp221
a(g209
S'toddler'
p222
tp223
a(g209
S'shark'
p224
tp225
a(g209
S'catalyst'
p226
tp227
a(g209
S'sloth'
p228
tp229
a(g209
S'slug'
p230
tp231
a(S'nimble'
p232
g30
tp233
a(g232
g50
tp234
a(g232
g4
tp235
a(g232
g6
tp236
a(g232
g167
tp237
a(g232
S'polo_pony'
p238
tp239
a(g232
g139
tp240
a(g232
g14
tp241
a(g232
g12
tp242
a(g232
g128
tp243
a(g232
g142
tp244
a(g232
S'basketball_player'
p245
tp246
a(g232
g8
tp247
a(g232
S'feather'
p248
tp249
a(g232
g149
tp250
a(g232
S'greyhound'
p251
tp252
a(g232
S'fawn'
p253
tp254
a(g232
g161
tp255
a(g232
S'mouse'
p256
tp257
a(g232
S'featherweight'
p258
tp259
a(g232
S'falcon'
p260
tp261
a(g232
g78
tp262
a(g232
g124
tp263
a(g232
S'oil_tanker'
p264
tp265
a(g232
S'aircraft_carrier'
p266
tp267
a(S'sleek'
p268
g18
tp269
a(g268
S'racing_yacht'
p270
tp271
a(g268
g251
tp272
a(g268
S'seal'
p273
tp274
a(g268
S'cobra'
p275
tp276
a(g268
g203
tp277
a(g268
g12
tp278
a(g268
S'whippet'
p279
tp280
a(g268
S'limousine'
p281
tp282
a(g268
S'mont_blanc'
p283
tp284
a(g268
S'stealth_fighter'
p285
tp286
a(g268
S'coupe'
p287
tp288
a(g268
g20
tp289
a(g268
S'porpoise'
p290
tp291
a(g268
S'vibrator'
p292
tp293
a(g268
S'rocket'
p294
tp295
a(g268
S'sword'
p296
tp297
a(g268
S'bullet_train'
p298
tp299
a(g268
g6
tp300
a(g268
S'torpedo'
p301
tp302
a(g268
S'sloop'
p303
tp304
a(g268
S'ocean_liner'
p305
tp306
a(g268
g171
tp307
a(g268
g112
tp308
a(S'swift'
p309
g14
tp310
a(g309
g6
tp311
a(g309
g40
tp312
a(g309
g251
tp313
a(g309
g50
tp314
a(g309
S'horse'
p315
tp316
a(g309
g151
tp317
a(g309
g181
tp318
a(g309
g30
tp319
a(g309
S'sand_viper'
p320
tp321
a(g309
S'spear'
p322
tp323
a(g309
g294
tp324
a(g309
S'bullet'
p325
tp326
a(g309
S'dart'
p327
tp328
a(g309
S'ostrich'
p329
tp330
a(g309
S'arrow'
p331
tp332
a(g309
S'hammer'
p333
tp334
a(g309
S'missile'
p335
tp336
a(g309
g153
tp337
a(g309
S'tiger'
p338
tp339
a(g309
S'torrent'
p340
tp341
a(g309
S'wind'
p342
tp343
a(g309
g66
tp344
a(g309
S'stealth_bomber'
p345
tp346
a(g309
g42
tp347
a(g309
S'kingfisher'
p348
tp349
a(g309
S'mamba'
p350
tp351
a(g309
S'fox'
p352
tp353
a(g309
S'prairie_fire'
p354
tp355
a(g309
S'foal'
p356
tp357
a(g309
S'stag'
p358
tp359
a(g309
S'hornet'
p360
tp361
a(g309
S'hawk'
p362
tp363
a(g309
S'snail'
p364
tp365
a(g309
S'garbage_truck'
p366
tp367
a(g309
g90
tp368
a(S'sporty'
p369
g287
tp370
a(g369
S'coup'
p371
tp372
a(g369
S'golf_cart'
p373
tp374
a(g369
S'boston_terrier'
p375
tp376
a(S'lithe'
p377
g38
tp378
a(g377
g181
tp379
a(g377
S'athlete'
p380
tp381
a(g377
g338
tp382
a(g377
g18
tp383
a(g377
S'vine'
p384
tp385
a(g377
S'serpent'
p386
tp387
a(g377
g74
tp388
a(g377
g124
tp389
a(g377
g80
tp390
a(g377
S'rhinoceros'
p391
tp392
a(g377
g102
tp393
a(S'acrobatic'
p394
g142
tp395
a(g394
g230
tp396
a(S'energetic'
p397
g126
tp398
a(g397
S'pup'
p399
tp400
a(g397
S'jaguar'
p401
tp402
a(g397
S'cheerleader'
p403
tp404
a(g397
S'terrier'
p405
tp406
a(g397
g130
tp407
a(g397
g338
tp408
a(g397
S'sprite'
p409
tp410
a(g397
S'coffee_bean'
p411
tp412
a(g397
g230
tp413
a(g397
g364
tp414
a(g397
S'ant'
p415
tp416
a(g397
S'chess_match'
p417
tp418
a(g397
S'dishrag'
p419
tp420
a(g397
S'rag_doll'
p421
tp422
a(g397
g90
tp423
a(g397
S'centipede'
p424
tp425
a(S'mobile'
p426
S'watch'
p427
tp428
a(g426
S'laptop'
p429
tp430
a(g426
S'mustang'
p431
tp432
a(g426
S'car'
p433
tp434
a(g426
g315
tp435
a(g426
S'vehicle'
p436
tp437
a(g426
S'mountie'
p438
tp439
a(g426
g151
tp440
a(g426
S'statue'
p441
tp442
a(g426
S'glacier'
p443
tp444
a(g426
g230
tp445
a(g426
S'boulder'
p446
tp447
a(g426
S'rock'
p448
tp449
a(g426
S'oak_tree'
p450
tp451
a(g426
S'sumo_wrestler'
p452
tp453
a(g426
S'tree_trunk'
p454
tp455
a(g426
S'dinner_table'
p456
tp457
a(S'alive'
p458
S'soul'
p459
tp460
a(g458
S'heartbeat'
p461
tp462
a(g458
S'forest'
p463
tp464
a(g458
S'jungle'
p465
tp466
a(g458
g450
tp467
a(g458
S'tree'
p468
tp469
a(g458
S'organism'
p470
tp471
a(g458
S'raconteur'
p472
tp473
a(g458
S'rainforest'
p474
tp475
a(g458
S'volcano'
p476
tp477
a(g458
S'bacteria'
p478
tp479
a(g458
S'zombie'
p480
tp481
a(g458
S'dodo'
p482
tp483
a(g458
S'toaster'
p484
tp485
a(g458
S'corpse'
p486
tp487
a(g458
S'tumbleweed'
p488
tp489
a(g458
g448
tp490
a(g458
S'scarecrow'
p491
tp492
a(S'peppy'
p493
S'gas_engine'
p494
tp495
a(g493
g34
tp496
a(g493
g126
tp497
a(g493
S'fireball'
p498
tp499
a(S'rapid'
p500
g325
tp501
a(g500
S'automobile_race'
p502
tp503
a(g500
S'microwave'
p504
tp505
a(g500
S'assassin'
p506
tp507
a(g500
g34
tp508
a(g500
S'meteor'
p509
tp510
a(g500
S'monk'
p511
tp512
a(g500
S'root_canal'
p513
tp514
a(S'lame'
p515
S'duck'
p516
tp517
a(g515
S'laugh_track'
p518
tp519
a(g515
S'quadriplegic'
p520
tp521
a(S'strong'
p522
g315
tp523
a(g522
S'bull'
p524
tp525
a(g522
S'crocodile'
p526
tp527
a(g522
S'lion'
p528
tp529
a(g522
g38
tp530
a(g522
S'warrior'
p531
tp532
a(g522
S'gorilla'
p533
tp534
a(g522
S'bodybuilder'
p535
tp536
a(g522
S'knight'
p537
tp538
a(g522
g84
tp539
a(g522
g468
tp540
a(g522
S'ape'
p541
tp542
a(g522
S'bear'
p543
tp544
a(g522
g338
tp545
a(g522
S'buffalo'
p546
tp547
a(g522
S'espresso'
p548
tp549
a(g522
S'bulldog'
p550
tp551
a(g522
S'battleship'
p552
tp553
a(g522
g380
tp554
a(g522
g173
tp555
a(g522
S'fortress'
p556
tp557
a(g522
g454
tp558
a(g522
S'mule'
p559
tp560
a(g522
S'bomb_shelter'
p561
tp562
a(g522
g448
tp563
a(g522
S'tornado'
p564
tp565
a(g522
S'hurricane'
p566
tp567
a(g522
S'twister'
p568
tp569
a(g522
S'storm'
p570
tp571
a(g522
S'wolf'
p572
tp573
a(g522
g26
tp574
a(g522
g18
tp575
a(g522
S'water_buffalo'
p576
tp577
a(g522
S'hand_grenade'
p578
tp579
a(g522
S'castle'
p580
tp581
a(g522
S'cart_horse'
p582
tp583
a(g522
S'moose'
p584
tp585
a(g522
S'titan'
p586
tp587
a(g522
S'beast'
p588
tp589
a(g522
S'diamond'
p590
tp591
a(g522
S'tractor'
p592
tp593
a(g522
S'wrestler'
p594
tp595
a(g522
S'python'
p596
tp597
a(g522
S'ogre'
p598
tp599
a(g522
g446
tp600
a(g522
S'searchlight'
p601
tp602
a(g522
S'oak'
p603
tp604
a(g522
g294
tp605
a(g522
g102
tp606
a(g522
S'train'
p607
tp608
a(g522
S'bank_vault'
p609
tp610
a(g522
S'anvil'
p611
tp612
a(g522
g450
tp613
a(g522
S'steel_trap'
p614
tp615
a(g522
S'rail'
p616
tp617
a(g522
g118
tp618
a(g522
S'cedar_tree'
p619
tp620
a(g522
S'jackhammer'
p621
tp622
a(g522
g480
tp623
a(g522
S'onion'
p624
tp625
a(g522
S'laser'
p626
tp627
a(g522
S'atom_bomb'
p628
tp629
a(g522
S'predator'
p630
tp631
a(g522
S'slayer'
p632
tp633
a(g522
S'minotaur'
p634
tp635
a(g522
S'striker'
p636
tp637
a(g522
g205
tp638
a(g522
S'steamroller'
p639
tp640
a(g522
S'gladiator'
p641
tp642
a(g522
S'tank'
p643
tp644
a(g522
g100
tp645
a(g522
S'heroin_addiction'
p646
tp647
a(g522
S'viking'
p648
tp649
a(g522
S'crowbar'
p650
tp651
a(g522
S'dump_truck'
p652
tp653
a(g522
S'typhoon'
p654
tp655
a(g522
S'wild_boar'
p656
tp657
a(g522
S'blacksmith'
p658
tp659
a(g522
S'mountaineer'
p660
tp661
a(g522
g452
tp662
a(g522
S'titanium'
p663
tp664
a(g522
S'thunderstorm'
p665
tp666
a(g522
S'hero'
p667
tp668
a(g522
S'lioness'
p669
tp670
a(g522
g92
tp671
a(g522
S'superman'
p672
tp673
a(g522
g443
tp674
a(g522
S'daisy_cutter'
p675
tp676
a(g522
S'dragon'
p677
tp678
a(g522
g415
tp679
a(g522
S'mosquito_bite'
p680
tp681
a(g522
S'cappuccino'
p682
tp683
a(g522
S'dandelion'
p684
tp685
a(g522
S'soda_cracker'
p686
tp687
a(g522
S'calf'
p688
tp689
a(g522
S'couch_potato'
p690
tp691
a(g522
S'goldfish'
p692
tp693
a(g522
S'marshmallow'
p694
tp695
a(g522
S'chipmunk'
p696
tp697
a(g522
S'twig'
p698
tp699
a(g522
S'paper_bag'
p700
tp701
a(S'ugly'
p702
S'toad'
p703
tp704
a(g702
S'sea_slug'
p705
tp706
a(g702
S'dog'
p707
tp708
a(g702
S'witch'
p709
tp710
a(g702
S'warthog'
p711
tp712
a(g702
S'abortion'
p713
tp714
a(g702
S'vulture'
p715
tp716
a(g702
g114
tp717
a(g702
S'dump'
p718
tp719
a(g702
g559
tp720
a(g702
S'blister'
p721
tp722
a(g702
S'baboon'
p723
tp724
a(g702
S'sin'
p725
tp726
a(g702
S'crab'
p727
tp728
a(g702
S'fart'
p729
tp730
a(g702
S'tiger_shark'
p731
tp732
a(g702
S'reptile'
p733
tp734
a(g702
S'spider'
p735
tp736
a(g702
S'bat'
p737
tp738
a(g702
S'halibut'
p739
tp740
a(g702
S'louse'
p741
tp742
a(g702
S'asshole'
p743
tp744
a(g702
S'worm'
p745
tp746
a(g702
g598
tp747
a(g702
S'confrontation'
p748
tp749
a(g702
S'pug'
p750
tp751
a(g702
S'pig'
p752
tp753
a(g702
S'elephant_seal'
p754
tp755
a(g702
g391
tp756
a(g702
S'mud'
p757
tp758
a(g702
g102
tp759
a(g702
S'turd'
p760
tp761
a(g702
g550
tp762
a(g702
S'wart'
p763
tp764
a(g702
g588
tp765
a(g702
g526
tp766
a(g702
S'war_zone'
p767
tp768
a(g702
S'cactus'
p769
tp770
a(g702
g491
tp771
a(g702
S'harp_seal'
p772
tp773
a(g702
S'cow'
p774
tp775
a(g702
S'caterpillar'
p776
tp777
a(g702
S'flea'
p778
tp779
a(g702
S'stump'
p780
tp781
a(g702
S'sun'
p782
tp783
a(S'speedy'
p784
g50
tp785
a(g784
g431
tp786
a(g784
g325
tp787
a(g784
S'roadrunner'
p788
tp789
a(g784
S'bunny'
p790
tp791
a(g784
g652
tp792
a(g784
g90
tp793
a(g784
g443
tp794
a(S'slithering'
p795
g181
tp796
a(S'gradual'
p797
S'trickle'
p798
tp799
a(g797
g443
tp800
a(S'fast'
p801
g50
tp802
a(g801
S'racehorse'
p803
tp804
a(g801
g38
tp805
a(g801
S'raptor'
p806
tp807
a(g801
g509
tp808
a(g801
g151
tp809
a(g801
g34
tp810
a(g801
g251
tp811
a(g801
g504
tp812
a(g801
g329
tp813
a(g801
g788
tp814
a(g801
g335
tp815
a(g801
g153
tp816
a(g801
g189
tp817
a(g801
g6
tp818
a(g801
g431
tp819
a(g801
S'blink'
p820
tp821
a(g801
g401
tp822
a(g801
g391
tp823
a(g801
S'comet'
p824
tp825
a(g801
S'microwave_oven'
p826
tp827
a(g801
S'sprinter'
p828
tp829
a(g801
S'jetliner'
p830
tp831
a(g801
g279
tp832
a(g801
g275
tp833
a(g801
S'polecat'
p834
tp835
a(g801
g18
tp836
a(g801
g20
tp837
a(g801
S'cannonball'
p838
tp839
a(g801
S'puma'
p840
tp841
a(g801
S'cyclone'
p842
tp843
a(g801
g315
tp844
a(g801
g42
tp845
a(g801
g380
tp846
a(g801
g338
tp847
a(g801
S'bobsled'
p848
tp849
a(g801
g298
tp850
a(g801
g260
tp851
a(g801
S'race_car'
p852
tp853
a(g801
g354
tp854
a(g801
S'supernova'
p855
tp856
a(g801
g360
tp857
a(g801
S'cannon_ball'
p858
tp859
a(g801
S'racing_car'
p860
tp861
a(g801
S'coyote'
p862
tp863
a(g801
S'stallion'
p864
tp865
a(g801
S'modem'
p866
tp867
a(g801
S'rambler'
p868
tp869
a(g801
g90
tp870
a(g801
g230
tp871
a(g801
g480
tp872
a(g801
g415
tp873
a(g801
S'pocket_calculator'
p874
tp875
a(g801
S'fetus'
p876
tp877
a(g801
g112
tp878
a(g801
S'wall'
p879
tp880
a(g801
g592
tp881
a(g801
S'armadillo'
p882
tp883
a(g801
g364
tp884
a(g801
S'sandwich'
p885
tp886
a(g801
S'washcloth'
p887
tp888
a(g801
S'donkey_cart'
p889
tp890
a(S'slim'
p891
g201
tp892
a(g891
S'rake'
p893
tp894
a(g891
g203
tp895
a(g891
S'pencil'
p896
tp897
a(g891
S'stick'
p898
tp899
a(g891
S'pen'
p900
tp901
a(g891
g189
tp902
a(g891
S'flower_stalk'
p903
tp904
a(g891
S'hair'
p905
tp906
a(g891
g279
tp907
a(g891
S'card'
p908
tp909
a(g891
g181
tp910
a(g891
S'microchip'
p911
tp912
a(g891
S'ironing_board'
p913
tp914
a(g891
S'knitting_needle'
p915
tp916
a(g891
S'stiletto'
p917
tp918
a(g891
S'wafer'
p919
tp920
a(g891
S'toothpick'
p921
tp922
a(g891
S'cigarette'
p923
tp924
a(g891
S'sapling'
p925
tp926
a(g891
S'pin'
p927
tp928
a(g891
g698
tp929
a(g891
S'envelope'
p930
tp931
a(g891
S'pole'
p932
tp933
a(g891
S'ballpoint_pen'
p934
tp935
a(g891
S'garter_snake'
p936
tp937
a(S'still'
p938
S'sphinx'
p939
tp940
a(g938
g454
tp941
a(g938
S'tripod'
p942
tp943
a(g938
S'picture'
p944
tp945
a(g938
S'crypt'
p946
tp947
a(g938
S'mannequin'
p948
tp949
a(g938
S'tomb'
p950
tp951
a(g938
S'sculpture'
p952
tp953
a(g938
S'painting'
p954
tp955
a(g938
S'doll'
p956
tp957
a(g938
g448
tp958
a(g938
g173
tp959
a(g938
S'photograph'
p960
tp961
a(g938
g441
tp962
a(g938
S'lotus'
p963
tp964
a(g938
S'graveyard'
p965
tp966
a(g938
g446
tp967
a(g938
S'morgue'
p968
tp969
a(g938
g603
tp970
a(g938
S'cemetery'
p971
tp972
a(g938
S'clam'
p973
tp974
a(g938
S'coffin'
p975
tp976
a(g938
S'sniper'
p977
tp978
a(g938
g486
tp979
a(g938
S'mausoleum'
p980
tp981
a(g938
S'portrait'
p982
tp983
a(g938
g590
tp984
a(S'gorgeous'
p985
g80
tp986
a(g985
g954
tp987
a(g985
S'sunset'
p988
tp989
a(g985
S'princess'
p990
tp991
a(g985
g126
tp992
a(g985
S'palace'
p993
tp994
a(g985
S'peony'
p995
tp996
a(g985
g20
tp997
a(g985
g34
tp998
a(g985
S'jean_harlow'
p999
tp1000
a(g985
g44
tp1001
a(g985
S'crystal'
p1002
tp1003
a(g985
S'eggplant'
p1004
tp1005
a(g985
S'vacuum_cleaner'
p1006
tp1007
a(g985
S'death_valley'
p1008
tp1009
a(S'skilled'
p1010
S'grandmaster'
p1011
tp1012
a(g1010
S'diplomat'
p1013
tp1014
a(g1010
S'artisan'
p1015
tp1016
a(g1010
g66
tp1017
a(g1010
S'musician'
p1018
tp1019
a(g1010
S'wizard'
p1020
tp1021
a(g1010
S'artist'
p1022
tp1023
a(g1010
S'chef'
p1024
tp1025
a(g1010
S'master'
p1026
tp1027
a(g1010
g537
tp1028
a(g1010
g362
tp1029
a(g1010
g48
tp1030
a(g1010
g112
tp1031
a(S'dormant'
p1032
S'doormat'
p1033
tp1034
a(g1032
g482
tp1035
a(g1032
g980
tp1036
a(g1032
S'dormouse'
p1037
tp1038
a(S'dead'
p1039
g482
tp1040
a(g1039
S'doornail'
p1041
tp1042
a(g1039
S'coffin_nail'
p1043
tp1044
a(g1039
g646
tp1045
a(g1039
g480
tp1046
a(g1039
g100
tp1047
a(g1039
g965
tp1048
a(g1039
S'mummy'
p1049
tp1050
a(g1039
g971
tp1051
a(g1039
S'mutton'
p1052
tp1053
a(g1039
S'cadaver'
p1054
tp1055
a(g1039
g448
tp1056
a(g1039
g486
tp1057
a(g1039
g441
tp1058
a(g1039
g968
tp1059
a(g1039
g488
tp1060
a(g1039
S'possum'
p1061
tp1062
a(S'macho'
p1063
S'toreador'
p1064
tp1065
a(g1063
S'linebacker'
p1066
tp1067
a(g1063
g1033
tp1068
a(S'fit'
p1069
S'fiddle'
p1070
tp1071
a(g1069
g778
tp1072
a(g1069
g380
tp1073
a(g1069
g315
tp1074
a(g1069
S'boxer'
p1075
tp1076
a(g1069
g559
tp1077
a(g1069
g251
tp1078
a(g1069
g594
tp1079
a(g1069
g137
tp1080
a(g1069
S'fullback'
p1081
tp1082
a(g1069
S'stripper'
p1083
tp1084
a(g1069
S'alley_cat'
p1085
tp1086
a(g1069
g401
tp1087
a(g1069
g26
tp1088
a(g1069
g4
tp1089
a(g1069
g167
tp1090
a(g1069
S'swimmer'
p1091
tp1092
a(g1069
S'sportsman'
p1093
tp1094
a(g1069
S'soldier'
p1095
tp1096
a(g1069
S'gym_rat'
p1097
tp1098
a(g1069
S'marathoner'
p1099
tp1100
a(g1069
S'footballer'
p1101
tp1102
a(S'rugged'
p1103
S'hummer'
p1104
tp1105
a(g1103
g552
tp1106
a(g1103
g224
tp1107
a(g1103
g566
tp1108
a(g1103
S'cabin'
p1109
tp1110
a(g1103
S'lumberjack'
p1111
tp1112
a(g1103
S'cement_mixer'
p1113
tp1114
a(g1103
g173
tp1115
a(g1103
S'jeep'
p1116
tp1117
a(g1103
g643
tp1118
a(g1103
g611
tp1119
a(g1103
S'mountain_bike'
p1120
tp1121
a(g1103
S'fashion_model'
p1122
tp1123
a(S'handsome'
p1124
g60
tp1125
a(g1124
S'king'
p1126
tp1127
a(g1124
S'duchess'
p1128
tp1129
a(g1124
g6
tp1130
a(g1124
g667
tp1131
a(g1124
g982
tp1132
a(g1124
g315
tp1133
a(g1124
S'lorry'
p1134
tp1135
a(g1124
g484
tp1136
a(g1124
S'flounder'
p1137
tp1138
a(g1124
g524
tp1139
a(g1124
g102
tp1140
a(g1124
g139
tp1141
a(S'ungainly'
p1142
g727
tp1143
a(S'ill'
p1144
g482
tp1145
a(S'frisky'
p1146
g64
tp1147
a(g1146
g399
tp1148
a(g1146
g212
tp1149
a(g1146
g130
tp1150
a(g1146
g153
tp1151
a(g1146
g253
tp1152
a(g1146
g167
tp1153
a(g1146
g356
tp1154
a(g1146
g124
tp1155
a(g1146
g391
tp1156
a(S'hungry'
p1157
g543
tp1158
a(g1157
g572
tp1159
a(g1157
g315
tp1160
a(g1157
S'alligator'
p1161
tp1162
a(g1157
g528
tp1163
a(g1157
g88
tp1164
a(g1157
g338
tp1165
a(g1157
S'hog'
p1166
tp1167
a(g1157
S'beggar'
p1168
tp1169
a(g1157
g362
tp1170
a(g1157
S'whale'
p1171
tp1172
a(g1157
g224
tp1173
a(g1157
g715
tp1174
a(g1157
g584
tp1175
a(g1157
g526
tp1176
a(g1157
g448
tp1177
a(g1157
g80
tp1178
a(S'voracious'
p1179
g1171
tp1180
a(g1179
g38
tp1181
a(S'muscular'
p1182
g26
tp1183
a(g1182
g38
tp1184
a(g1182
S'corvette'
p1185
tp1186
a(g1182
S'speed_skater'
p1187
tp1188
a(g1182
g524
tp1189
a(g1182
g535
tp1190
a(g1182
g431
tp1191
a(g1182
g658
tp1192
a(g1182
g594
tp1193
a(g1182
g543
tp1194
a(g1182
g18
tp1195
a(g1182
S'football_player'
p1196
tp1197
a(g1182
S'shire_horse'
p1198
tp1199
a(g1182
g533
tp1200
a(g1182
g1075
tp1201
a(g1182
S'paperclip'
p1202
tp1203
a(S'healthy'
p1204
g315
tp1205
a(g1204
S'salad'
p1206
tp1207
a(g1204
g450
tp1208
a(g1204
S'marathon_runner'
p1209
tp1210
a(g1204
S'apple'
p1211
tp1212
a(g1204
g524
tp1213
a(g1204
S'wheat_germ'
p1214
tp1215
a(g1204
S'peach'
p1216
tp1217
a(g1204
S'spring_chicken'
p1218
tp1219
a(g1204
g864
tp1220
a(g1204
S'dessert'
p1221
tp1222
a(g1204
g486
tp1223
a(g1204
S'donut'
p1224
tp1225
a(g1204
g1054
tp1226
a(g1204
S'hamburger'
p1227
tp1228
a(g1204
S'cookie'
p1229
tp1230
a(g1204
S'junk_food'
p1231
tp1232
a(S'slithery'
p1233
g181
tp1234
a(S'adroit'
p1235
S'richelieu'
p1236
tp1237
a(g1235
g380
tp1238
a(g1235
S'juggler'
p1239
tp1240
a(g1235
g34
tp1241
a(S'potent'
p1242
g643
tp1243
a(g1242
g524
tp1244
a(g1242
g325
tp1245
a(g1242
S'truth_serum'
p1246
tp1247
a(g1242
g566
tp1248
a(g1242
S'tragedy'
p1249
tp1250
a(g1242
S'gun'
p1251
tp1252
a(g1242
S'bee_sting'
p1253
tp1254
a(g1242
S'moped'
p1255
tp1256
a(g1242
S'latte'
p1257
tp1258
a(g1242
S'placebo'
p1259
tp1260
a(S'brawny'
p1261
g594
tp1262
a(g1261
g660
tp1263
a(S'blind'
p1264
g737
tp1265
a(g1264
S'mole'
p1266
tp1267
a(g1264
S'tree_stump'
p1268
tp1269
a(g1264
S'moth'
p1270
tp1271
a(g1264
S'referee'
p1272
tp1273
a(g1264
g362
tp1274
a(S'lively'
p1275
S'cricket'
p1276
tp1277
a(g1275
g210
tp1278
a(g1275
S'jackson_pollock'
p1279
tp1280
a(g1275
S'fiddler'
p1281
tp1282
a(g1275
g778
tp1283
a(g1275
S'lamb'
p1284
tp1285
a(g1275
S'nightingale'
p1286
tp1287
a(g1275
S'market'
p1288
tp1289
a(g1275
g34
tp1290
a(g1275
S'salsa'
p1291
tp1292
a(g1275
g64
tp1293
a(g1275
S'cocktail_party'
p1294
tp1295
a(g1275
g78
tp1296
a(g1275
g352
tp1297
a(g1275
g124
tp1298
a(g1275
g968
tp1299
a(g1275
g971
tp1300
a(g1275
g486
tp1301
a(g1275
g980
tp1302
a(g1275
g965
tp1303
a(g1275
g480
tp1304
a(g1275
S'convent'
p1305
tp1306
a(g1275
S'skeleton'
p1307
tp1308
a(g1275
S'fish_stick'
p1309
tp1310
a(g1275
S'turnip'
p1311
tp1312
a(g1275
S'wax_figure'
p1313
tp1314
a(S'piercing'
p1315
g42
tp1316
a(g1315
S'meat_hook'
p1317
tp1318
a(g1315
g296
tp1319
a(g1315
S'scalpel'
p1320
tp1321
a(S'flexible'
p1322
g26
tp1323
a(g1322
g192
tp1324
a(g1322
S'pretzel'
p1325
tp1326
a(g1322
S'noodle'
p1327
tp1328
a(g1322
g187
tp1329
a(g1322
g4
tp1330
a(g1322
S'elastomer'
p1331
tp1332
a(g1322
S'yogi'
p1333
tp1334
a(g1322
S'spaghetti'
p1335
tp1336
a(g1322
S'printer_cable'
p1337
tp1338
a(g1322
S'tree_branch'
p1339
tp1340
a(g1322
g181
tp1341
a(g1322
g596
tp1342
a(g1322
S'rope'
p1343
tp1344
a(g1322
g149
tp1345
a(g1322
S'hairpin'
p1346
tp1347
a(g1322
S'bamboo'
p1348
tp1349
a(g1322
g62
tp1350
a(g1322
S'string'
p1351
tp1352
a(g1322
S'slipper'
p1353
tp1354
a(g1322
S'tortilla'
p1355
tp1356
a(g1322
g112
tp1357
a(g1322
g614
tp1358
a(g1322
S'cinder_block'
p1359
tp1360
a(g1322
S'spine'
p1361
tp1362
a(g1322
S'robot'
p1363
tp1364
a(g1322
g441
tp1365
a(S'penetrating'
p1366
g1320
tp1367
a(g1366
S'blade'
p1368
tp1369
a(g1366
S'lance'
p1370
tp1371
a(g1366
S'freight_train'
p1372
tp1373
a(S'lifeless'
p1374
g421
tp1375
a(g1374
g956
tp1376
a(g1374
g948
tp1377
a(g1374
g486
tp1378
a(g1374
g950
tp1379
a(g1374
g480
tp1380
a(g1374
S'doorknob'
p1381
tp1382
a(g1374
g965
tp1383
a(g1374
g448
tp1384
a(g1374
S'rag'
p1385
tp1386
a(g1374
g898
tp1387
a(g1374
S'paper_doll'
p1388
tp1389
a(g1374
g971
tp1390
a(g1374
S'machine'
p1391
tp1392
a(g1374
S'android'
p1393
tp1394
a(g1374
g441
tp1395
a(g1374
S'mask'
p1396
tp1397
a(S'unsexy'
p1398
S'wicker'
p1399
tp1400
a(S'imperfect'
p1401
S'defect'
p1402
tp1403
a(g1401
S'failure'
p1404
tp1405
a(S'slow'
p1406
g364
tp1407
a(g1406
g90
tp1408
a(g1406
g176
tp1409
a(g1406
g443
tp1410
a(g1406
S'cloud'
p1411
tp1412
a(g1406
S'hearse'
p1413
tp1414
a(g1406
g776
tp1415
a(g1406
S'blimp'
p1416
tp1417
a(g1406
g415
tp1418
a(g1406
g264
tp1419
a(g1406
S'tea_ceremony'
p1420
tp1421
a(g1406
g559
tp1422
a(g1406
g866
tp1423
a(g1406
g230
tp1424
a(g1406
g84
tp1425
a(g1406
g228
tp1426
a(g1406
g480
tp1427
a(g1406
S'panda'
p1428
tp1429
a(g1406
S'dirge'
p1430
tp1431
a(g1406
g745
tp1432
a(g1406
S'milk_float'
p1433
tp1434
a(g1406
g1054
tp1435
a(g1406
g366
tp1436
a(g1406
g100
tp1437
a(g1406
S'iceberg'
p1438
tp1439
a(g1406
g1049
tp1440
a(g1406
g973
tp1441
a(g1406
S'striptease'
p1442
tp1443
a(g1406
S'granny'
p1444
tp1445
a(g1406
S'dung_beetle'
p1446
tp1447
a(g1406
g88
tp1448
a(g1406
S'cripple'
p1449
tp1450
a(g1406
S'wombat'
p1451
tp1452
a(g1406
g294
tp1453
a(g1406
S'photon'
p1454
tp1455
a(S'awkward'
p1456
g130
tp1457
a(g1456
S'hound_dog'
p1458
tp1459
a(g1456
g399
tp1460
a(g1456
g106
tp1461
a(g1456
g452
tp1462
a(g1456
S'straitjacket'
p1463
tp1464
a(g1456
S'unicycle'
p1465
tp1466
a(g1456
g84
tp1467
a(g1456
g228
tp1468
a(g1456
g1449
tp1469
a(g1456
g774
tp1470
a(S'pointed'
p1471
S'needle'
p1472
tp1473
a(g1471
S'bayonet'
p1474
tp1475
a(g1471
g917
tp1476
a(g1471
S'pentagon'
p1477
tp1478
a(g1471
S'quill'
p1479
tp1480
a(g1471
g915
tp1481
a(g1471
S'ice_pick'
p1482
tp1483
a(g1471
g896
tp1484
a(g1471
S'parable'
p1485
tp1486
a(g1471
S'syringe'
p1487
tp1488
a(g1471
S'poniard'
p1489
tp1490
a(g1471
g927
tp1491
a(g1471
S'steeple'
p1492
tp1493
a(g1471
S'pyramid'
p1494
tp1495
a(g1471
S'dagger'
p1496
tp1497
a(g1471
g296
tp1498
a(g1471
S'black_vulture'
p1499
tp1500
a(g1471
S'pikestaff'
p1501
tp1502
a(g1471
g1320
tp1503
a(g1471
S'pike'
p1504
tp1505
a(g1471
S'spoon'
p1506
tp1507
a(g1471
S'beach_ball'
p1508
tp1509
a(g1471
S'teaspoon'
p1510
tp1511
a(g1471
S'volleyball'
p1512
tp1513
a(g1471
S'bowling_ball'
p1514
tp1515
a(S'supportive'
p1516
S'lily_pad'
p1517
tp1518
a(g1516
S'chair'
p1519
tp1520
a(g1516
S'husband'
p1521
tp1522
a(g1516
S'teammate'
p1523
tp1524
a(g1516
S'wife'
p1525
tp1526
a(g1516
S'parent'
p1527
tp1528
a(g1516
S'mattress'
p1529
tp1530
a(g1516
S'mother'
p1531
tp1532
a(g1516
S'bra'
p1533
tp1534
a(g1516
S'family'
p1535
tp1536
a(g1516
S'doctor'
p1537
tp1538
a(g1516
S'fatwa'
p1539
tp1540
a(g1516
S'tumor'
p1541
tp1542
a(S'sick'
p1543
g707
tp1544
a(g1543
S'parrot'
p1545
tp1546
a(g1543
g230
tp1547
a(g1543
g760
tp1548
a(S'effortless'
p1549
g4
tp1550
a(g1549
S'shrug'
p1551
tp1552
a(g1549
S'prima_ballerina'
p1553
tp1554
a(S'poised'
p1555
g22
tp1556
a(g1555
g36
tp1557
a(g1555
S'snake_charmer'
p1558
tp1559
a(g1555
g1126
tp1560
a(g1555
g181
tp1561
a(g1555
g275
tp1562
a(g1555
S'chess_piece'
p1563
tp1564
a(g1555
S'madonna'
p1565
tp1566
a(g1555
S'geisha'
p1567
tp1568
a(g1555
S'prima_donna'
p1569
tp1570
a(g1555
g1553
tp1571
a(g1555
g80
tp1572
a(S'homely'
p1573
g705
tp1574
a(g1573
S'oyster'
p1575
tp1576
a(g1573
g624
tp1577
a(S'buoyant'
p1578
S'cork'
p1579
tp1580
a(g1578
g1508
tp1581
a(g1578
S'balloon'
p1582
tp1583
a(g1578
g1411
tp1584
a(g1578
S'raft'
p1585
tp1586
a(g1578
g446
tp1587
a(S'quick'
p1588
g820
tp1589
a(g1588
S'hair_trigger'
p1590
tp1591
a(g1588
g12
tp1592
a(g1588
g50
tp1593
a(g1588
g329
tp1594
a(g1588
g151
tp1595
a(g1588
g279
tp1596
a(g1588
S'wink'
p1597
tp1598
a(g1588
g42
tp1599
a(g1588
S'viper'
p1600
tp1601
a(g1588
g153
tp1602
a(g1588
g572
tp1603
a(g1588
g352
tp1604
a(g1588
S'calculator'
p1605
tp1606
a(g1588
g275
tp1607
a(g1588
g564
tp1608
a(g1588
g607
tp1609
a(g1588
g824
tp1610
a(g1588
g327
tp1611
a(g1588
g778
tp1612
a(g1588
g874
tp1613
a(g1588
S'aircraft'
p1614
tp1615
a(g1588
g335
tp1616
a(g1588
S'eye_blink'
p1617
tp1618
a(g1588
S'racer'
p1619
tp1620
a(g1588
g251
tp1621
a(g1588
g163
tp1622
a(g1588
g840
tp1623
a(g1588
g189
tp1624
a(g1588
g294
tp1625
a(g1588
S'weasel'
p1626
tp1627
a(g1588
g6
tp1628
a(g1588
S'rapier'
p1629
tp1630
a(g1588
S'machine_gun'
p1631
tp1632
a(g1588
g858
tp1633
a(g1588
S'rattlesnake'
p1634
tp1635
a(g1588
g506
tp1636
a(g1588
g1185
tp1637
a(g1588
g338
tp1638
a(g1588
g18
tp1639
a(g1588
g34
tp1640
a(g1588
S'jungle_cat'
p1641
tp1642
a(g1588
S'hound'
p1643
tp1644
a(g1588
g38
tp1645
a(g1588
g531
tp1646
a(g1588
S'cougar'
p1647
tp1648
a(g1588
S'roadster'
p1649
tp1650
a(g1588
g256
tp1651
a(g1588
g315
tp1652
a(g1588
g806
tp1653
a(g1588
g803
tp1654
a(g1588
S'ambulance'
p1655
tp1656
a(g1588
g362
tp1657
a(g1588
g364
tp1658
a(g1588
g486
tp1659
a(g1588
S'willow_tree'
p1660
tp1661
a(g1588
g222
tp1662
a(g1588
S'traffic_jam'
p1663
tp1664
a(g1588
g230
tp1665
a(g1588
g176
tp1666
a(g1588
S'tramp'
p1667
tp1668
a(g1588
g760
tp1669
a(S'poisonous'
p1670
g1600
tp1671
a(g1670
S'wasp'
p1672
tp1673
a(g1670
g703
tp1674
a(g1670
g181
tp1675
a(g1670
g275
tp1676
a(g1670
S'scorpion'
p1677
tp1678
a(g1670
S'rattler'
p1679
tp1680
a(g1670
S'earthworm'
p1681
tp1682
a(S'ineffective'
p1683
S'pea_shooter'
p1684
tp1685
a(g1683
S'sponge'
p1686
tp1687
a(g1683
S'bb_gun'
p1688
tp1689
a(g1683
S'ham_sandwich'
p1690
tp1691
a(g1683
S'drunkard'
p1692
tp1693
a(g1683
g124
tp1694
a(S'immobile'
p1695
g441
tp1696
a(g1695
g448
tp1697
a(g1695
g1049
tp1698
a(g1695
g446
tp1699
a(g1695
S'building'
p1700
tp1701
a(g1695
S'stone'
p1702
tp1703
a(g1695
g173
tp1704
a(g1695
S'mountain_range'
p1705
tp1706
a(g1695
S'house'
p1707
tp1708
a(g1695
S'monument'
p1709
tp1710
a(g1695
g973
tp1711
a(g1695
S'cathedral'
p1712
tp1713
a(g1695
S'waxwork'
p1714
tp1715
a(g1695
g486
tp1716
a(S'manly'
p1717
g641
tp1718
a(g1717
S'razor'
p1719
tp1720
a(g1717
g431
tp1721
a(g1717
S'baseball_player'
p1722
tp1723
a(g1717
S'woman'
p1724
tp1725
a(g1717
S'girl'
p1726
tp1727
a(g1717
S'boy'
p1728
tp1729
a(g1717
S'girdle'
p1730
tp1731
a(S'virile'
p1732
g153
tp1733
a(g1732
g524
tp1734
a(g1732
g139
tp1735
a(g1732
S'hercules'
p1736
tp1737
a(g1732
S'vicar'
p1738
tp1739
a(S'cowardly'
p1740
S'coward'
p1741
tp1742
a(g1740
g862
tp1743
a(g1740
S'hyena'
p1744
tp1745
a(g1740
S'jackal'
p1746
tp1747
a(g1740
S'wimp'
p1748
tp1749
a(g1740
S'field_mouse'
p1750
tp1751
a(g1740
g151
tp1752
a(g1740
S'eunuch'
p1753
tp1754
a(S'fleet'
p1755
g14
tp1756
a(g1755
g251
tp1757
a(g1755
S'magician'
p1758
tp1759
a(g1755
g153
tp1760
a(g1755
S'pigeon'
p1761
tp1762
a(g1755
g6
tp1763
a(g1755
g42
tp1764
a(g1755
S'seagull'
p1765
tp1766
a(g1755
g151
tp1767
a(S'vital'
p1768
g50
tp1769
a(g1768
S'heart'
p1770
tp1771
a(g1768
g1268
tp1772
a(g1768
S'appendage'
p1773
tp1774
a(S'wriggly'
p1775
S'tadpole'
p1776
tp1777
a(g1775
g222
tp1778
a(S'helpless'
p1779
S'baby'
p1780
tp1781
a(g1779
S'babe'
p1782
tp1783
a(g1779
S'infant'
p1784
tp1785
a(g1779
g421
tp1786
a(g1779
S'rookie'
p1787
tp1788
a(g1779
S'puppet'
p1789
tp1790
a(g1779
g1284
tp1791
a(g1779
S'lady'
p1792
tp1793
a(g1779
g230
tp1794
a(g1779
g745
tp1795
a(g1779
S'chick'
p1796
tp1797
a(g1779
S'prey'
p1798
tp1799
a(g1779
S'idiot'
p1800
tp1801
a(g1779
g876
tp1802
a(g1779
S'stinger'
p1803
tp1804
a(g1779
S'piranha'
p1805
tp1806
a(S'hairless'
p1807
g1780
tp1808
a(g1807
S'cub_scout'
p1809
tp1810
a(g1807
g110
tp1811
a(g1807
g20
tp1812
a(g1807
g1784
tp1813
a(g1807
S'skull'
p1814
tp1815
a(g1807
g1514
tp1816
a(g1807
S'hotdog'
p1817
tp1818
a(g1807
S'guppy'
p1819
tp1820
a(S'tactile'
p1821
S'gypsy_moth'
p1822
tp1823
a(S'inactive'
p1824
S'mussel'
p1825
tp1826
a(g1824
g690
tp1827
a(g1824
g1702
tp1828
a(g1824
S'sea_anemone'
p1829
tp1830
a(g1824
g226
tp1831
a(S'restless'
p1832
S'cossack'
p1833
tp1834
a(g1832
g1744
tp1835
a(g1832
g572
tp1836
a(g1832
g224
tp1837
a(g1832
g34
tp1838
a(g1832
g342
tp1839
a(g1832
S'weathercock'
p1840
tp1841
a(g1832
g187
tp1842
a(S'explosive'
p1843
S'megaton_bomb'
p1844
tp1845
a(g1843
S'molotov_cocktail'
p1846
tp1847
a(g1843
g476
tp1848
a(g1843
S'firecracker'
p1849
tp1850
a(g1843
S'meteor_shower'
p1851
tp1852
a(g1843
g855
tp1853
a(g1843
S'petrol_bomb'
p1854
tp1855
a(g1843
g578
tp1856
a(g1843
S'bomb'
p1857
tp1858
a(g1843
g828
tp1859
a(g1843
S'molotov'
p1860
tp1861
a(g1843
S'coil_spring'
p1862
tp1863
a(g1843
S'suicide_bomber'
p1864
tp1865
a(g1843
S'sparkler'
p1866
tp1867
a(S'talentless'
p1868
g448
tp1869
a(g1868
S'potato'
p1870
tp1871
a(S'breathless'
p1872
g1209
tp1873
a(g1872
S'nightmare'
p1874
tp1875
a(g1872
S'marathon'
p1876
tp1877
a(g1872
S'whisper'
p1878
tp1879
a(S'toothless'
p1880
S'jellyfish'
p1881
tp1882
a(g1880
g516
tp1883
a(g1880
g692
tp1884
a(g1880
g1681
tp1885
a(g1880
g703
tp1886
a(g1880
S'lamprey'
p1887
tp1888
a(S'brisk'
p1889
g212
tp1890
a(g1889
S'snow_flurry'
p1891
tp1892
a(S'robust'
p1893
g603
tp1894
a(g1893
g643
tp1895
a(g1893
S'trooper'
p1896
tp1897
a(g1893
g294
tp1898
a(g1893
S'worker_bee'
p1899
tp1900
a(g1893
S'metal_bar'
p1901
tp1902
a(g1893
g452
tp1903
a(g1893
g429
tp1904
a(S'deaf'
p1905
S'post'
p1906
tp1907
a(g1905
S'doorpost'
p1908
tp1909
a(g1905
g1381
tp1910
a(g1905
g441
tp1911
a(g1905
g1268
tp1912
a(g1905
g780
tp1913
a(g1905
g1702
tp1914
a(g1905
S'tombstone'
p1915
tp1916
a(S'lethargic'
p1917
g228
tp1918
a(g1917
S'tree_sloth'
p1919
tp1920
a(g1917
g486
tp1921
a(g1917
g639
tp1922
a(S'dexterous'
p1923
g1758
tp1924
a(g1923
S'conjuror'
p1925
tp1926
a(g1923
S'conjurer'
p1927
tp1928
a(g1923
S'mongoose'
p1929
tp1930
a(S'sinuous'
p1931
g181
tp1932
a(g1931
S'anaconda'
p1933
tp1934
a(g1931
g201
tp1935
a(g1931
g386
tp1936
a(g1931
S'water_snake'
p1937
tp1938
a(S'addicted'
p1939
S'heroin_addict'
p1940
tp1941
a(S'carnivorous'
p1942
g528
tp1943
a(g1942
g352
tp1944
a(S'masculine'
p1945
g1095
tp1946
a(g1945
g285
tp1947
a(g1945
S'football_game'
p1948
tp1949
a(g1945
g1724
tp1950
a(g1945
S'skirt'
p1951
tp1952
a(g1945
S'pants_suit'
p1953
tp1954
a(g1945
S'manicure'
p1955
tp1956
a(S'heterosexual'
p1957
S'playboy'
p1958
tp1959
a(S'bouncy'
p1960
g199
tp1961
a(g1960
g778
tp1962
a(g1960
g399
tp1963
a(g1960
g1075
tp1964
a(g1960
g790
tp1965
a(S'tired'
p1966
g707
tp1967
a(g1966
g315
tp1968
a(g1966
S'cliche'
p1969
tp1970
a(g1966
g228
tp1971
a(S'surefooted'
p1972
g167
tp1973
a(g1972
g14
tp1974
a(g1972
g128
tp1975
a(g1972
g106
tp1976
a(g1972
g559
tp1977
a(g1972
S'billy_goat'
p1978
tp1979
a(g1972
g139
tp1980
a(g1972
g222
tp1981
a(S'drained'
p1982
g1789
tp1983
a(S'exhausted'
p1984
g1209
tp1985
a(g1984
S'exhaust_pipe'
p1986
tp1987
a(g1984
S'shipwreck_survivor'
p1988
tp1989
a(S'impotent'
p1990
g559
tp1991
a(g1990
g694
tp1992
a(g1990
g1753
tp1993
a(S'thirsty'
p1994
S'fish'
p1995
tp1996
a(g1994
g1686
tp1997
a(g1994
g315
tp1998
a(g1994
g106
tp1999
a(g1994
S'bedouin'
p2000
tp2001
a(g1994
S'dromedary'
p2002
tp2003
a(g1994
S'sieve'
p2004
tp2005
a(S'mute'
p2006
S'maggot'
p2007
tp2008
a(g2006
g1995
tp2009
a(g2006
g1381
tp2010
a(g2006
g950
tp2011
a(g2006
g559
tp2012
a(g2006
S'poker'
p2013
tp2014
a(g2006
g898
tp2015
a(g2006
g441
tp2016
a(S'capable'
p2017
S'laptop_computer'
p2018
tp2019
a(g2017
S'desktop_computer'
p2020
tp2021
a(g2017
S'workhorse'
p2022
tp2023
a(g2017
S'hacker'
p2024
tp2025
a(g2017
S'administrator'
p2026
tp2027
a(g2017
g654
tp2028
a(g2017
S'judge'
p2029
tp2030
a(g2017
S'leader'
p2031
tp2032
a(g2017
g592
tp2033
a(g2017
S'mirage'
p2034
tp2035
a(g2017
g110
tp2036
a(g2017
S'insect'
p2037
tp2038
a(S'vigorous'
p2039
S'sugar_maple'
p2040
tp2041
a(g2039
S'pirate'
p2042
tp2043
a(g2039
S'weed'
p2044
tp2045
a(g2039
S'boston_fern'
p2046
tp2047
a(g2039
g564
tp2048
a(S'inanimate'
p2049
g448
tp2050
a(g2049
g1251
tp2051
a(g2049
S'computer'
p2052
tp2053
a(g2049
S'shell'
p2054
tp2055
a(g2049
S'football'
p2056
tp2057
a(g2049
g956
tp2058
a(g2049
g1396
tp2059
a(g2049
g1702
tp2060
a(g2049
g441
tp2061
a(g2049
g1519
tp2062
a(g2049
g86
tp2063
a(g2049
S'totem_pole'
p2064
tp2065
a(g2049
g112
tp2066
a(g2049
g468
tp2067
a(g2049
g879
tp2068
a(S'athletic'
p2069
g26
tp2070
a(g2069
g1066
tp2071
a(g2069
g1006
tp2072
a(g2069
g1381
tp2073
a(g2069
S'abalone'
p2074
tp2075
a(g2069
g1054
tp2076
a(g2069
g1004
tp2077
a(S'ravenous'
p2078
g543
tp2079
a(g2078
g572
tp2080
a(g2078
g598
tp2081
a(S'unsightly'
p2082
S'garbage_dump'
p2083
tp2084
a(S'delicate'
p2085
g46
tp2086
a(g2085
S'orchid'
p2087
tp2088
a(g2085
S'seashell'
p2089
tp2090
a(g2085
S'flower_petal'
p2091
tp2092
a(g2085
g684
tp2093
a(g2085
S'petal'
p2094
tp2095
a(g2085
g735
tp2096
a(g2085
S'breeze'
p2097
tp2098
a(g2085
g10
tp2099
a(g2085
S'wind_chime'
p2100
tp2101
a(g2085
g1411
tp2102
a(g2085
S'breath'
p2103
tp2104
a(g2085
S'tissue'
p2105
tp2106
a(g2085
S'crane'
p2107
tp2108
a(g2085
S'meringue'
p2109
tp2110
a(g2085
g2037
tp2111
a(g2085
S'blossom'
p2112
tp2113
a(g2085
S'cobweb'
p2114
tp2115
a(g2085
g48
tp2116
a(g2085
S'flower_bud'
p2117
tp2118
a(g2085
g963
tp2119
a(g2085
S'flute'
p2120
tp2121
a(g2085
S'snowflake'
p2122
tp2123
a(g2085
g1780
tp2124
a(g2085
g248
tp2125
a(g2085
g1270
tp2126
a(g2085
g4
tp2127
a(g2085
S'potato_chip'
p2128
tp2129
a(g2085
S'seedling'
p2130
tp2131
a(g2085
S'egg'
p2132
tp2133
a(g2085
S'dew'
p2134
tp2135
a(g2085
S'neurosurgeon'
p2136
tp2137
a(g2085
S'jeweler'
p2138
tp2139
a(g2085
S'rosebush'
p2140
tp2141
a(g2085
S'goose_egg'
p2142
tp2143
a(g2085
S'seismograph'
p2144
tp2145
a(g2085
g2034
tp2146
a(g2085
S'baby_bird'
p2147
tp2148
a(g2085
S'soap_bubble'
p2149
tp2150
a(g2085
S'french_pastry'
p2151
tp2152
a(g2085
S'daffodil'
p2153
tp2154
a(g2085
S'layer_cake'
p2155
tp2156
a(g2085
S'wisp'
p2157
tp2158
a(g2085
S'daddy_longlegs'
p2159
tp2160
a(g2085
S'lily'
p2161
tp2162
a(g2085
S'ladybird'
p2163
tp2164
a(g2085
S'sledge'
p2165
tp2166
a(g2085
g446
tp2167
a(g2085
S'john_deere'
p2168
tp2169
a(g2085
g643
tp2170
a(g2085
g652
tp2171
a(g2085
g611
tp2172
a(g2085
g452
tp2173
a(g2085
S'abattoir'
p2174
tp2175
a(g2085
g1514
tp2176
a(S'flimsy'
p2177
S'paper_towel'
p2178
tp2179
a(g2177
S'screen_door'
p2180
tp2181
a(g2177
S'spider_web'
p2182
tp2183
a(g2177
g248
tp2184
a(g2177
g2149
tp2185
a(g2177
S'tissue_paper'
p2186
tp2187
a(g2177
S'mist'
p2188
tp2189
a(S'natural'
p2190
g468
tp2191
a(g2190
S'waterfall'
p2192
tp2193
a(g2190
g46
tp2194
a(g2190
S'plant'
p2195
tp2196
a(g2190
g570
tp2197
a(g2190
g1995
tp2198
a(g2190
g2122
tp2199
a(g2190
g1339
tp2200
a(g2190
g212
tp2201
a(g2190
S'songbird'
p2202
tp2203
a(g2190
S'redwood'
p2204
tp2205
a(g2190
S'sunflower'
p2206
tp2207
a(g2190
S'bowel_movement'
p2208
tp2209
a(g2190
g6
tp2210
a(g2190
g56
tp2211
a(g2190
S'toupee'
p2212
tp2213
a(S'weak'
p2214
g124
tp2215
a(g2214
g698
tp2216
a(g2214
g1782
tp2217
a(g2214
g1784
tp2218
a(g2214
S'thread'
p2219
tp2220
a(g2214
g2182
tp2221
a(g2214
g1780
tp2222
a(g2214
S'shirley_temple'
p2223
tp2224
a(g2214
g421
tp2225
a(g2214
g2091
tp2226
a(g2214
S'mosquito'
p2227
tp2228
a(g2214
g415
tp2229
a(g2214
g1284
tp2230
a(g2214
S'slacker'
p2231
tp2232
a(g2214
S'pygmy'
p2233
tp2234
a(g2214
g222
tp2235
a(g2214
g2122
tp2236
a(g2214
g745
tp2237
a(g2214
S'fruit_fly'
p2238
tp2239
a(g2214
S'child'
p2240
tp2241
a(g2214
g248
tp2242
a(g2214
g2178
tp2243
a(g2214
S'teddy_bear'
p2244
tp2245
a(g2214
g399
tp2246
a(g2214
g256
tp2247
a(g2214
S'chicken'
p2248
tp2249
a(g2214
S'schoolgirl'
p2250
tp2251
a(g2214
S'waft'
p2252
tp2253
a(g2214
g2114
tp2254
a(g2214
g46
tp2255
a(g2214
g1660
tp2256
a(S'elastic'
p2257
S'bungee_cord'
p2258
tp2259
a(g2257
g1582
tp2260
a(g2257
S'spring'
p2261
tp2262
a(S'real'
p2263
g448
tp2264
a(g2263
S'earthquake'
p2265
tp2266
a(g2263
g570
tp2267
a(g2263
S'documentary'
p2268
tp2269
a(g2263
g2034
tp2270
a(g2263
S'dream'
p2271
tp2272
a(g2263
S'puppet_show'
p2273
tp2274
a(g2263
S'prosthesis'
p2275
tp2276
a(g2263
S'movie'
p2277
tp2278
a(g2263
S'video_game'
p2279
tp2280
a(S'blunt'
p2281
S'butter_knife'
p2282
tp2283
a(g2281
S'sledgehammer'
p2284
tp2285
a(g2281
g1506
tp2286
a(g2281
g2165
tp2287
a(g2281
g333
tp2288
a(g2281
g116
tp2289
a(g2281
S'broom_handle'
p2290
tp2291
a(g2281
S'banana'
p2292
tp2293
a(g2281
S'mallet'
p2294
tp2295
a(g2281
S'cudgel'
p2296
tp2297
a(g2281
g1508
tp2298
a(g2281
S'twobyfour'
p2299
tp2300
a(g2281
g118
tp2301
a(g2281
S'axe'
p2302
tp2303
a(S'mortal'
p2304
g486
tp2305
a(S'airy'
p2306
S'sandal'
p2307
tp2308
a(g2306
g2103
tp2309
a(g2306
g1508
tp2310
a(S'dry'
p2311
S'martini'
p2312
tp2313
a(g2311
S'bone'
p2314
tp2315
a(g2311
S'crust'
p2316
tp2317
a(g2311
g769
tp2318
a(g2311
S'sand_trap'
p2319
tp2320
a(g2311
S'saltine'
p2321
tp2322
a(g2311
g1686
tp2323
a(g2311
g1008
tp2324
a(g2311
S'dust_devil'
p2325
tp2326
a(g2311
S'biscuit'
p2327
tp2328
a(g2311
S'sauvignon_blanc'
p2329
tp2330
a(g2311
g1995
tp2331
a(g2311
S'frog'
p2332
tp2333
a(g2311
S'beaver'
p2334
tp2335
a(g2311
S'herring'
p2336
tp2337
a(S'liquid'
p2338
S'savings_account'
p2339
tp2340
a(g2338
S'money_market'
p2341
tp2342
a(g2338
S'treasury_bond'
p2343
tp2344
a(g2338
S'soup'
p2345
tp2346
a(g2338
S'government_bond'
p2347
tp2348
a(g2338
g1514
tp2349
a(S'pregnant'
p2350
g108
tp2351
a(g2350
S'haiku'
p2352
tp2353
a(g2350
S'milk_cow'
p2354
tp2355
a(g2350
g774
tp2356
a(g2350
S'bucket'
p2357
tp2358
a(S'safe'
p2359
g1707
tp2360
a(g2359
g609
tp2361
a(g2359
g1259
tp2362
a(g2359
S'womb'
p2363
tp2364
a(g2359
S'vault'
p2365
tp2366
a(g2359
S'hospital'
p2367
tp2368
a(g2359
S'library'
p2369
tp2370
a(g2359
S'deposit_account'
p2371
tp2372
a(g2359
S'goldfish_bowl'
p2373
tp2374
a(g2359
g971
tp2375
a(g2359
g556
tp2376
a(g2359
S'cocoon'
p2377
tp2378
a(g2359
S'drug'
p2379
tp2380
a(g2359
g578
tp2381
a(S'hard'
p2382
g448
tp2383
a(g2382
S'flint'
p2384
tp2385
a(g2382
S'nail'
p2386
tp2387
a(g2382
g590
tp2388
a(g2382
g446
tp2389
a(g2382
g1043
tp2390
a(g2382
g1915
tp2391
a(g2382
g879
tp2392
a(g2382
g1514
tp2393
a(g2382
g858
tp2394
a(g2382
g611
tp2395
a(g2382
S'heavyweight'
p2396
tp2397
a(g2382
g325
tp2398
a(g2382
S'granite'
p2399
tp2400
a(g2382
g441
tp2401
a(g2382
g112
tp2402
a(g2382
S'brickbat'
p2403
tp2404
a(g2382
g1372
tp2405
a(g2382
S'fist'
p2406
tp2407
a(g2382
S'mike_tyson'
p2408
tp2409
a(g2382
g333
tp2410
a(g2382
g454
tp2411
a(g2382
g621
tp2412
a(g2382
g2302
tp2413
a(g2382
S'headstone'
p2414
tp2415
a(g2382
S'river_boulder'
p2416
tp2417
a(g2382
g1702
tp2418
a(g2382
S'steel_plate'
p2419
tp2420
a(g2382
S'pine_knot'
p2421
tp2422
a(g2382
S'knife'
p2423
tp2424
a(g2382
S'tire_iron'
p2425
tp2426
a(g2382
g838
tp2427
a(g2382
S'ball_bearing'
p2428
tp2429
a(g2382
g603
tp2430
a(g2382
g650
tp2431
a(g2382
g658
tp2432
a(g2382
g550
tp2433
a(g2382
g92
tp2434
a(g2382
S'rivet'
p2435
tp2436
a(g2382
g116
tp2437
a(g2382
S'pillow'
p2438
tp2439
a(g2382
S'sock'
p2440
tp2441
a(g2382
S'eggshell'
p2442
tp2443
a(g2382
S'milk_tooth'
p2444
tp2445
a(g2382
g2109
tp2446
a(S'stiff'
p2447
g2013
tp2448
a(g2447
S'board'
p2449
tp2450
a(g2447
g913
tp2451
a(g2447
S'plank'
p2452
tp2453
a(g2447
g1906
tp2454
a(g2447
g486
tp2455
a(g2447
g1054
tp2456
a(g2447
S'flagpole'
p2457
tp2458
a(g2447
g448
tp2459
a(g2447
g1363
tp2460
a(g2447
g932
tp2461
a(g2447
g2290
tp2462
a(g2447
g98
tp2463
a(g2447
S'crutch'
p2464
tp2465
a(g2447
S'rod'
p2466
tp2467
a(g2447
g898
tp2468
a(g2447
g1049
tp2469
a(g2447
g948
tp2470
a(g2447
g450
tp2471
a(g2447
g468
tp2472
a(g2447
S'telegraph_pole'
p2473
tp2474
a(g2447
g454
tp2475
a(g2447
g952
tp2476
a(g2447
g480
tp2477
a(g2447
S'cane'
p2478
tp2479
a(g2447
S'drum'
p2480
tp2481
a(g2447
S'popsicle'
p2482
tp2483
a(g2447
S'hardwood'
p2484
tp2485
a(g2447
S'plate'
p2486
tp2487
a(g2447
S'surfboard'
p2488
tp2489
a(g2447
S'ramrod'
p2490
tp2491
a(g2447
g956
tp2492
a(g2447
S'icicle'
p2493
tp2494
a(g2447
g1361
tp2495
a(g2447
g322
tp2496
a(g2447
S'broom'
p2497
tp2498
a(g2447
S'coat_hanger'
p2499
tp2500
a(g2447
g1496
tp2501
a(g2447
S'superstructure'
p2502
tp2503
a(g2447
g296
tp2504
a(g2447
g207
tp2505
a(g2447
S'mohawk'
p2506
tp2507
a(g2447
S'broomstick'
p2508
tp2509
a(g2447
g441
tp2510
a(g2447
g112
tp2511
a(g2447
g893
tp2512
a(g2447
g616
tp2513
a(g2447
g1862
tp2514
a(g2447
S'toy_soldier'
p2515
tp2516
a(g2447
g590
tp2517
a(g2447
S'mast'
p2518
tp2519
a(g2447
S'hardtop'
p2520
tp2521
a(g2447
S'pipe'
p2522
tp2523
a(S'naked'
p2524
S'jay'
p2525
tp2526
a(g2524
g1780
tp2527
a(g2524
g181
tp2528
a(g2524
g745
tp2529
a(g2524
S'buck'
p2530
tp2531
a(g2524
g1776
tp2532
a(g2524
g230
tp2533
a(g2524
S'lima_bean'
p2534
tp2535
a(g2524
S'orangutan'
p2536
tp2537
a(g2524
S'castaway'
p2538
tp2539
a(S'unnatural'
p2540
S'graveyard_shift'
p2541
tp2542
a(g2540
S'automaton'
p2543
tp2544
a(g2540
S'steroid'
p2545
tp2546
a(g2540
g2
tp2547
a(S'soft'
p2548
g2438
tp2549
a(g2548
g694
tp2550
a(g2548
g2094
tp2551
a(g2548
g248
tp2552
a(g2548
g1216
tp2553
a(g2548
g1686
tp2554
a(g2548
g1878
tp2555
a(g2548
S'ear_lobe'
p2556
tp2557
a(g2548
g1529
tp2558
a(g2548
S'poodle'
p2559
tp2560
a(g2548
g2244
tp2561
a(g2548
S'glove'
p2562
tp2563
a(g2548
g1411
tp2564
a(g2548
S'caress'
p2565
tp2566
a(g2548
g124
tp2567
a(g2548
S'cushion'
p2568
tp2569
a(g2548
S'blanket'
p2570
tp2571
a(g2548
S'chamois_cloth'
p2572
tp2573
a(g2548
S'shag_rug'
p2574
tp2575
a(g2548
S'fur_coat'
p2576
tp2577
a(g2548
g2122
tp2578
a(g2548
S'mink_coat'
p2579
tp2580
a(g2548
S'sidewalk'
p2581
tp2582
a(g2548
g570
tp2583
a(g2548
S'roadside'
p2584
tp2585
a(g2548
S'shipyard'
p2586
tp2587
a(g2548
g1870
tp2588
a(g2548
S'chainsaw'
p2589
tp2590
a(g2548
S'icepick'
p2591
tp2592
a(g2548
S'cymbal'
p2593
tp2594
a(g2548
g1496
tp2595
a(g2548
g1075
tp2596
a(S'fresh'
p2597
S'daisy'
p2598
tp2599
a(g2597
S'rose'
p2600
tp2601
a(g2597
S'queen'
p2602
tp2603
a(g2597
g2161
tp2604
a(g2597
S'beginner'
p2605
tp2606
a(g2597
g1780
tp2607
a(g2597
g46
tp2608
a(g2597
g2117
tp2609
a(g2597
S'lark'
p2610
tp2611
a(g2597
S'berry'
p2612
tp2613
a(g2597
g2097
tp2614
a(g2597
g782
tp2615
a(g2597
S'shamrock'
p2616
tp2617
a(g2597
S'shower'
p2618
tp2619
a(g2597
S'ingenue'
p2620
tp2621
a(g2597
g1787
tp2622
a(g2597
S'herb_garden'
p2623
tp2624
a(g2597
S'lake'
p2625
tp2626
a(g2597
g2122
tp2627
a(g2597
S'geisha_girl'
p2628
tp2629
a(g2597
g990
tp2630
a(g2597
S'primrose'
p2631
tp2632
a(g2597
S'citrus'
p2633
tp2634
a(g2597
g1216
tp2635
a(g2597
S'rain'
p2636
tp2637
a(g2597
g443
tp2638
a(g2597
S'lettuce'
p2639
tp2640
a(g2597
g2134
tp2641
a(g2597
S'spray'
p2642
tp2643
a(g2597
S'cowslip'
p2644
tp2645
a(g2597
g1049
tp2646
a(g2597
S'trash_can'
p2647
tp2648
a(g2597
g2007
tp2649
a(S'hollow'
p2650
S'ghost'
p2651
tp2652
a(g2650
g2480
tp2653
a(g2650
g2054
tp2654
a(g2650
g491
tp2655
a(g2650
S'cave'
p2656
tp2657
a(g2650
S'clay_pipe'
p2658
tp2659
a(g2650
g1508
tp2660
a(g2650
S'gourd'
p2661
tp2662
a(g2650
S"jacko'lantern"
p2663
tp2664
a(g2650
g2314
tp2665
a(g2650
g201
tp2666
a(g2650
S'bell'
p2667
tp2668
a(g2650
S'hoax'
p2669
tp2670
a(g2650
S'church_bell'
p2671
tp2672
a(g2650
S'coconut'
p2673
tp2674
a(g2650
S'tunnel'
p2675
tp2676
a(g2650
g2271
tp2677
a(g2650
S'jackolantern'
p2678
tp2679
a(g2650
S'drain'
p2680
tp2681
a(S'complete'
p2682
S'encyclopedia'
p2683
tp2684
a(g2682
S'core_dump'
p2685
tp2686
a(g2682
S'reference_book'
p2687
tp2688
a(g2682
S'blueprint'
p2689
tp2690
a(g2682
S'treatise'
p2691
tp2692
a(S'straight'
p2693
S'die'
p2694
tp2695
a(g2693
S'ruler'
p2696
tp2697
a(g2693
g331
tp2698
a(g2693
g913
tp2699
a(g2693
g2013
tp2700
a(g2693
S'gun_barrel'
p2701
tp2702
a(g2693
S'hem'
p2703
tp2704
a(g2693
g327
tp2705
a(g2693
g201
tp2706
a(g2693
g932
tp2707
a(g2693
S'line'
p2708
tp2709
a(g2693
g2490
tp2710
a(g2693
g2457
tp2711
a(g2693
g1370
tp2712
a(g2693
S'sunbeam'
p2713
tp2714
a(g2693
S'laser_beam'
p2715
tp2716
a(g2693
g1472
tp2717
a(g2693
g896
tp2718
a(g2693
g2386
tp2719
a(g2693
S'bowstring'
p2720
tp2721
a(g2693
g1719
tp2722
a(g2693
g927
tp2723
a(g2693
g322
tp2724
a(g2693
S'chopstick'
p2725
tp2726
a(g2693
g296
tp2727
a(g2693
g2449
tp2728
a(g2693
g1906
tp2729
a(g2693
g893
tp2730
a(g2693
g616
tp2731
a(g2693
g2290
tp2732
a(g2693
S'lamppost'
p2733
tp2734
a(g2693
g2452
tp2735
a(g2693
S'rifle_shot'
p2736
tp2737
a(g2693
S'chimney'
p2738
tp2739
a(g2693
g603
tp2740
a(g2693
g650
tp2741
a(g2693
S'rail_fence'
p2742
tp2743
a(g2693
g325
tp2744
a(g2693
g1474
tp2745
a(g2693
S'expressway'
p2746
tp2747
a(g2693
g178
tp2748
a(g2693
g2473
tp2749
a(g2693
S'corkscrew'
p2750
tp2751
a(g2693
S'boomerang'
p2752
tp2753
a(g2693
S'rainbow'
p2754
tp2755
a(g2693
S'circle'
p2756
tp2757
a(g2693
S'tire'
p2758
tp2759
a(g2693
S'hoop'
p2760
tp2761
a(g2693
S'phone_cord'
p2762
tp2763
a(g2693
S'sidewinder'
p2764
tp2765
a(g2693
S'mobius_strip'
p2766
tp2767
a(g2693
S'paper_clip'
p2768
tp2769
a(g2693
S'basketball_hoop'
p2770
tp2771
a(S'crooked'
p2772
g2750
tp2773
a(g2772
S'politician'
p2774
tp2775
a(g2772
g181
tp2776
a(g2772
S'question_mark'
p2777
tp2778
a(g2772
S'boa_constrictor'
p2779
tp2780
a(g2772
g1325
tp2781
a(g2772
S'lawyer'
p2782
tp2783
a(g2772
g2752
tp2784
a(g2772
g1634
tp2785
a(g2772
S'water_moccasin'
p2786
tp2787
a(g2772
S'hunchback'
p2788
tp2789
a(g2772
S'counterfeiter'
p2790
tp2791
a(g2772
S'quack'
p2792
tp2793
a(g2772
g1862
tp2794
a(S'simple'
p2795
g2240
tp2796
a(g2795
g448
tp2797
a(g2795
g2713
tp2798
a(S'dirty'
p2799
g752
tp2800
a(g2799
S'toilet_seat'
p2801
tp2802
a(g2799
S'street_fighter'
p2803
tp2804
a(g2799
S'ditch_digger'
p2805
tp2806
a(g2799
S'coal_miner'
p2807
tp2808
a(g2799
g1166
tp2809
a(g2799
g718
tp2810
a(g2799
g711
tp2811
a(g2799
S'sewer'
p2812
tp2813
a(g2799
g1083
tp2814
a(g2799
S'stable'
p2815
tp2816
a(g2799
S'prostitute'
p2817
tp2818
a(g2799
S'tractor_trailer'
p2819
tp2820
a(g2799
S'tinker'
p2821
tp2822
a(g2799
S'greaser'
p2823
tp2824
a(g2799
S'sewer_rat'
p2825
tp2826
a(g2799
S'pigsty'
p2827
tp2828
a(g2799
S'swine'
p2829
tp2830
a(g2799
S'gargoyle'
p2831
tp2832
a(g2799
S'pigpen'
p2833
tp2834
a(g2799
S'clock'
p2835
tp2836
a(S'impermanent'
p2837
S'mayfly'
p2838
tp2839
a(g2837
g1411
tp2840
a(g2837
S'shooting_star'
p2841
tp2842
a(g2837
S'mandala'
p2843
tp2844
a(g2837
g988
tp2845
a(S'light'
p2846
g248
tp2847
a(g2846
g2114
tp2848
a(g2846
g2097
tp2849
a(g2846
g10
tp2850
a(g2846
g78
tp2851
a(g2846
g1411
tp2852
a(g2846
g694
tp2853
a(g2846
g58
tp2854
a(g2846
g1206
tp2855
a(g2846
g2109
tp2856
a(g2846
S'cirrus_cloud'
p2857
tp2858
a(g2846
g2122
tp2859
a(g2846
g2149
tp2860
a(g2846
S'pebble'
p2861
tp2862
a(g2846
g16
tp2863
a(g2846
g2094
tp2864
a(g2846
S'leaf'
p2865
tp2866
a(g2846
g2438
tp2867
a(g2846
g212
tp2868
a(g2846
S'duckling'
p2869
tp2870
a(g2846
g161
tp2871
a(g2846
S'windbreaker'
p2872
tp2873
a(g2846
S'spirit'
p2874
tp2875
a(g2846
g927
tp2876
a(g2846
g4
tp2877
a(g2846
g6
tp2878
a(g2846
g1510
tp2879
a(g2846
S'croissant'
p2880
tp2881
a(g2846
S'veil'
p2882
tp2883
a(g2846
g2562
tp2884
a(g2846
S'smile'
p2885
tp2886
a(g2846
S'cotton_ball'
p2887
tp2888
a(g2846
S'membrane'
p2889
tp2890
a(g2846
S'sponge_cake'
p2891
tp2892
a(g2846
g205
tp2893
a(g2846
S'pickup_truck'
p2894
tp2895
a(g2846
g2284
tp2896
a(S'lovely'
p2897
S'rice_paper'
p2898
tp2899
a(g2897
g990
tp2900
a(g2897
g2087
tp2901
a(g2897
g46
tp2902
a(g2897
S'orchard'
p2903
tp2904
a(g2897
g2192
tp2905
a(g2897
g782
tp2906
a(g2897
g10
tp2907
a(g2897
g2271
tp2908
a(g2897
g2161
tp2909
a(g2897
g952
tp2910
a(g2897
S'cake'
p2911
tp2912
a(g2897
g2667
tp2913
a(g2897
g963
tp2914
a(g2897
S'pear'
p2915
tp2916
a(g2897
g995
tp2917
a(g2897
g1286
tp2918
a(g2897
g58
tp2919
a(g2897
S'chime'
p2920
tp2921
a(g2897
S'cherub'
p2922
tp2923
a(g2897
S'pie'
p2924
tp2925
a(g2897
g2602
tp2926
a(g2897
S'candy'
p2927
tp2928
a(g2897
S'jasmine'
p2929
tp2930
a(g2897
g6
tp2931
a(g2897
g44
tp2932
a(g2897
g2
tp2933
a(g2897
S'sunrise'
p2934
tp2935
a(g2897
S'mistress'
p2936
tp2937
a(g2897
g590
tp2938
a(g2897
g2134
tp2939
a(g2897
S'kitty'
p2940
tp2941
a(g2897
S'toilet'
p2942
tp2943
a(g2897
S'billboard'
p2944
tp2945
a(g2897
S'blast_furnace'
p2946
tp2947
a(g2897
S'garbage_can'
p2948
tp2949
a(g2897
S'pee'
p2950
tp2951
a(g2897
S'junkie'
p2952
tp2953
a(g2897
S'pearl'
p2954
tp2955
a(S'runny'
p2956
S'egg_yolk'
p2957
tp2958
a(S'tight'
p2959
g2480
tp2960
a(g2959
g2406
tp2961
a(g2959
g2562
tp2962
a(g2959
S'vise'
p2963
tp2964
a(g2959
g2720
tp2965
a(g2959
S'pressure_cooker'
p2966
tp2967
a(g2959
S'miser'
p2968
tp2969
a(g2959
g185
tp2970
a(g2959
S'noose'
p2971
tp2972
a(g2959
S'condom'
p2973
tp2974
a(g2959
S'treasure_chest'
p2975
tp2976
a(g2959
S'corset'
p2977
tp2978
a(g2959
g973
tp2979
a(g2959
S'tourniquet'
p2980
tp2981
a(g2959
S'bracelet'
p2982
tp2983
a(g2959
g1582
tp2984
a(g2959
S'yoke'
p2985
tp2986
a(g2959
g2132
tp2987
a(g2959
S'mason_jar'
p2988
tp2989
a(g2959
S'marriage'
p2990
tp2991
a(g2959
S'thermos_bottle'
p2992
tp2993
a(g2959
S'suture'
p2994
tp2995
a(g2959
S'tennis_racquet'
p2996
tp2997
a(g2959
S'barnacle'
p2998
tp2999
a(g2959
g2365
tp3000
a(g2959
S'shroud'
p3001
tp3002
a(g2959
S'locker'
p3003
tp3004
a(g2959
S'dog_collar'
p3005
tp3006
a(g2959
S'leotard'
p3007
tp3008
a(g2959
g609
tp3009
a(g2959
S'choker'
p3010
tp3011
a(g2959
S'tambourine'
p3012
tp3013
a(g2959
S'jar'
p3014
tp3015
a(g2959
g1730
tp3016
a(g2959
S'life_preserver'
p3017
tp3018
a(g2959
S'leech'
p3019
tp3020
a(g2959
S'bathing_cap'
p3021
tp3022
a(g2959
S'garter_belt'
p3023
tp3024
a(g2959
S'cell_membrane'
p3025
tp3026
a(g2959
g2244
tp3027
a(g2959
g2004
tp3028
a(g2959
S'colander'
p3029
tp3030
a(S'neat'
p3031
g1537
tp3032
a(g3031
g1719
tp3033
a(g3031
S'spinster'
p3034
tp3035
a(g3031
S'neutron_bomb'
p3036
tp3037
a(g3031
g48
tp3038
a(g3031
S'butcher'
p3039
tp3040
a(S'barren'
p3041
S'strip_mall'
p3042
tp3043
a(g3041
S'dune'
p3044
tp3045
a(g3041
S'battlefield'
p3046
tp3047
a(g3041
g448
tp3048
a(g3041
S'ice_field'
p3049
tp3050
a(g3041
S'wasteland'
p3051
tp3052
a(g3041
S'wheat_field'
p3053
tp3054
a(S'complicated'
p3055
S'wiring_diagram'
p3056
tp3057
a(g3055
g417
tp3058
a(g3055
g219
tp3059
a(g3055
S'web'
p3060
tp3061
a(g3055
S'labyrinth'
p3062
tp3063
a(g3055
S'jigsaw_puzzle'
p3064
tp3065
a(g3055
S'space_shuttle'
p3066
tp3067
a(g3055
S'suspension_bridge'
p3068
tp3069
a(g3055
g2122
tp3070
a(g3055
g2683
tp3071
a(g3055
S'microprocessor'
p3072
tp3073
a(g3055
g2750
tp3074
a(g3055
S'rube_goldberg'
p3075
tp3076
a(g3055
S'maze'
p3077
tp3078
a(g3055
S'pencil_sharpener'
p3079
tp3080
a(g3055
g333
tp3081
a(g3055
g760
tp3082
a(S'frozen'
p3083
g2482
tp3084
a(g3083
g441
tp3085
a(g3083
g1396
tp3086
a(g3083
g443
tp3087
a(g3083
g448
tp3088
a(g3083
g486
tp3089
a(g3083
S'snowman'
p3090
tp3091
a(S'balanced'
p3092
g28
tp3093
a(g3092
S'gyroscope'
p3094
tp3095
a(g3092
S'cantilever_bridge'
p3096
tp3097
a(g3092
g8
tp3098
a(g3092
g1494
tp3099
a(g3092
S'nut_case'
p3100
tp3101
a(S'sterile'
p3102
g2367
tp3103
a(g3102
g559
tp3104
a(g3102
S'hospital_ward'
p3105
tp3106
a(g3102
S'gauze_bandage'
p3107
tp3108
a(g3102
g2887
tp3109
a(g3102
g1753
tp3110
a(g3102
S'brain_surgery'
p3111
tp3112
a(S'sturdy'
p3113
g603
tp3114
a(g3113
g448
tp3115
a(g3113
S'trunk'
p3116
tp3117
a(g3113
g1707
tp3118
a(g3113
S'bridge'
p3119
tp3120
a(g3113
g173
tp3121
a(g3113
g942
tp3122
a(g3113
g1104
tp3123
a(g3113
S'plow_horse'
p3124
tp3125
a(g3113
g112
tp3126
a(g3113
g559
tp3127
a(g3113
S'barn'
p3128
tp3129
a(g3113
g2022
tp3130
a(g3113
S'warship'
p3131
tp3132
a(g3113
g205
tp3133
a(g3113
g643
tp3134
a(g3113
g580
tp3135
a(g3113
g86
tp3136
a(g3113
g2044
tp3137
a(g3113
g2399
tp3138
a(g3113
S'screw'
p3139
tp3140
a(g3113
g1906
tp3141
a(g3113
g2299
tp3142
a(g3113
g556
tp3143
a(g3113
g552
tp3144
a(g3113
g468
tp3145
a(g3113
g528
tp3146
a(g3113
S'axe_handle'
p3147
tp3148
a(g3113
g592
tp3149
a(g3113
g1120
tp3150
a(g3113
g2321
tp3151
a(g3113
S'beer_can'
p3152
tp3153
a(g3113
g2768
tp3154
a(g3113
g248
tp3155
a(g3113
g921
tp3156
a(g3113
g778
tp3157
a(S'artificial'
p3158
S'glass_eye'
p3159
tp3160
a(g3158
g956
tp3161
a(g3158
g2279
tp3162
a(g3158
S'fairy_tale'
p3163
tp3164
a(g3158
g2273
tp3165
a(g3158
S'theme_park'
p3166
tp3167
a(g3158
g948
tp3168
a(S'orderly'
p3169
g1002
tp3170
a(g3169
S'museum'
p3171
tp3172
a(g3169
S'crystal_lattice'
p3173
tp3174
a(g3169
g2835
tp3175
a(g3169
S'map'
p3176
tp3177
a(g3169
g2369
tp3178
a(g3169
S'funeral'
p3179
tp3180
a(g3169
S'fire_drill'
p3181
tp3182
a(g3169
S'bank'
p3183
tp3184
a(g3169
S'golf_course'
p3185
tp3186
a(g3169
S'card_catalogue'
p3187
tp3188
a(g3169
S'lattice'
p3189
tp3190
a(g3169
S'honeycomb'
p3191
tp3192
a(g3169
S'quadrille'
p3193
tp3194
a(g3169
S'checker_board'
p3195
tp3196
a(g3169
S'polka_dot'
p3197
tp3198
a(g3169
g3062
tp3199
a(g3169
S'stampede'
p3200
tp3201
a(S'hardened'
p3202
S'harlot'
p3203
tp3204
a(g3202
S'new_york'
p3205
tp3206
a(S'basic'
p3207
S'toothbrush'
p3208
tp3209
a(g3207
S'flashlight'
p3210
tp3211
a(g3207
S'bed'
p3212
tp3213
a(g3207
S'bedroom'
p3214
tp3215
a(S'golden'
p3216
S'flame'
p3217
tp3218
a(g3216
S'winner'
p3219
tp3220
a(S'frail'
p3221
g58
tp3222
a(g3221
g10
tp3223
a(g3221
g2153
tp3224
a(g3221
g46
tp3225
a(g3221
g2838
tp3226
a(g3221
S'bubble'
p3227
tp3228
a(g3221
g2122
tp3229
a(g3221
g201
tp3230
a(g3221
g364
tp3231
a(g3221
g2147
tp3232
a(g3221
S'snowdrop'
p3233
tp3234
a(g3221
g248
tp3235
a(g3221
S'foetus'
p3236
tp3237
a(g3221
S"willo'thewisp"
p3238
tp3239
a(g3221
g2128
tp3240
a(g3221
g421
tp3241
a(g3221
g78
tp3242
a(g3221
g80
tp3243
a(S'unformed'
p3244
g1782
tp3245
a(g3244
S'newborn'
p3246
tp3247
a(S'tense'
p3248
g1085
tp3249
a(g3248
g12
tp3250
a(g3248
g185
tp3251
a(g3248
S'tightrope'
p3252
tp3253
a(g3248
g2406
tp3254
a(g3248
S'fight'
p3255
tp3256
a(g3248
S'thriller'
p3257
tp3258
a(g3248
S'sunday_school'
p3259
tp3260
a(S'tangible'
p3261
g441
tp3262
a(g3261
S'prototype'
p3263
tp3264
a(g3261
S'toothache'
p3265
tp3266
a(S'sharp'
p3267
S'tack'
p3268
tp3269
a(g3267
g1719
tp3270
a(g3267
g1496
tp3271
a(g3267
g1320
tp3272
a(g3267
S'switchblade'
p3273
tp3274
a(g3267
g327
tp3275
a(g3267
g1472
tp3276
a(g3267
g917
tp3277
a(g3267
g2423
tp3278
a(g3267
g1629
tp3279
a(g3267
S'stiletto_heel'
p3280
tp3281
a(g3267
g322
tp3282
a(g3267
S'scythe'
p3283
tp3284
a(g3267
g296
tp3285
a(g3267
g1368
tp3286
a(g3267
g614
tp3287
a(g3267
S'carving_knife'
p3288
tp3289
a(g3267
g362
tp3290
a(g3267
g2302
tp3291
a(g3267
S'lens'
p3292
tp3293
a(g3267
S'awl'
p3294
tp3295
a(g3267
S'razorblade'
p3296
tp3297
a(g3267
g927
tp3298
a(g3267
g189
tp3299
a(g3267
S'meat_cleaver'
p3300
tp3301
a(g3267
g48
tp3302
a(g3267
g626
tp3303
a(g3267
g2493
tp3304
a(g3267
g386
tp3305
a(g3267
S'machete'
p3306
tp3307
a(g3267
S'steak_knife'
p3308
tp3309
a(g3267
S'scimitar'
p3310
tp3311
a(g3267
S'pocketknife'
p3312
tp3313
a(g3267
S'thorn'
p3314
tp3315
a(g3267
S'wood_chisel'
p3316
tp3317
a(g3267
g896
tp3318
a(g3267
g224
tp3319
a(g3267
S'knife_edge'
p3320
tp3321
a(g3267
S'cucumber'
p3322
tp3323
a(g3267
S'hatchet'
p3324
tp3325
a(g3267
S'lemon'
p3326
tp3327
a(g3267
S'pocket_knife'
p3328
tp3329
a(g3267
g1672
tp3330
a(g3267
S'bowie_knife'
p3331
tp3332
a(g3267
g1002
tp3333
a(g3267
S'samurai'
p3334
tp3335
a(g3267
S'laser_printer'
p3336
tp3337
a(g3267
g2715
tp3338
a(g3267
S'cutlass'
p3339
tp3340
a(g3267
g1253
tp3341
a(g3267
S'electron_microscope'
p3342
tp3343
a(g3267
g401
tp3344
a(g3267
S'bobby_pin'
p3345
tp3346
a(g3267
g2736
tp3347
a(g3267
S"queen's_counsel"
p3348
tp3349
a(g3267
g1370
tp3350
a(g3267
g1479
tp3351
a(g3267
S'burr'
p3352
tp3353
a(g3267
S'vixen'
p3354
tp3355
a(g3267
S'owl'
p3356
tp3357
a(g3267
S'edge'
p3358
tp3359
a(g3267
S'chisel'
p3360
tp3361
a(g3267
g1474
tp3362
a(g3267
S'tooth'
p3363
tp3364
a(g3267
g715
tp3365
a(g3267
g2386
tp3366
a(g3267
g260
tp3367
a(g3267
g1600
tp3368
a(g3267
S'butcher_knife'
p3369
tp3370
a(g3267
S'engraver'
p3371
tp3372
a(g3267
g590
tp3373
a(g3267
S'marble'
p3374
tp3375
a(g3267
g1506
tp3376
a(g3267
g2282
tp3377
a(g3267
g2294
tp3378
a(g3267
g1508
tp3379
a(g3267
g1514
tp3380
a(g3267
g1224
tp3381
a(g3267
g2438
tp3382
a(g3267
g333
tp3383
a(g3267
S'mud_pie'
p3384
tp3385
a(g3267
g694
tp3386
a(g3267
S'spatula'
p3387
tp3388
a(g3267
g1582
tp3389
a(g3267
S'armpit'
p3390
tp3391
a(g3267
g480
tp3392
a(g3267
g1381
tp3393
a(g3267
g2292
tp3394
a(g3267
g1870
tp3395
a(g3267
g1686
tp3396
a(g3267
g2543
tp3397
a(g3267
S'watermelon'
p3398
tp3399
a(g3267
S'meatball'
p3400
tp3401
a(g3267
g2428
tp3402
a(g3267
g2109
tp3403
a(g3267
g2296
tp3404
a(g3267
S'butter'
p3405
tp3406
a(g3267
g1510
tp3407
a(g3267
S'soup_spoon'
p3408
tp3409
a(g3267
g112
tp3410
a(g3267
S'dog_turd'
p3411
tp3412
a(S'juicy'
p3413
S'melon'
p3414
tp3415
a(g3413
S'porterhouse_steak'
p3416
tp3417
a(g3413
g3398
tp3418
a(g3413
g1216
tp3419
a(g3413
S'lychee'
p3420
tp3421
a(g3413
S'plum'
p3422
tp3423
a(g3413
S'tomato'
p3424
tp3425
a(g3413
S'nectarine'
p3426
tp3427
a(g3413
S'filet_mignon'
p3428
tp3429
a(g3413
S'steak'
p3430
tp3431
a(g3413
S'strawberry'
p3432
tp3433
a(g3413
S'grapefruit'
p3434
tp3435
a(g3413
S'apricot'
p3436
tp3437
a(g3413
g2292
tp3438
a(S'firm'
p3439
g448
tp3440
a(g3439
S'park_bench'
p3441
tp3442
a(g3439
g173
tp3443
a(g3439
g450
tp3444
a(g3439
g2480
tp3445
a(g3439
g333
tp3446
a(g3439
g2452
tp3447
a(g3439
S'conqueror'
p3448
tp3449
a(g3439
g2399
tp3450
a(g3439
S'muscle'
p3451
tp3452
a(S'ripe'
p3453
g2612
tp3454
a(g3453
g3422
tp3455
a(g3453
g3414
tp3456
a(g3453
g1216
tp3457
a(g3453
S'lover'
p3458
tp3459
a(g3453
S'pumpkin'
p3460
tp3461
a(g3453
g3398
tp3462
a(g3453
g3322
tp3463
a(g3453
g3432
tp3464
a(g3453
S'fruit'
p3465
tp3466
a(g3453
S'pippin'
p3467
tp3468
a(g3453
S'grape'
p3469
tp3470
a(g3453
S'kumquat'
p3471
tp3472
a(S'sexy'
p3473
S'thong'
p3474
tp3475
a(g3473
g956
tp3476
a(g3473
S'cruise_missile'
p3477
tp3478
a(g3473
g1442
tp3479
a(g3473
g266
tp3480
a(g3473
g1185
tp3481
a(g3473
S'cowboy'
p3482
tp3483
a(g3473
g8
tp3484
a(g3473
g1796
tp3485
a(g3473
S'bomber'
p3486
tp3487
a(g3473
S'peacock'
p3488
tp3489
a(g3473
S'master_bedroom'
p3490
tp3491
a(g3473
S'sax'
p3492
tp3493
a(g3473
S'tease'
p3494
tp3495
a(g3473
g669
tp3496
a(g3473
S'hairball'
p3497
tp3498
a(g3473
S'engine_block'
p3499
tp3500
a(g3473
S'file_cabinet'
p3501
tp3502
a(g3473
S'dictionary'
p3503
tp3504
a(g3473
S'oil_change'
p3505
tp3506
a(g3473
S'head_cold'
p3507
tp3508
a(g3473
g2428
tp3509
a(g3473
S'stomach_pump'
p3510
tp3511
a(g3473
g1690
tp3512
a(g3473
S'sump_pump'
p3513
tp3514
a(g3473
S'cuckoo_clock'
p3515
tp3516
a(g3473
g1870
tp3517
a(g3473
S'plumber'
p3518
tp3519
a(g3473
S'date_rape'
p3520
tp3521
a(g3473
g1307
tp3522
a(g3473
g100
tp3523
a(g3473
g1311
tp3524
a(g3473
S'mackerel'
p3525
tp3526
a(g3473
g780
tp3527
a(g3473
S'mullet'
p3528
tp3529
a(S'fat'
p3530
g752
tp3531
a(g3530
g774
tp3532
a(g3530
g114
tp3533
a(g3530
g452
tp3534
a(g3530
S'sausage'
p3535
tp3536
a(g3530
g84
tp3537
a(g3530
S'ham'
p3538
tp3539
a(g3530
g1166
tp3540
a(g3530
g1428
tp3541
a(g3530
S'suet_pudding'
p3542
tp3543
a(g3530
g511
tp3544
a(g3530
g108
tp3545
a(g3530
S'barrel'
p3546
tp3547
a(g3530
g3460
tp3548
a(g3530
S'suckling_pig'
p3549
tp3550
a(g3530
S'pincushion'
p3551
tp3552
a(g3530
S'phone_book'
p3553
tp3554
a(g3530
S'telephone_directory'
p3555
tp3556
a(g3530
g1582
tp3557
a(g3530
g88
tp3558
a(g3530
S'telephone_book'
p3559
tp3560
a(g3530
g703
tp3561
a(g3530
g1171
tp3562
a(g3530
S'burgher'
p3563
tp3564
a(g3530
g2244
tp3565
a(g3530
g3398
tp3566
a(g3530
S'dumpling'
p3567
tp3568
a(g3530
g450
tp3569
a(g3530
g1514
tp3570
a(g3530
g454
tp3571
a(g3530
S'heifer'
p3572
tp3573
a(g3530
g2290
tp3574
a(g3530
S'candle'
p3575
tp3576
a(g3530
S'lentil'
p3577
tp3578
a(g3530
g380
tp3579
a(g3530
g921
tp3580
a(g3530
S'finger'
p3581
tp3582
a(g3530
g934
tp3583
a(S'bald'
p3584
S'coot'
p3585
tp3586
a(g3584
g42
tp3587
a(g3584
g2132
tp3588
a(g3584
S'mango'
p3589
tp3590
a(g3584
g1780
tp3591
a(g3584
S'cue_ball'
p3592
tp3593
a(g3584
S'buzzard'
p3594
tp3595
a(g3584
S'mushroom'
p3596
tp3597
a(g3584
g3424
tp3598
a(g3584
g3414
tp3599
a(g3584
S'space_helmet'
p3600
tp3601
a(g3584
g624
tp3602
a(g3584
S'cabbage'
p3603
tp3604
a(g3584
g858
tp3605
a(g3584
S'blueberry'
p3606
tp3607
a(g3584
g1381
tp3608
a(g3584
g723
tp3609
a(g3584
S'ball'
p3610
tp3611
a(g3584
S'bowler_hat'
p3612
tp3613
a(g3584
g511
tp3614
a(g3584
S'lightbulb'
p3615
tp3616
a(g3584
g2373
tp3617
a(g3584
g3374
tp3618
a(g3584
g1216
tp3619
a(S'dense'
p3620
S'neutron_star'
p3621
tp3622
a(g3620
g112
tp3623
a(g3620
g465
tp3624
a(g3620
S'nucleus'
p3625
tp3626
a(g3620
g611
tp3627
a(g3620
g3503
tp3628
a(g3620
S'banana_bread'
p3629
tp3630
a(g3620
g1372
tp3631
a(g3620
S'ass'
p3632
tp3633
a(g3620
S'pudding'
p3634
tp3635
a(g3620
S'brownie'
p3636
tp3637
a(g3620
g598
tp3638
a(g3620
S'compost_heap'
p3639
tp3640
a(g3620
g2683
tp3641
a(g3620
S'pound_cake'
p3642
tp3643
a(g3620
S'compost'
p3644
tp3645
a(g3620
g474
tp3646
a(g3620
g443
tp3647
a(g3620
g1514
tp3648
a(g3620
S'fudge'
p3649
tp3650
a(S'permanent'
p3651
S'tattoo'
p3652
tp3653
a(g3651
S'skin_graft'
p3654
tp3655
a(g3651
g1705
tp3656
a(g3651
S'scar'
p3657
tp3658
a(g3651
S'surgery'
p3659
tp3660
a(S'sparse'
p3661
S'jail_cell'
p3662
tp3663
a(g3661
g1305
tp3664
a(S'woody'
p3665
S'shrub'
p3666
tp3667
a(g3665
S'hydrangea'
p3668
tp3669
a(S'empty'
p3670
g2480
tp3671
a(g3670
g2054
tp3672
a(g3670
g2661
tp3673
a(g3670
S'ghost_town'
p3674
tp3675
a(g3670
g2656
tp3676
a(g3670
S'spam'
p3677
tp3678
a(g3670
g3227
tp3679
a(g3670
g965
tp3680
a(g3670
g950
tp3681
a(g3670
S'prison_cell'
p3682
tp3683
a(g3670
g1582
tp3684
a(g3670
g980
tp3685
a(g3670
g1259
tp3686
a(g3670
g3051
tp3687
a(S'wet'
p3688
g711
tp3689
a(g3688
g2636
tp3690
a(g3688
g1686
tp3691
a(g3688
g273
tp3692
a(g3688
g2336
tp3693
a(g3688
S'monsoon'
p3694
tp3695
a(g3688
g2625
tp3696
a(g3688
g1171
tp3697
a(g3688
S'puddle'
p3698
tp3699
a(g3688
S'swamp'
p3700
tp3701
a(g3688
S'sink'
p3702
tp3703
a(g3688
S'sop'
p3704
tp3705
a(g3688
S'seashore'
p3706
tp3707
a(g3688
S'marsh'
p3708
tp3709
a(g3688
S'octopus'
p3710
tp3711
a(g3688
S'pool'
p3712
tp3713
a(g3688
g2825
tp3714
a(g3688
S'river'
p3715
tp3716
a(g3688
S'diver'
p3717
tp3718
a(S'invulnerable'
p3719
g643
tp3720
a(g3719
g882
tp3721
a(g3719
g448
tp3722
a(S'hardy'
p3723
g559
tp3724
a(g3723
g603
tp3725
a(g3723
g882
tp3726
a(g3723
g543
tp3727
a(g3723
S'yeti'
p3728
tp3729
a(g3723
g2421
tp3730
a(g3723
g2044
tp3731
a(g3723
g528
tp3732
a(S'unbreakable'
p3733
g448
tp3734
a(g3733
g333
tp3735
a(S'diffuse'
p3736
S'daydream'
p3737
tp3738
a(g3736
g1411
tp3739
a(g3736
g2715
tp3740
a(S'developed'
p3741
S'quarter_horse'
p3742
tp3743
a(g3741
S'housefly'
p3744
tp3745
a(g3741
g2497
tp3746
a(g3741
g876
tp3747
a(g3741
S'model_t'
p3748
tp3749
a(S'full'
p3750
S'tick'
p3751
tp3752
a(g3750
g1166
tp3753
a(g3750
S'christmas_stocking'
p3754
tp3755
a(g3750
g2132
tp3756
a(g3750
S'drunk'
p3757
tp3758
a(g3750
S'harvest_moon'
p3759
tp3760
a(g3750
S'sandbag'
p3761
tp3762
a(g3750
g3019
tp3763
a(S'packed'
p3764
g3754
tp3765
a(S'solid'
p3766
g448
tp3767
a(g3766
g609
tp3768
a(g3766
g611
tp3769
a(g3766
g446
tp3770
a(g3766
g454
tp3771
a(g3766
g1372
tp3772
a(g3766
g556
tp3773
a(g3766
g112
tp3774
a(g3766
g879
tp3775
a(g3766
S'slammer'
p3776
tp3777
a(g3766
g173
tp3778
a(g3766
g580
tp3779
a(g3766
g2399
tp3780
a(g3766
S'launching_pad'
p3781
tp3782
a(g3766
g2365
tp3783
a(g3766
g643
tp3784
a(g3766
g1438
tp3785
a(g3766
S'shield'
p3786
tp3787
a(g3766
S'bench_vise'
p3788
tp3789
a(g3766
g552
tp3790
a(g3766
S'block'
p3791
tp3792
a(g3766
g116
tp3793
a(g3766
S'fighter'
p3794
tp3795
a(g3766
S'jailhouse'
p3796
tp3797
a(g3766
g333
tp3798
a(g3766
g2452
tp3799
a(g3766
S'bison'
p3800
tp3801
a(g3766
g1066
tp3802
a(g3766
S'gravestone'
p3803
tp3804
a(g3766
g942
tp3805
a(g3766
g1707
tp3806
a(g3766
S'ice_cube'
p3807
tp3808
a(g3766
g531
tp3809
a(g3766
S'courthouse'
p3810
tp3811
a(g3766
S'planet'
p3812
tp3813
a(g3766
g1915
tp3814
a(g3766
g607
tp3815
a(g3766
S'counterweight'
p3816
tp3817
a(g3766
g207
tp3818
a(g3766
S'paperweight'
p3819
tp3820
a(g3766
g450
tp3821
a(g3766
S'anchor'
p3822
tp3823
a(g3766
g441
tp3824
a(g3766
g1075
tp3825
a(g3766
S'dumbbell'
p3826
tp3827
a(g3766
g3451
tp3828
a(g3766
g1514
tp3829
a(g3766
g592
tp3830
a(g3766
S'california_redwood'
p3831
tp3832
a(g3766
g2004
tp3833
a(g3766
S'swiss_cheese'
p3834
tp3835
a(g3766
g1787
tp3836
a(g3766
g2345
tp3837
a(g3766
g2180
tp3838
a(g3766
g230
tp3839
a(g3766
S'tin_can'
p3840
tp3841
a(g3766
S'jelly'
p3842
tp3843
a(S'perfect'
p3844
g2954
tp3845
a(g3844
g590
tp3846
a(g3844
S'angel'
p3847
tp3848
a(g3844
g4
tp3849
a(g3844
S'temple'
p3850
tp3851
a(g3844
g1363
tp3852
a(g3844
S'metronome'
p3853
tp3854
a(g3844
S'idol'
p3855
tp3856
a(g3844
g948
tp3857
a(g3844
g441
tp3858
a(g3844
S'picture_postcard'
p3859
tp3860
a(g3844
S'opal'
p3861
tp3862
a(g3844
g3632
tp3863
a(S'stout'
p3864
g2204
tp3865
a(g3864
g603
tp3866
a(g3864
g315
tp3867
a(g3864
S'bouncer'
p3868
tp3869
a(S'unitary'
p3870
S'choir'
p3871
tp3872
a(S'wrinkly'
p3873
S'prune'
p3874
tp3875
a(S'stable'
p3876
g942
tp3877
a(g3876
g448
tp3878
a(g3876
g173
tp3879
a(g3876
S'horse_barn'
p3880
tp3881
a(g3876
g561
tp3882
a(g3876
g1372
tp3883
a(g3876
S'forklift'
p3884
tp3885
a(g3876
g266
tp3886
a(g3876
g205
tp3887
a(g3876
g524
tp3888
a(g3876
g580
tp3889
a(g3876
S'dance_floor'
p3890
tp3891
a(g3876
g552
tp3892
a(g3876
g92
tp3893
a(g3876
g88
tp3894
a(g3876
g2265
tp3895
a(g3876
g1940
tp3896
a(g3876
S'life_raft'
p3897
tp3898
a(g3876
g570
tp3899
a(g3876
g921
tp3900
a(g3876
g2114
tp3901
a(S'evaporative'
p3902
g2857
tp3903
a(S'integrated'
p3904
S'computer_circuit'
p3905
tp3906
a(S'messy'
p3907
g718
tp3908
a(g3907
S'clown'
p3909
tp3910
a(g3907
S'bachelor_party'
p3911
tp3912
a(g3907
S'landfill'
p3913
tp3914
a(g3907
S'battleground'
p3915
tp3916
a(g3907
S'hospital_room'
p3917
tp3918
a(S'doughy'
p3919
g1224
tp3920
a(S'seamless'
p3921
g2149
tp3922
a(g3921
S'quilt'
p3923
tp3924
a(S'wrinkled'
p3925
g3874
tp3926
a(g3925
S'raisin'
p3927
tp3928
a(g3925
S'walnut'
p3929
tp3930
a(g3925
g219
tp3931
a(g3925
g90
tp3932
a(g3925
S'jelly_bean'
p3933
tp3934
a(S'weightless'
p3935
g248
tp3936
a(g3935
g1411
tp3937
a(g3935
g2857
tp3938
a(g3935
g16
tp3939
a(g3935
g2271
tp3940
a(g3935
S'glider'
p3941
tp3942
a(g3935
g3227
tp3943
a(g3935
g2103
tp3944
a(g3935
S'sigh'
p3945
tp3946
a(S'immaterial'
p3947
S'shadow'
p3948
tp3949
a(g3947
g2651
tp3950
a(g3947
S'poem'
p3951
tp3952
a(g3947
S'concept'
p3953
tp3954
a(g3947
g2754
tp3955
a(g3947
S'specter'
p3956
tp3957
a(S'hideous'
p3958
g735
tp3959
a(g3958
S'trash_bin'
p3960
tp3961
a(g3958
S'rubbish'
p3962
tp3963
a(g3958
S'prison_camp'
p3964
tp3965
a(g3958
g2829
tp3966
a(S'incomplete'
p3967
S'manx_cat'
p3968
tp3969
a(S'brittle'
p3970
g2128
tp3971
a(g3970
g2321
tp3972
a(g3970
S'sugar_cookie'
p3973
tp3974
a(g3970
g2493
tp3975
a(g3970
g2442
tp3976
a(g3970
S'cracker'
p3977
tp3978
a(g3970
g1229
tp3979
a(S'dull'
p3980
g2282
tp3981
a(g3980
S'hoe'
p3982
tp3983
a(g3980
g1506
tp3984
a(g3980
g2294
tp3985
a(S'spineless'
p3986
g1881
tp3987
a(g3986
g230
tp3988
a(g3986
S'mollusk'
p3989
tp3990
a(g3986
g745
tp3991
a(g3986
g2292
tp3992
a(g3986
g1686
tp3993
a(g3986
S'shrimp'
p3994
tp3995
a(g3986
g3842
tp3996
a(g3986
S'chocolate_eclair'
p3997
tp3998
a(g3986
S'fishing_worm'
p3999
tp4000
a(S'crisp'
p4001
g3977
tp4002
a(g4001
S'granny_smith'
p4003
tp4004
a(g4001
g1211
tp4005
a(g4001
g2128
tp4006
a(g4001
g2321
tp4007
a(g4001
S'snow_pea'
p4008
tp4009
a(g4001
S'tortilla_chip'
p4010
tp4011
a(g4001
g2493
tp4012
a(g4001
g919
tp4013
a(g4001
g2327
tp4014
a(g4001
S'chip'
p4015
tp4016
a(S'physical'
p4017
S'sport'
p4018
tp4019
a(g4017
g446
tp4020
a(g4017
g448
tp4021
a(g4017
S'construction_worker'
p4022
tp4023
a(g4017
g3265
tp4024
a(g4017
g2874
tp4025
a(S'rigid'
p4026
g913
tp4027
a(g4026
S'bookcase'
p4028
tp4029
a(g4026
g441
tp4030
a(g4026
g480
tp4031
a(g4026
g2052
tp4032
a(g4026
g2414
tp4033
a(g4026
g448
tp4034
a(g4026
g2466
tp4035
a(g4026
S'clockwork'
p4036
tp4037
a(g4026
S'logic_diagram'
p4038
tp4039
a(g4026
g1463
tp4040
a(g4026
g2013
tp4041
a(g4026
S'chessboard'
p4042
tp4043
a(g4026
S'fatwah'
p4044
tp4045
a(g4026
g2457
tp4046
a(g4026
g1363
tp4047
a(g4026
g942
tp4048
a(g4026
g643
tp4049
a(g4026
S'cell_wall'
p4050
tp4051
a(g4026
g322
tp4052
a(g4026
S'fossil'
p4053
tp4054
a(g4026
S'tuning_fork'
p4055
tp4056
a(g4026
g1049
tp4057
a(g4026
g1901
tp4058
a(g4026
g296
tp4059
a(g4026
S'tax_form'
p4060
tp4061
a(g4026
g2449
tp4062
a(g4026
g486
tp4063
a(g4026
g2064
tp4064
a(g4026
g932
tp4065
a(g4026
S'clamp'
p4066
tp4067
a(g4026
g112
tp4068
a(g4026
g1095
tp4069
a(g4026
S'girder'
p4070
tp4071
a(g4026
S'telegraph_post'
p4072
tp4073
a(g4026
g1686
tp4074
a(g4026
S'amoeba'
p4075
tp4076
a(S'taut'
p4077
g2720
tp4078
a(g4077
g185
tp4079
a(g4077
g199
tp4080
a(g4077
g3252
tp4081
a(g4077
g2480
tp4082
a(g4077
S'anchor_chain'
p4083
tp4084
a(g4077
S'crossbow'
p4085
tp4086
a(g4077
g3012
tp4087
a(S'motionless'
p4088
g173
tp4089
a(g4088
S'mirror'
p4090
tp4091
a(g4088
g939
tp4092
a(g4088
g480
tp4093
a(g4088
g954
tp4094
a(g4088
g948
tp4095
a(g4088
g468
tp4096
a(g4088
g3424
tp4097
a(g4088
g454
tp4098
a(S'homogeneous'
p4099
S'culture_medium'
p4100
tp4101
a(g4099
S'snowbank'
p4102
tp4103
a(S'durable'
p4104
g2484
tp4105
a(g4104
g561
tp4106
a(g4104
g2419
tp4107
a(g4104
g590
tp4108
a(g4104
g643
tp4109
a(g4104
S'masonry'
p4110
tp4111
a(g4104
g441
tp4112
a(g4104
g526
tp4113
a(g4104
g2435
tp4114
a(g4104
S'dam'
p4115
tp4116
a(g4104
S'hotdog_bun'
p4117
tp4118
a(g4104
g2178
tp4119
a(g4104
g684
tp4120
a(g4104
g2128
tp4121
a(g4104
g2880
tp4122
a(g4104
g700
tp4123
a(S'concrete'
p4124
g2013
tp4125
a(g4124
S'rumor'
p4126
tp4127
a(g4124
g2651
tp4128
a(S'tangled'
p4129
g3497
tp4130
a(g4129
g488
tp4131
a(g4129
S'kudzu'
p4132
tp4133
a(g4129
S'kudzu_vine'
p4134
tp4135
a(g4129
S'birdnest'
p4136
tp4137
a(g4129
S'grapevine'
p4138
tp4139
a(g4129
S'chinese_puzzle'
p4140
tp4141
a(g4129
g104
tp4142
a(S'substantive'
p4143
g3698
tp4144
a(g4143
S'burger'
p4145
tp4146
a(g4143
g885
tp4147
a(g4143
g694
tp4148
a(S'meaty'
p4149
g3430
tp4150
a(g4149
S'meat_pie'
p4151
tp4152
a(g4149
S'carcass'
p4153
tp4154
a(g4149
S'tripledecker'
p4155
tp4156
a(g4149
S'broiler'
p4157
tp4158
a(g4149
S'sirloin'
p4159
tp4160
a(g4149
S'sirloin_steak'
p4161
tp4162
a(g4149
S'whopper'
p4163
tp4164
a(g4149
g1307
tp4165
a(g4149
S'pumpkin_seed'
p4166
tp4167
a(S'concentrated'
p4168
S'perfume'
p4169
tp4170
a(g4168
g626
tp4171
a(g4168
g590
tp4172
a(g4168
g340
tp4173
a(g4168
S'extract'
p4174
tp4175
a(S'homogenous'
p4176
g1870
tp4177
a(S'dilute'
p4178
S'solution'
p4179
tp4180
a(S'impervious'
p4181
g590
tp4182
a(g4181
g448
tp4183
a(g4181
g609
tp4184
a(g4181
S'chocolate_bar'
p4185
tp4186
a(S'immutable'
p4187
S'constellation'
p4188
tp4189
a(g4187
S'papal_bull'
p4190
tp4191
a(g4187
g1705
tp4192
a(g4187
S'fate'
p4193
tp4194
a(g4187
g590
tp4195
a(S'toxic'
p4196
g923
tp4197
a(g4196
g1634
tp4198
a(g4196
g1253
tp4199
a(g4196
g275
tp4200
a(g4196
g1679
tp4201
a(g4196
g1600
tp4202
a(g4196
g1881
tp4203
a(g4196
S'poison'
p4204
tp4205
a(S'fertile'
p4206
g153
tp4207
a(g4206
S'rain_forest'
p4208
tp4209
a(g4206
S'garden'
p4210
tp4211
a(g4206
g474
tp4212
a(g4206
S'queen_bee'
p4213
tp4214
a(g4206
g463
tp4215
a(g4206
S'field'
p4216
tp4217
a(g4206
S'compost_pile'
p4218
tp4219
a(g4206
g2581
tp4220
a(g4206
S'stapler'
p4221
tp4222
a(g4206
g112
tp4223
a(S'organic'
p4224
g468
tp4225
a(g4224
g2865
tp4226
a(g4224
g718
tp4227
a(g4224
S'nose_job'
p4228
tp4229
a(S'fragile'
p4230
g2442
tp4231
a(g4230
g201
tp4232
a(g4230
g2128
tp4233
a(g4230
g10
tp4234
a(g4230
g735
tp4235
a(g4230
S'wineglass'
p4236
tp4237
a(g4230
g2149
tp4238
a(g4230
S'dragonfly'
p4239
tp4240
a(g4230
S'candle_flame'
p4241
tp4242
a(g4230
g2034
tp4243
a(g4230
g248
tp4244
a(g4230
S'glass'
p4245
tp4246
a(g4230
g698
tp4247
a(g4230
g2114
tp4248
a(g4230
g46
tp4249
a(g4230
S'pinata'
p4250
tp4251
a(g4230
g2147
tp4252
a(g4230
g2117
tp4253
a(g4230
g2610
tp4254
a(g4230
g3227
tp4255
a(g4230
g2182
tp4256
a(g4230
g2122
tp4257
a(g4230
S'embryo'
p4258
tp4259
a(g4230
g921
tp4260
a(g4230
g2186
tp4261
a(g4230
g4090
tp4262
a(g4230
g2109
tp4263
a(g4230
g2130
tp4264
a(g4230
g858
tp4265
a(g4230
g643
tp4266
a(g4230
g580
tp4267
a(g4230
g452
tp4268
a(S'shaky'
p4269
g2865
tp4270
a(g4269
g1284
tp4271
a(S'intricate'
p4272
S'brooch'
p4273
tp4274
a(g4272
g2182
tp4275
a(g4272
g3077
tp4276
a(g4272
g219
tp4277
a(g4272
g2122
tp4278
a(g4272
g3062
tp4279
a(g4272
S'wicker_basket'
p4280
tp4281
a(g4272
g911
tp4282
a(g4272
g2835
tp4283
a(g4272
g1391
tp4284
a(g4272
S'steam_engine'
p4285
tp4286
a(g4272
g3075
tp4287
a(g4272
S'chess_game'
p4288
tp4289
a(g4272
g1686
tp4290
a(S'undeveloped'
p4291
g2240
tp4292
a(S'phony'
p4293
g3159
tp4294
a(g4293
g230
tp4295
a(g4293
g2774
tp4296
a(g4293
S'platinum_blond'
p4297
tp4298
a(S'swollen'
p4299
g1582
tp4300
a(S'immature'
p4301
g2240
tp4302
a(g4301
g130
tp4303
a(g4301
S'kid'
p4304
tp4305
a(g4301
g134
tp4306
a(S'clean'
p4307
S'whistle'
p4308
tp4309
a(g4307
g1719
tp4310
a(g4307
S'tin_whistle'
p4311
tp4312
a(g4307
g2367
tp4313
a(g4307
g48
tp4314
a(g4307
S'steam_whistle'
p4315
tp4316
a(g4307
g3850
tp4317
a(g4307
g993
tp4318
a(g4307
S'snowball'
p4319
tp4320
a(g4307
g2122
tp4321
a(g4307
g1368
tp4322
a(g4307
S'clinic'
p4323
tp4324
a(g4307
S'choirboy'
p4325
tp4326
a(g4307
S'nun'
p4327
tp4328
a(g4307
S'crystal_ball'
p4329
tp4330
a(g4307
S'cesspool'
p4331
tp4332
a(g4307
g2942
tp4333
a(g4307
S'dust'
p4334
tp4335
a(g4307
g760
tp4336
a(g4307
g3039
tp4337
a(g4307
S'truck_stop'
p4338
tp4339
a(S'tough'
p4340
g2386
tp4341
a(g4340
g592
tp4342
a(g4340
g643
tp4343
a(g4340
g524
tp4344
a(g4340
g391
tp4345
a(g4340
g102
tp4346
a(g4340
S'bounty_hunter'
p4347
tp4348
a(g4340
g550
tp4349
a(g4340
g559
tp4350
a(g4340
g572
tp4351
a(g4340
S'root'
p4352
tp4353
a(g4340
g3430
tp4354
a(g4340
g3482
tp4355
a(g4340
S'hacksaw'
p4356
tp4357
a(g4340
g448
tp4358
a(g4340
g2421
tp4359
a(g4340
S'hickory_tree'
p4360
tp4361
a(g4340
g315
tp4362
a(g4340
g1095
tp4363
a(g4340
g92
tp4364
a(g4340
g882
tp4365
a(g4340
g1372
tp4366
a(g4340
g3794
tp4367
a(g4340
S'lineman'
p4368
tp4369
a(g4340
S'cape_buffalo'
p4370
tp4371
a(g4340
g1209
tp4372
a(g4340
S'chinook'
p4373
tp4374
a(g4340
g543
tp4375
a(g4340
S'armor'
p4376
tp4377
a(g4340
g2042
tp4378
a(g4340
g333
tp4379
a(g4340
S'navy_seal'
p4380
tp4381
a(g4340
g2452
tp4382
a(g4340
g630
tp4383
a(g4340
S'motherinlaw'
p4384
tp4385
a(g4340
g26
tp4386
a(g4340
S'automobile_tire'
p4387
tp4388
a(g4340
g1438
tp4389
a(g4340
g580
tp4390
a(g4340
S'ranger'
p4391
tp4392
a(g4340
g1196
tp4393
a(g4340
S'nut'
p4394
tp4395
a(g4340
g2673
tp4396
a(g4340
g609
tp4397
a(g4340
g207
tp4398
a(g4340
S'matron'
p4399
tp4400
a(g4340
g1161
tp4401
a(g4340
S'rancher'
p4402
tp4403
a(g4340
g2399
tp4404
a(g4340
g450
tp4405
a(g4340
g2299
tp4406
a(g4340
g556
tp4407
a(g4340
g112
tp4408
a(g4340
g3929
tp4409
a(g4340
g537
tp4410
a(g4340
g669
tp4411
a(g4340
S'knot'
p4412
tp4413
a(g4340
g769
tp4414
a(g4340
g590
tp4415
a(g4340
g694
tp4416
a(g4340
g2091
tp4417
a(g4340
g2438
tp4418
a(g4340
g403
tp4419
a(g4340
g1686
tp4420
a(g4340
g84
tp4421
a(g4340
g2857
tp4422
a(g4340
S'sofa_bed'
p4423
tp4424
a(g4340
S'bunny_rabbit'
p4425
tp4426
a(g4340
S'hamster'
p4427
tp4428
a(g4340
S'haircut'
p4429
tp4430
a(g4340
S'girl_scout'
p4431
tp4432
a(g4340
g3424
tp4433
a(S'rough'
p4434
S'cob'
p4435
tp4436
a(g4434
g543
tp4437
a(g4434
S'gale'
p4438
tp4439
a(g4434
g546
tp4440
a(g4434
g1113
tp4441
a(g4434
S'hedge'
p4442
tp4443
a(g4434
S'grater'
p4444
tp4445
a(g4434
g769
tp4446
a(g4434
S'squall'
p4447
tp4448
a(g4434
g594
tp4449
a(g4434
S'file'
p4450
tp4451
a(g4434
g1634
tp4452
a(g4434
g3314
tp4453
a(g4434
g448
tp4454
a(g4434
S'slaver'
p4455
tp4456
a(g4434
S'highland'
p4457
tp4458
a(g4434
S'burlap_bag'
p4459
tp4460
a(g4434
g665
tp4461
a(g4434
S'rasp'
p4462
tp4463
a(g4434
g1305
tp4464
a(g4434
S'scrubbing_brush'
p4465
tp4466
a(g4434
g1792
tp4467
a(g4434
S'gang'
p4468
tp4469
a(g4434
S'pumice_stone'
p4470
tp4471
a(S'heavy'
p4472
g84
tp4473
a(g4472
g611
tp4474
a(g4472
g112
tp4475
a(g4472
g446
tp4476
a(g4472
g550
tp4477
a(g4472
S'log'
p4478
tp4479
a(g4472
g3822
tp4480
a(g4472
g2284
tp4481
a(g4472
g1372
tp4482
a(g4472
g1359
tp4483
a(g4472
g333
tp4484
a(g4472
g173
tp4485
a(g4472
g838
tp4486
a(g4472
g1104
tp4487
a(g4472
g1171
tp4488
a(g4472
g3803
tp4489
a(g4472
g2819
tp4490
a(g4472
g1915
tp4491
a(g4472
g609
tp4492
a(g4472
g86
tp4493
a(g4472
g452
tp4494
a(g4472
g552
tp4495
a(g4472
S'airplane'
p4496
tp4497
a(g4472
g454
tp4498
a(g4472
g774
tp4499
a(g4472
S'bus'
p4500
tp4501
a(g4472
g1416
tp4502
a(g4472
g4368
tp4503
a(g4472
g3621
tp4504
a(g4472
g858
tp4505
a(g4472
S'destroyer'
p4506
tp4507
a(g4472
g2165
tp4508
a(g4472
g205
tp4509
a(g4472
g782
tp4510
a(g4472
g2683
tp4511
a(g4472
g1709
tp4512
a(g4472
g391
tp4513
a(g4472
g315
tp4514
a(g4472
g3819
tp4515
a(g4472
g3555
tp4516
a(g4472
g3826
tp4517
a(g4472
g114
tp4518
a(g4472
g118
tp4519
a(g4472
S'artillery_shell'
p4520
tp4521
a(g4472
S'engine'
p4522
tp4523
a(g4472
S'electron'
p4524
tp4525
a(g4472
g248
tp4526
a(g4472
g1257
tp4527
a(g4472
S'hammock'
p4528
tp4529
a(g4472
g2887
tp4530
a(S'complex'
p4531
g2052
tp4532
a(g4531
S'cpu'
p4533
tp4534
a(g4531
g624
tp4535
a(g4531
S'spaceship'
p4536
tp4537
a(g4531
g1363
tp4538
a(g4531
g3062
tp4539
a(g4531
S'mainframe_computer'
p4540
tp4541
a(g4531
g513
tp4542
a(g4531
S'library_catalog'
p4543
tp4544
a(g4531
g3064
tp4545
a(g4531
g219
tp4546
a(g4531
S'zoo'
p4547
tp4548
a(g4531
g911
tp4549
a(g4531
S'metropolis'
p4550
tp4551
a(g4531
g2122
tp4552
a(g4531
S'aircraft_engine'
p4553
tp4554
a(g4531
S'mainframe'
p4555
tp4556
a(g4531
g3072
tp4557
a(g4531
S'fusion_reactor'
p4558
tp4559
a(g4531
g4288
tp4560
a(g4531
S'encyclopaedia'
p4561
tp4562
a(g4531
S'supercomputer'
p4563
tp4564
a(g4531
g364
tp4565
a(g4531
g1506
tp4566
a(g4531
S'drinking_glass'
p4567
tp4568
a(g4531
g1229
tp4569
a(S'inflexible'
p4570
g448
tp4571
a(g4570
g441
tp4572
a(g4570
g619
tp4573
a(g4570
g4384
tp4574
a(g4570
g650
tp4575
a(S'secure'
p4576
g609
tp4577
a(g4576
g556
tp4578
a(g4576
g2365
tp4579
a(g4576
g561
tp4580
a(g4576
g3682
tp4581
a(g4576
g3183
tp4582
a(g4576
S'prison'
p4583
tp4584
a(g4576
g2363
tp4585
a(g4576
S'bunker'
p4586
tp4587
a(g4576
g4555
tp4588
a(g4576
g3662
tp4589
a(g4576
S'jail'
p4590
tp4591
a(g4576
S'password'
p4592
tp4593
a(g4576
g2180
tp4594
a(g4576
g2004
tp4595
a(g4576
g2186
tp4596
a(S'nutritious'
p4597
g1870
tp4598
a(g4597
g4185
tp4599
a(S'steadfast'
p4600
g448
tp4601
a(g4600
g173
tp4602
a(S'malignant'
p4603
g4331
tp4604
a(g4603
S'necromancer'
p4605
tp4606
a(g4603
S'tapeworm'
p4607
tp4608
a(g4603
g1541
tp4609
a(g4603
S'melanoma'
p4610
tp4611
a(g4603
S'tumour'
p4612
tp4613
a(g4603
S'dill_pickle'
p4614
tp4615
a(g4603
g484
tp4616
a(S'wholesome'
p4617
S'hymn'
p4618
tp4619
a(g4617
S'quilting_bee'
p4620
tp4621
a(g4617
S'boy_scout'
p4622
tp4623
a(g4617
S'norman_rockwell'
p4624
tp4625
a(g4617
S'apple_pie'
p4626
tp4627
a(g4617
S'baseball_game'
p4628
tp4629
a(g4617
S'porn'
p4630
tp4631
a(S'intangible'
p4632
g459
tp4633
a(g4632
S'brand'
p4634
tp4635
a(g4632
g2651
tp4636
a(g4632
S'smell'
p4637
tp4638
a(g4632
S'curse'
p4639
tp4640
a(g4632
S'thought'
p4641
tp4642
a(g4632
S'scent'
p4643
tp4644
a(g4632
S'idea'
p4645
tp4646
a(g4632
g1411
tp4647
a(g4632
g3948
tp4648
a(g4632
g3737
tp4649
a(g4632
g2754
tp4650
a(g4632
S'feeling'
p4651
tp4652
a(g4632
S'phantom'
p4653
tp4654
a(g4632
S'memory'
p4655
tp4656
a(S'limp'
p4657
g1327
tp4658
a(g4657
g421
tp4659
a(g4657
g1385
tp4660
a(g4657
g2562
tp4661
a(g4657
g956
tp4662
a(g4657
S'string_bean'
p4663
tp4664
a(g4657
g1881
tp4665
a(g4657
S'banana_peel'
p4666
tp4667
a(g4657
g1789
tp4668
a(g4657
g1343
tp4669
a(g4657
g1686
tp4670
a(g4657
g486
tp4671
a(g4657
g2128
tp4672
a(S'crispy'
p4673
g2128
tp4674
a(g4673
g1325
tp4675
a(g4673
g2327
tp4676
a(S'irreversible'
p4677
S'birth'
p4678
tp4679
a(g4677
S'lobotomy'
p4680
tp4681
a(S'supernatural'
p4682
S'grace'
p4683
tp4684
a(g4682
S'miracle'
p4685
tp4686
a(g4682
g3603
tp4687
a(S'unsteady'
p4688
S'canoe'
p4689
tp4690
a(S'filled'
p4691
g3754
tp4692
a(g4691
g1582
tp4693
a(S'untidy'
p4694
g130
tp4695
a(g4694
g752
tp4696
a(S'impenetrable'
p4697
g4090
tp4698
a(g4697
g643
tp4699
a(g4697
g556
tp4700
a(g4697
g4208
tp4701
a(g4697
g448
tp4702
a(g4697
g465
tp4703
a(g4697
g474
tp4704
a(g4697
S'monolith'
p4705
tp4706
a(g4697
S'hockey_puck'
p4707
tp4708
a(g4697
g2271
tp4709
a(g4697
S'briar'
p4710
tp4711
a(g4697
g443
tp4712
a(g4697
g2004
tp4713
a(S'watery'
p4714
g3698
tp4715
a(S'substantial'
p4716
g84
tp4717
a(g4716
S'entree'
p4718
tp4719
a(g4716
S'lump_sum'
p4720
tp4721
a(g4716
S'cotton_candy'
p4722
tp4723
a(g4716
g2122
tp4724
a(g4716
g2149
tp4725
a(g4716
g2880
tp4726
a(g4716
g2352
tp4727
a(g4716
S'anchovy'
p4728
tp4729
a(g4716
g2754
tp4730
a(g4716
g2109
tp4731
a(g4716
S'sitcom'
p4732
tp4733
a.