(lp0
(isimile
Simile
p1
(dp2
S'inverse'
p3
NsS'name'
p4
S'as energetic as a tree_sloth'
p5
sS'vehicle_synonyms'
p6
(lp7
S'tree_sloth'
p8
asS'an'
p9
S'a '
p10
sS'ground_synonyms'
p11
(lp12
S'energetic'
p13
asS'frequency'
p14
I0
sS'antonyms'
p15
(lp16
sS'vehicle'
p17
g8
sS'ironic'
p18
I00
sS'such_as'
p19
I00
sS'about_frequency'
p20
I0
sS'ground'
p21
g13
sba(isimile
Simile
p22
(dp23
g3
Nsg4
S'as incapable as a judge'
p24
sg6
(lp25
S'judge'
p26
asg9
g10
sg11
(lp27
S'incapable'
p28
asg14
I0
sg15
(lp29
sg17
g26
sg18
I00
sg19
I00
sg20
I0
sg21
g28
sba(isimile
Simile
p30
(dp31
g3
Nsg4
S'as animate as a refrigerator'
p32
sg6
(lp33
S'refrigerator'
p34
asg9
g10
sg11
(lp35
S'animate'
p36
asg14
I0
sg15
(lp37
sg17
g34
sg18
I00
sg19
I00
sg20
I0
sg21
g36
sba(isimile
Simile
p38
(dp39
g3
Nsg4
S'as rugged as a petal'
p40
sg6
(lp41
S'petal'
p42
asg9
g10
sg11
(lp43
S'rugged'
p44
asg14
I0
sg15
(lp45
sg17
g42
sg18
I00
sg19
I00
sg20
I0
sg21
g44
sba(isimile
Simile
p46
(dp47
g3
Nsg4
S'as rugged as a crane'
p48
sg6
(lp49
S'crane'
p50
asg9
g10
sg11
(lp51
S'rugged'
p52
asg14
I0
sg15
(lp53
sg17
g50
sg18
I00
sg19
I00
sg20
I0
sg21
g52
sba(isimile
Simile
p54
(dp55
g3
Nsg4
S'as rugged as a flute'
p56
sg6
(lp57
S'flute'
p58
asg9
g10
sg11
(lp59
S'rugged'
p60
asg14
I0
sg15
(lp61
sg17
g58
sg18
I00
sg19
I00
sg20
I0
sg21
g60
sba(isimile
Simile
p62
(dp63
g3
Nsg4
S'as rugged as an egg'
p64
sg6
(lp65
S'egg'
p66
asg9
S'an '
p67
sg11
(lp68
S'rugged'
p69
asg14
I0
sg15
(lp70
sg17
g66
sg18
I00
sg19
I00
sg20
I0
sg21
g69
sba(isimile
Simile
p71
(dp72
g3
Nsg4
S'as rugged as a baby_bird'
p73
sg6
(lp74
S'baby_bird'
p75
asg9
g10
sg11
(lp76
S'rugged'
p77
asg14
I0
sg15
(lp78
sg17
g75
sg18
I00
sg19
I00
sg20
I0
sg21
g77
sba(isimile
Simile
p79
(dp80
g3
Nsg4
S'as rugged as a ladybird'
p81
sg6
(lp82
S'ladybird'
p83
asg9
g10
sg11
(lp84
S'rugged'
p85
asg14
I0
sg15
(lp86
sg17
g83
sg18
I00
sg19
I00
sg20
I0
sg21
g85
sba(isimile
Simile
p87
(dp88
g3
Nsg4
S'as rugged as an abattoir'
p89
sg6
(lp90
S'abattoir'
p91
asg9
g67
sg11
(lp92
S'rugged'
p93
asg14
I0
sg15
(lp94
sg17
g91
sg18
I00
sg19
I00
sg20
I0
sg21
g93
sba(isimile
Simile
p95
(dp96
g3
Nsg4
S'as convincing as a mist'
p97
sg6
(lp98
S'mist'
p99
asg9
g10
sg11
(lp100
S'convincing'
p101
asg14
I0
sg15
(lp102
sg17
g99
sg18
I00
sg19
I00
sg20
I0
sg21
g101
sba(isimile
Simile
p103
(dp104
g3
Nsg4
S'as unnatural as a snowflake'
p105
sg6
(lp106
S'snowflake'
p107
asg9
g10
sg11
(lp108
S'unnatural'
p109
asg14
I0
sg15
(lp110
sg17
g107
sg18
I00
sg19
I00
sg20
I0
sg21
g109
sba(isimile
Simile
p111
(dp112
g3
Nsg4
S'as unnatural as a redwood'
p113
sg6
(lp114
S'redwood'
p115
asg9
g10
sg11
(lp116
S'unnatural'
p117
asg14
I0
sg15
(lp118
sg17
g115
sg18
I00
sg19
I00
sg20
I0
sg21
g117
sba(isimile
Simile
p119
(dp120
g3
Nsg4
S'as unnatural as a mermaid'
p121
sg6
(lp122
S'mermaid'
p123
asg9
g10
sg11
(lp124
S'unnatural'
p125
asg14
I0
sg15
(lp126
sg17
g123
sg18
I00
sg19
I00
sg20
I0
sg21
g125
sba(isimile
Simile
p127
(dp128
g3
Nsg4
S'as strong as a kitten'
p129
sg6
(lp130
S'kitten'
p131
asg9
g10
sg11
(lp132
S'strong'
p133
asg14
I0
sg15
(lp134
sg17
g131
sg18
I00
sg19
I00
sg20
I0
sg21
g133
sba(isimile
Simile
p135
(dp136
g3
Nsg4
S'as strong as a babe'
p137
sg6
(lp138
S'babe'
p139
asg9
g10
sg11
(lp140
S'strong'
p141
asg14
I0
sg15
(lp142
sg17
g139
sg18
I00
sg19
I00
sg20
I0
sg21
g141
sba(isimile
Simile
p143
(dp144
g3
Nsg4
S'as strong as a thread'
p145
sg6
(lp146
S'thread'
p147
asg9
g10
sg11
(lp148
S'strong'
p149
asg14
I0
sg15
(lp150
sg17
g147
sg18
I00
sg19
I00
sg20
I0
sg21
g149
sba(isimile
Simile
p151
(dp152
g3
Nsg4
S'as strong as a baby'
p153
sg6
(lp154
S'baby'
p155
asg9
g10
sg11
(lp156
S'strong'
p157
asg14
I0
sg15
(lp158
sg17
g155
sg18
I00
sg19
I00
sg20
I0
sg21
g157
sba(isimile
Simile
p159
(dp160
g3
Nsg4
S'as strong as a rag_doll'
p161
sg6
(lp162
S'rag_doll'
p163
asg9
g10
sg11
(lp164
S'strong'
p165
asg14
I0
sg15
(lp166
sg17
g163
sg18
I00
sg19
I00
sg20
I0
sg21
g165
sba(isimile
Simile
p167
(dp168
g3
Nsg4
S'as strong as a mosquito'
p169
sg6
(lp170
S'mosquito'
p171
asg9
g10
sg11
(lp172
S'strong'
p173
asg14
I0
sg15
(lp174
sg17
g171
sg18
I00
sg19
I00
sg20
I0
sg21
g173
sba(isimile
Simile
p175
(dp176
g3
Nsg4
S'as strong as a lamb'
p177
sg6
(lp178
S'lamb'
p179
asg9
g10
sg11
(lp180
S'strong'
p181
asg14
I0
sg15
(lp182
sg17
g179
sg18
I00
sg19
I00
sg20
I0
sg21
g181
sba(isimile
Simile
p183
(dp184
g3
Nsg4
S'as strong as a pygmy'
p185
sg6
(lp186
S'pygmy'
p187
asg9
g10
sg11
(lp188
S'strong'
p189
asg14
I0
sg15
(lp190
sg17
g187
sg18
I00
sg19
I00
sg20
I0
sg21
g189
sba(isimile
Simile
p191
(dp192
g3
Nsg4
S'as strong as a snowflake'
p193
sg6
(lp194
S'snowflake'
p195
asg9
g10
sg11
(lp196
S'strong'
p197
asg14
I0
sg15
(lp198
sg17
g195
sg18
I00
sg19
I00
sg20
I0
sg21
g197
sba(isimile
Simile
p199
(dp200
g3
Nsg4
S'as strong as a fruit_fly'
p201
sg6
(lp202
S'fruit_fly'
p203
asg9
g10
sg11
(lp204
S'strong'
p205
asg14
I0
sg15
(lp206
sg17
g203
sg18
I00
sg19
I00
sg20
I0
sg21
g205
sba(isimile
Simile
p207
(dp208
g3
Nsg4
S'as strong as a feather'
p209
sg6
(lp210
S'feather'
p211
asg9
g10
sg11
(lp212
S'strong'
p213
asg14
I0
sg15
(lp214
sg17
g211
sg18
I00
sg19
I00
sg20
I0
sg21
g213
sba(isimile
Simile
p215
(dp216
g3
Nsg4
S'as strong as a teddy_bear'
p217
sg6
(lp218
S'teddy_bear'
p219
asg9
g10
sg11
(lp220
S'strong'
p221
asg14
I0
sg15
(lp222
sg17
g219
sg18
I00
sg19
I00
sg20
I0
sg21
g221
sba(isimile
Simile
p223
(dp224
g3
Nsg4
S'as strong as a mouse'
p225
sg6
(lp226
S'mouse'
p227
asg9
g10
sg11
(lp228
S'strong'
p229
asg14
I0
sg15
(lp230
sg17
g227
sg18
I00
sg19
I00
sg20
I0
sg21
g229
sba(isimile
Simile
p231
(dp232
g3
Nsg4
S'as strong as a schoolgirl'
p233
sg6
(lp234
S'schoolgirl'
p235
asg9
g10
sg11
(lp236
S'strong'
p237
asg14
I0
sg15
(lp238
sg17
g235
sg18
I00
sg19
I00
sg20
I0
sg21
g237
sba(isimile
Simile
p239
(dp240
g3
Nsg4
S'as strong as a cobweb'
p241
sg6
(lp242
S'cobweb'
p243
asg9
g10
sg11
(lp244
S'strong'
p245
asg14
I0
sg15
(lp246
sg17
g243
sg18
I00
sg19
I00
sg20
I0
sg21
g245
sba(isimile
Simile
p247
(dp248
g3
Nsg4
S'as strong as a willow_tree'
p249
sg6
(lp250
S'willow_tree'
p251
asg9
g10
sg11
(lp252
S'strong'
p253
asg14
I0
sg15
(lp254
sg17
g251
sg18
I00
sg19
I00
sg20
I0
sg21
g253
sba(isimile
Simile
p255
(dp256
g3
Nsg4
S'as inelastic as a balloon'
p257
sg6
(lp258
S'balloon'
p259
asg9
g10
sg11
(lp260
S'inelastic'
p261
asg14
I0
sg15
(lp262
sg17
g259
sg18
I00
sg19
I00
sg20
I0
sg21
g261
sba(isimile
Simile
p263
(dp264
g3
Nsg4
S'as unreal as a rock'
p265
sg6
(lp266
S'rock'
p267
asg9
g10
sg11
(lp268
S'unreal'
p269
asg14
I0
sg15
(lp270
sg17
g267
sg18
I00
sg19
I00
sg20
I0
sg21
g269
sba(isimile
Simile
p271
(dp272
g3
Nsg4
S'as unreal as a storm'
p273
sg6
(lp274
S'storm'
p275
asg9
g10
sg11
(lp276
S'unreal'
p277
asg14
I0
sg15
(lp278
sg17
g275
sg18
I00
sg19
I00
sg20
I0
sg21
g277
sba(isimile
Simile
p279
(dp280
g3
Nsg4
S'as unreal as a documentary'
p281
sg6
(lp282
S'documentary'
p283
asg9
g10
sg11
(lp284
S'unreal'
p285
asg14
I0
sg15
(lp286
sg17
g283
sg18
I00
sg19
I00
sg20
I0
sg21
g285
sba(isimile
Simile
p287
(dp288
g3
Nsg4
S'as unreal as a mirage'
p289
sg6
(lp290
S'mirage'
p291
asg9
g10
sg11
(lp292
S'unreal'
p293
asg14
I0
sg15
(lp294
sg17
g291
sg18
I00
sg19
I00
sg20
I0
sg21
g293
sba(isimile
Simile
p295
(dp296
g3
Nsg4
S'as unreal as a dream'
p297
sg6
(lp298
S'dream'
p299
asg9
g10
sg11
(lp300
S'unreal'
p301
asg14
I0
sg15
(lp302
sg17
g299
sg18
I00
sg19
I00
sg20
I0
sg21
g301
sba(isimile
Simile
p303
(dp304
g3
Nsg4
S'as unreal as a puppet_show'
p305
sg6
(lp306
S'puppet_show'
p307
asg9
g10
sg11
(lp308
S'unreal'
p309
asg14
I0
sg15
(lp310
sg17
g307
sg18
I00
sg19
I00
sg20
I0
sg21
g309
sba(isimile
Simile
p311
(dp312
g3
Nsg4
S'as unreal as a prosthesis'
p313
sg6
(lp314
S'prosthesis'
p315
asg9
g10
sg11
(lp316
S'unreal'
p317
asg14
I0
sg15
(lp318
sg17
g315
sg18
I00
sg19
I00
sg20
I0
sg21
g317
sba(isimile
Simile
p319
(dp320
g3
Nsg4
S'as unreal as a movie'
p321
sg6
(lp322
S'movie'
p323
asg9
g10
sg11
(lp324
S'unreal'
p325
asg14
I0
sg15
(lp326
sg17
g323
sg18
I00
sg19
I00
sg20
I0
sg21
g325
sba(isimile
Simile
p327
(dp328
g3
Nsg4
S'as unreal as a video_game'
p329
sg6
(lp330
S'video_game'
p331
asg9
g10
sg11
(lp332
S'unreal'
p333
asg14
I0
sg15
(lp334
sg17
g331
sg18
I00
sg19
I00
sg20
I0
sg21
g333
sba(isimile
Simile
p335
(dp336
g3
Nsg4
S'as immortal as a corpse'
p337
sg6
(lp338
S'corpse'
p339
asg9
g10
sg11
(lp340
S'immortal'
p341
asg14
I0
sg15
(lp342
sg17
g339
sg18
I00
sg19
I00
sg20
I0
sg21
g341
sba(isimile
Simile
p343
(dp344
g3
Nsg4
S'as wet as a martini'
p345
sg6
(lp346
S'martini'
p347
asg9
g10
sg11
(lp348
S'wet'
p349
asg14
I0
sg15
(lp350
sg17
g347
sg18
I00
sg19
I00
sg20
I0
sg21
g349
sba(isimile
Simile
p351
(dp352
g3
Nsg4
S'as wet as a bone'
p353
sg6
(lp354
S'bone'
p355
asg9
g10
sg11
(lp356
S'wet'
p357
asg14
I0
sg15
(lp358
sg17
g355
sg18
I00
sg19
I00
sg20
I0
sg21
g357
sba(isimile
Simile
p359
(dp360
g3
Nsg4
S'as wet as a crust'
p361
sg6
(lp362
S'crust'
p363
asg9
g10
sg11
(lp364
S'wet'
p365
asg14
I0
sg15
(lp366
sg17
g363
sg18
I00
sg19
I00
sg20
I0
sg21
g365
sba(isimile
Simile
p367
(dp368
g3
Nsg4
S'as wet as a cactus'
p369
sg6
(lp370
S'cactus'
p371
asg9
g10
sg11
(lp372
S'wet'
p373
asg14
I0
sg15
(lp374
sg17
g371
sg18
I00
sg19
I00
sg20
I0
sg21
g373
sba(isimile
Simile
p375
(dp376
g3
Nsg4
S'as wet as a sand_trap'
p377
sg6
(lp378
S'sand_trap'
p379
asg9
g10
sg11
(lp380
S'wet'
p381
asg14
I0
sg15
(lp382
sg17
g379
sg18
I00
sg19
I00
sg20
I0
sg21
g381
sba(isimile
Simile
p383
(dp384
g3
Nsg4
S'as wet as a saltine'
p385
sg6
(lp386
S'saltine'
p387
asg9
g10
sg11
(lp388
S'wet'
p389
asg14
I0
sg15
(lp390
sg17
g387
sg18
I00
sg19
I00
sg20
I0
sg21
g389
sba(isimile
Simile
p391
(dp392
g3
Nsg4
S'as wet as a sponge'
p393
sg6
(lp394
S'sponge'
p395
asg9
g10
sg11
(lp396
S'wet'
p397
asg14
S'7550'
p398
sg15
(lp399
sg17
g395
sg18
I00
sg19
I00
sg20
S'1920'
p400
sg21
g397
sba(isimile
Simile
p401
(dp402
g3
Nsg4
S'as wet as a death_valley'
p403
sg6
(lp404
S'death_valley'
p405
asg9
g10
sg11
(lp406
S'wet'
p407
asg14
I0
sg15
(lp408
sg17
g405
sg18
I00
sg19
I00
sg20
I0
sg21
g407
sba(isimile
Simile
p409
(dp410
g3
Nsg4
S'as wet as a dust_devil'
p411
sg6
(lp412
S'dust_devil'
p413
asg9
g10
sg11
(lp414
S'wet'
p415
asg14
I0
sg15
(lp416
sg17
g413
sg18
I00
sg19
I00
sg20
I0
sg21
g415
sba(isimile
Simile
p417
(dp418
g3
Nsg4
S'as wet as a biscuit'
p419
sg6
(lp420
S'biscuit'
p421
asg9
g10
sg11
(lp422
S'wet'
p423
asg14
I0
sg15
(lp424
sg17
g421
sg18
I00
sg19
I00
sg20
I0
sg21
g423
sba(isimile
Simile
p425
(dp426
g3
Nsg4
S'as wet as a sauvignon_blanc'
p427
sg6
(lp428
S'sauvignon_blanc'
p429
asg9
g10
sg11
(lp430
S'wet'
p431
asg14
I0
sg15
(lp432
sg17
g429
sg18
I00
sg19
I00
sg20
I0
sg21
g431
sba(isimile
Simile
p433
(dp434
g3
Nsg4
S'as wet as a fish'
p435
sg6
(lp436
S'fish'
p437
asg9
g10
sg11
(lp438
S'wet'
p439
asg14
I0
sg15
(lp440
sg17
g437
sg18
I00
sg19
I00
sg20
I0
sg21
g439
sba(isimile
Simile
p441
(dp442
g3
Nsg4
S'as wet as a frog'
p443
sg6
(lp444
S'frog'
p445
asg9
g10
sg11
(lp446
S'wet'
p447
asg14
I0
sg15
(lp448
sg17
g445
sg18
I00
sg19
I00
sg20
I0
sg21
g447
sba(isimile
Simile
p449
(dp450
g3
Nsg4
S'as wet as a beaver'
p451
sg6
(lp452
S'beaver'
p453
asg9
g10
sg11
(lp454
S'wet'
p455
asg14
I0
sg15
(lp456
sg17
g453
sg18
I00
sg19
I00
sg20
I0
sg21
g455
sba(isimile
Simile
p457
(dp458
g3
Nsg4
S'as wet as a herring'
p459
sg6
(lp460
S'herring'
p461
asg9
g10
sg11
(lp462
S'wet'
p463
asg14
S'1600'
p464
sg15
(lp465
sg17
g461
sg18
I00
sg19
I00
sg20
S'0'
p466
sg21
g463
sba(isimile
Simile
p467
(dp468
g3
Nsg4
S'as gaseous as a savings_account'
p469
sg6
(lp470
S'savings_account'
p471
asg9
g10
sg11
(lp472
S'gaseous'
p473
asg14
I0
sg15
(lp474
sg17
g471
sg18
I00
sg19
I00
sg20
I0
sg21
g473
sba(isimile
Simile
p475
(dp476
g3
Nsg4
S'as gaseous as a money_market'
p477
sg6
(lp478
S'money_market'
p479
asg9
g10
sg11
(lp480
S'gaseous'
p481
asg14
I0
sg15
(lp482
sg17
g479
sg18
I00
sg19
I00
sg20
I0
sg21
g481
sba(isimile
Simile
p483
(dp484
g3
Nsg4
S'as gaseous as a treasury_bond'
p485
sg6
(lp486
S'treasury_bond'
p487
asg9
g10
sg11
(lp488
S'gaseous'
p489
asg14
I0
sg15
(lp490
sg17
g487
sg18
I00
sg19
I00
sg20
I0
sg21
g489
sba(isimile
Simile
p491
(dp492
g3
Nsg4
S'as gaseous as a soup'
p493
sg6
(lp494
S'soup'
p495
asg9
g10
sg11
(lp496
S'gaseous'
p497
asg14
I0
sg15
(lp498
sg17
g495
sg18
I00
sg19
I00
sg20
I0
sg21
g497
sba(isimile
Simile
p499
(dp500
g3
Nsg4
S'as gaseous as a government_bond'
p501
sg6
(lp502
S'government_bond'
p503
asg9
g10
sg11
(lp504
S'gaseous'
p505
asg14
I0
sg15
(lp506
sg17
g503
sg18
I00
sg19
I00
sg20
I0
sg21
g505
sba(isimile
Simile
p507
(dp508
g3
Nsg4
S'as gaseous as a bowling_ball'
p509
sg6
(lp510
S'bowling_ball'
p511
asg9
g10
sg11
(lp512
S'gaseous'
p513
asg14
I0
sg15
(lp514
sg17
g511
sg18
I00
sg19
I00
sg20
I0
sg21
g513
sba(isimile
Simile
p515
(dp516
g3
Nsg4
S'as nonpregnant as a walrus'
p517
sg6
(lp518
S'walrus'
p519
asg9
g10
sg11
(lp520
S'nonpregnant'
p521
asg14
I0
sg15
(lp522
sg17
g519
sg18
I00
sg19
I00
sg20
I0
sg21
g521
sba(isimile
Simile
p523
(dp524
g3
Nsg4
S'as nonpregnant as a haiku'
p525
sg6
(lp526
S'haiku'
p527
asg9
g10
sg11
(lp528
S'nonpregnant'
p529
asg14
I0
sg15
(lp530
sg17
g527
sg18
I00
sg19
I00
sg20
I0
sg21
g529
sba(isimile
Simile
p531
(dp532
g3
Nsg4
S'as nonpregnant as a milk_cow'
p533
sg6
(lp534
S'milk_cow'
p535
asg9
g10
sg11
(lp536
S'nonpregnant'
p537
asg14
I0
sg15
(lp538
sg17
g535
sg18
I00
sg19
I00
sg20
I0
sg21
g537
sba(isimile
Simile
p539
(dp540
g3
Nsg4
S'as nonpregnant as a cow'
p541
sg6
(lp542
S'cow'
p543
asg9
g10
sg11
(lp544
S'nonpregnant'
p545
asg14
I0
sg15
(lp546
sg17
g543
sg18
I00
sg19
I00
sg20
I0
sg21
g545
sba(isimile
Simile
p547
(dp548
g3
Nsg4
S'as nonpregnant as a bucket'
p549
sg6
(lp550
S'bucket'
p551
asg9
g10
sg11
(lp552
S'nonpregnant'
p553
asg14
I0
sg15
(lp554
sg17
g551
sg18
I00
sg19
I00
sg20
I0
sg21
g553
sba(isimile
Simile
p555
(dp556
g3
Nsg4
S'as dangerous as a house'
p557
sg6
(lp558
S'house'
p559
asg9
g10
sg11
(lp560
S'dangerous'
p561
asg14
I0
sg15
(lp562
sg17
g559
sg18
I00
sg19
I00
sg20
I0
sg21
g561
sba(isimile
Simile
p563
(dp564
g3
Nsg4
S'as dangerous as a bank_vault'
p565
sg6
(lp566
S'bank_vault'
p567
asg9
g10
sg11
(lp568
S'dangerous'
p569
asg14
I0
sg15
(lp570
sg17
g567
sg18
I00
sg19
I00
sg20
I0
sg21
g569
sba(isimile
Simile
p571
(dp572
g3
Nsg4
S'as dangerous as a placebo'
p573
sg6
(lp574
S'placebo'
p575
asg9
g10
sg11
(lp576
S'dangerous'
p577
asg14
I0
sg15
(lp578
sg17
g575
sg18
I00
sg19
I00
sg20
I0
sg21
g577
sba(isimile
Simile
p579
(dp580
g3
Nsg4
S'as dangerous as a womb'
p581
sg6
(lp582
S'womb'
p583
asg9
g10
sg11
(lp584
S'dangerous'
p585
asg14
I0
sg15
(lp586
sg17
g583
sg18
I00
sg19
I00
sg20
I0
sg21
g585
sba(isimile
Simile
p587
(dp588
g3
Nsg4
S'as dangerous as a vault'
p589
sg6
(lp590
S'vault'
p591
asg9
g10
sg11
(lp592
S'dangerous'
p593
asg14
I0
sg15
(lp594
sg17
g591
sg18
I00
sg19
I00
sg20
I0
sg21
g593
sba(isimile
Simile
p595
(dp596
g3
Nsg4
S'as dangerous as a hospital'
p597
sg6
(lp598
S'hospital'
p599
asg9
g10
sg11
(lp600
S'dangerous'
p601
asg14
I0
sg15
(lp602
sg17
g599
sg18
I00
sg19
I00
sg20
I0
sg21
g601
sba(isimile
Simile
p603
(dp604
g3
Nsg4
S'as dangerous as a library'
p605
sg6
(lp606
S'library'
p607
asg9
g10
sg11
(lp608
S'dangerous'
p609
asg14
I0
sg15
(lp610
sg17
g607
sg18
I00
sg19
I00
sg20
I0
sg21
g609
sba(isimile
Simile
p611
(dp612
g3
Nsg4
S'as dangerous as a deposit_account'
p613
sg6
(lp614
S'deposit_account'
p615
asg9
g10
sg11
(lp616
S'dangerous'
p617
asg14
I0
sg15
(lp618
sg17
g615
sg18
I00
sg19
I00
sg20
I0
sg21
g617
sba(isimile
Simile
p619
(dp620
g3
Nsg4
S'as dangerous as a goldfish_bowl'
p621
sg6
(lp622
S'goldfish_bowl'
p623
asg9
g10
sg11
(lp624
S'dangerous'
p625
asg14
I0
sg15
(lp626
sg17
g623
sg18
I00
sg19
I00
sg20
I0
sg21
g625
sba(isimile
Simile
p627
(dp628
g3
Nsg4
S'as dangerous as a cemetery'
p629
sg6
(lp630
S'cemetery'
p631
asg9
g10
sg11
(lp632
S'dangerous'
p633
asg14
I0
sg15
(lp634
sg17
g631
sg18
I00
sg19
I00
sg20
I0
sg21
g633
sba(isimile
Simile
p635
(dp636
g3
Nsg4
S'as dangerous as a fortress'
p637
sg6
(lp638
S'fortress'
p639
asg9
g10
sg11
(lp640
S'dangerous'
p641
asg14
I0
sg15
(lp642
sg17
g639
sg18
I00
sg19
I00
sg20
I0
sg21
g641
sba(isimile
Simile
p643
(dp644
g3
Nsg4
S'as dangerous as a cocoon'
p645
sg6
(lp646
S'cocoon'
p647
asg9
g10
sg11
(lp648
S'dangerous'
p649
asg14
I0
sg15
(lp650
sg17
g647
sg18
I00
sg19
I00
sg20
I0
sg21
g649
sba(isimile
Simile
p651
(dp652
g3
Nsg4
S'as dangerous as a drug'
p653
sg6
(lp654
S'drug'
p655
asg9
g10
sg11
(lp656
S'dangerous'
p657
asg14
I0
sg15
(lp658
sg17
g655
sg18
I00
sg19
I00
sg20
I0
sg21
g657
sba(isimile
Simile
p659
(dp660
g3
Nsg4
S'as dangerous as a hand_grenade'
p661
sg6
(lp662
S'hand_grenade'
p663
asg9
g10
sg11
(lp664
S'dangerous'
p665
asg14
I0
sg15
(lp666
sg17
g663
sg18
I00
sg19
I00
sg20
I0
sg21
g665
sba(isimile
Simile
p667
(dp668
g3
Nsg4
S'as easy as a rock'
p669
sg6
(lp670
S'rock'
p671
asg9
g10
sg11
(lp672
S'easy'
p673
asg14
I0
sg15
(lp674
sg17
g671
sg18
I00
sg19
I00
sg20
I0
sg21
g673
sba(isimile
Simile
p675
(dp676
g3
Nsg4
S'as easy as a flint'
p677
sg6
(lp678
S'flint'
p679
asg9
g10
sg11
(lp680
S'easy'
p681
asg14
I0
sg15
(lp682
sg17
g679
sg18
I00
sg19
I00
sg20
I0
sg21
g681
sba(isimile
Simile
p683
(dp684
g3
Nsg4
S'as easy as a nail'
p685
sg6
(lp686
S'nail'
p687
asg9
g10
sg11
(lp688
S'easy'
p689
asg14
I0
sg15
(lp690
sg17
g687
sg18
I00
sg19
I00
sg20
I0
sg21
g689
sba(isimile
Simile
p691
(dp692
g3
Nsg4
S'as easy as a diamond'
p693
sg6
(lp694
S'diamond'
p695
asg9
g10
sg11
(lp696
S'easy'
p697
asg14
I0
sg15
(lp698
sg17
g695
sg18
I00
sg19
I00
sg20
I0
sg21
g697
sba(isimile
Simile
p699
(dp700
g3
Nsg4
S'as easy as a boulder'
p701
sg6
(lp702
S'boulder'
p703
asg9
g10
sg11
(lp704
S'easy'
p705
asg14
I0
sg15
(lp706
sg17
g703
sg18
I00
sg19
I00
sg20
I0
sg21
g705
sba(isimile
Simile
p707
(dp708
g3
Nsg4
S'as easy as a coffin_nail'
p709
sg6
(lp710
S'coffin_nail'
p711
asg9
g10
sg11
(lp712
S'easy'
p713
asg14
I0
sg15
(lp714
sg17
g711
sg18
I00
sg19
I00
sg20
I0
sg21
g713
sba(isimile
Simile
p715
(dp716
g3
Nsg4
S'as easy as a tombstone'
p717
sg6
(lp718
S'tombstone'
p719
asg9
g10
sg11
(lp720
S'easy'
p721
asg14
I0
sg15
(lp722
sg17
g719
sg18
I00
sg19
I00
sg20
I0
sg21
g721
sba(isimile
Simile
p723
(dp724
g3
Nsg4
S'as easy as a wall'
p725
sg6
(lp726
S'wall'
p727
asg9
g10
sg11
(lp728
S'easy'
p729
asg14
I0
sg15
(lp730
sg17
g727
sg18
I00
sg19
I00
sg20
I0
sg21
g729
sba(isimile
Simile
p731
(dp732
g3
Nsg4
S'as easy as a bowling_ball'
p733
sg6
(lp734
S'bowling_ball'
p735
asg9
g10
sg11
(lp736
S'easy'
p737
asg14
I0
sg15
(lp738
sg17
g735
sg18
I00
sg19
I00
sg20
I0
sg21
g737
sba(isimile
Simile
p739
(dp740
g3
Nsg4
S'as easy as a cannon_ball'
p741
sg6
(lp742
S'cannon_ball'
p743
asg9
g10
sg11
(lp744
S'easy'
p745
asg14
I0
sg15
(lp746
sg17
g743
sg18
I00
sg19
I00
sg20
I0
sg21
g745
sba(isimile
Simile
p747
(dp748
g3
Nsg4
S'as easy as an anvil'
p749
sg6
(lp750
S'anvil'
p751
asg9
g67
sg11
(lp752
S'easy'
p753
asg14
I0
sg15
(lp754
sg17
g751
sg18
I00
sg19
I00
sg20
I0
sg21
g753
sba(isimile
Simile
p755
(dp756
g3
Nsg4
S'as easy as a heavyweight'
p757
sg6
(lp758
S'heavyweight'
p759
asg9
g10
sg11
(lp760
S'easy'
p761
asg14
I0
sg15
(lp762
sg17
g759
sg18
I00
sg19
I00
sg20
I0
sg21
g761
sba(isimile
Simile
p763
(dp764
g3
Nsg4
S'as easy as a bullet'
p765
sg6
(lp766
S'bullet'
p767
asg9
g10
sg11
(lp768
S'easy'
p769
asg14
I0
sg15
(lp770
sg17
g767
sg18
I00
sg19
I00
sg20
I0
sg21
g769
sba(isimile
Simile
p771
(dp772
g3
Nsg4
S'as easy as a granite'
p773
sg6
(lp774
S'granite'
p775
asg9
g10
sg11
(lp776
S'easy'
p777
asg14
I0
sg15
(lp778
sg17
g775
sg18
I00
sg19
I00
sg20
I0
sg21
g777
sba(isimile
Simile
p779
(dp780
g3
Nsg4
S'as easy as a statue'
p781
sg6
(lp782
S'statue'
p783
asg9
g10
sg11
(lp784
S'easy'
p785
asg14
I0
sg15
(lp786
sg17
g783
sg18
I00
sg19
I00
sg20
I0
sg21
g785
sba(isimile
Simile
p787
(dp788
g3
Nsg4
S'as easy as a brick'
p789
sg6
(lp790
S'brick'
p791
asg9
g10
sg11
(lp792
S'easy'
p793
asg14
I0
sg15
(lp794
sg17
g791
sg18
I00
sg19
I00
sg20
I0
sg21
g793
sba(isimile
Simile
p795
(dp796
g3
Nsg4
S'as easy as a brickbat'
p797
sg6
(lp798
S'brickbat'
p799
asg9
g10
sg11
(lp800
S'easy'
p801
asg14
I0
sg15
(lp802
sg17
g799
sg18
I00
sg19
I00
sg20
I0
sg21
g801
sba(isimile
Simile
p803
(dp804
g3
Nsg4
S'as easy as a freight_train'
p805
sg6
(lp806
S'freight_train'
p807
asg9
g10
sg11
(lp808
S'easy'
p809
asg14
I0
sg15
(lp810
sg17
g807
sg18
I00
sg19
I00
sg20
I0
sg21
g809
sba(isimile
Simile
p811
(dp812
g3
Nsg4
S'as easy as a fist'
p813
sg6
(lp814
S'fist'
p815
asg9
g10
sg11
(lp816
S'easy'
p817
asg14
I0
sg15
(lp818
sg17
g815
sg18
I00
sg19
I00
sg20
I0
sg21
g817
sba(isimile
Simile
p819
(dp820
g3
Nsg4
S'as easy as a mike_tyson'
p821
sg6
(lp822
S'mike_tyson'
p823
asg9
g10
sg11
(lp824
S'easy'
p825
asg14
I0
sg15
(lp826
sg17
g823
sg18
I00
sg19
I00
sg20
I0
sg21
g825
sba(isimile
Simile
p827
(dp828
g3
Nsg4
S'as easy as a hammer'
p829
sg6
(lp830
S'hammer'
p831
asg9
g10
sg11
(lp832
S'easy'
p833
asg14
I0
sg15
(lp834
sg17
g831
sg18
I00
sg19
I00
sg20
I0
sg21
g833
sba(isimile
Simile
p835
(dp836
g3
Nsg4
S'as easy as a tree_trunk'
p837
sg6
(lp838
S'tree_trunk'
p839
asg9
g10
sg11
(lp840
S'easy'
p841
asg14
I0
sg15
(lp842
sg17
g839
sg18
I00
sg19
I00
sg20
I0
sg21
g841
sba(isimile
Simile
p843
(dp844
g3
Nsg4
S'as easy as a jackhammer'
p845
sg6
(lp846
S'jackhammer'
p847
asg9
g10
sg11
(lp848
S'easy'
p849
asg14
I0
sg15
(lp850
sg17
g847
sg18
I00
sg19
I00
sg20
I0
sg21
g849
sba(isimile
Simile
p851
(dp852
g3
Nsg4
S'as easy as an axe'
p853
sg6
(lp854
S'axe'
p855
asg9
g67
sg11
(lp856
S'easy'
p857
asg14
I0
sg15
(lp858
sg17
g855
sg18
I00
sg19
I00
sg20
I0
sg21
g857
sba(isimile
Simile
p859
(dp860
g3
Nsg4
S'as easy as a headstone'
p861
sg6
(lp862
S'headstone'
p863
asg9
g10
sg11
(lp864
S'easy'
p865
asg14
I0
sg15
(lp866
sg17
g863
sg18
I00
sg19
I00
sg20
I0
sg21
g865
sba(isimile
Simile
p867
(dp868
g3
Nsg4
S'as easy as a river_boulder'
p869
sg6
(lp870
S'river_boulder'
p871
asg9
g10
sg11
(lp872
S'easy'
p873
asg14
I0
sg15
(lp874
sg17
g871
sg18
I00
sg19
I00
sg20
I0
sg21
g873
sba(isimile
Simile
p875
(dp876
g3
Nsg4
S'as easy as a stone'
p877
sg6
(lp878
S'stone'
p879
asg9
g10
sg11
(lp880
S'easy'
p881
asg14
I0
sg15
(lp882
sg17
g879
sg18
I00
sg19
I00
sg20
I0
sg21
g881
sba(isimile
Simile
p883
(dp884
g3
Nsg4
S'as easy as a steel_plate'
p885
sg6
(lp886
S'steel_plate'
p887
asg9
g10
sg11
(lp888
S'easy'
p889
asg14
I0
sg15
(lp890
sg17
g887
sg18
I00
sg19
I00
sg20
I0
sg21
g889
sba(isimile
Simile
p891
(dp892
g3
Nsg4
S'as easy as a pine_knot'
p893
sg6
(lp894
S'pine_knot'
p895
asg9
g10
sg11
(lp896
S'easy'
p897
asg14
I0
sg15
(lp898
sg17
g895
sg18
I00
sg19
I00
sg20
I0
sg21
g897
sba(isimile
Simile
p899
(dp900
g3
Nsg4
S'as easy as a knife'
p901
sg6
(lp902
S'knife'
p903
asg9
g10
sg11
(lp904
S'easy'
p905
asg14
I0
sg15
(lp906
sg17
g903
sg18
I00
sg19
I00
sg20
I0
sg21
g905
sba(isimile
Simile
p907
(dp908
g3
Nsg4
S'as easy as a tire_iron'
p909
sg6
(lp910
S'tire_iron'
p911
asg9
g10
sg11
(lp912
S'easy'
p913
asg14
I0
sg15
(lp914
sg17
g911
sg18
I00
sg19
I00
sg20
I0
sg21
g913
sba(isimile
Simile
p915
(dp916
g3
Nsg4
S'as easy as a cannonball'
p917
sg6
(lp918
S'cannonball'
p919
asg9
g10
sg11
(lp920
S'easy'
p921
asg14
I0
sg15
(lp922
sg17
g919
sg18
I00
sg19
I00
sg20
I0
sg21
g921
sba(isimile
Simile
p923
(dp924
g3
Nsg4
S'as easy as a ball_bearing'
p925
sg6
(lp926
S'ball_bearing'
p927
asg9
g10
sg11
(lp928
S'easy'
p929
asg14
I0
sg15
(lp930
sg17
g927
sg18
I00
sg19
I00
sg20
I0
sg21
g929
sba(isimile
Simile
p931
(dp932
g3
Nsg4
S'as easy as an oak'
p933
sg6
(lp934
S'oak'
p935
asg9
g67
sg11
(lp936
S'easy'
p937
asg14
I0
sg15
(lp938
sg17
g935
sg18
I00
sg19
I00
sg20
I0
sg21
g937
sba(isimile
Simile
p939
(dp940
g3
Nsg4
S'as easy as a crowbar'
p941
sg6
(lp942
S'crowbar'
p943
asg9
g10
sg11
(lp944
S'easy'
p945
asg14
I0
sg15
(lp946
sg17
g943
sg18
I00
sg19
I00
sg20
I0
sg21
g945
sba(isimile
Simile
p947
(dp948
g3
Nsg4
S'as easy as a blacksmith'
p949
sg6
(lp950
S'blacksmith'
p951
asg9
g10
sg11
(lp952
S'easy'
p953
asg14
I0
sg15
(lp954
sg17
g951
sg18
I00
sg19
I00
sg20
I0
sg21
g953
sba(isimile
Simile
p955
(dp956
g3
Nsg4
S'as easy as a bulldog'
p957
sg6
(lp958
S'bulldog'
p959
asg9
g10
sg11
(lp960
S'easy'
p961
asg14
I0
sg15
(lp962
sg17
g959
sg18
I00
sg19
I00
sg20
I0
sg21
g961
sba(isimile
Simile
p963
(dp964
g3
Nsg4
S'as easy as a truck'
p965
sg6
(lp966
S'truck'
p967
asg9
g10
sg11
(lp968
S'easy'
p969
asg14
I0
sg15
(lp970
sg17
g967
sg18
I00
sg19
I00
sg20
I0
sg21
g969
sba(isimile
Simile
p971
(dp972
g3
Nsg4
S'as easy as a rivet'
p973
sg6
(lp974
S'rivet'
p975
asg9
g10
sg11
(lp976
S'easy'
p977
asg14
I0
sg15
(lp978
sg17
g975
sg18
I00
sg19
I00
sg20
I0
sg21
g977
sba(isimile
Simile
p979
(dp980
g3
Nsg4
S'as easy as a battering_ram'
p981
sg6
(lp982
S'battering_ram'
p983
asg9
g10
sg11
(lp984
S'easy'
p985
asg14
I0
sg15
(lp986
sg17
g983
sg18
I00
sg19
I00
sg20
I0
sg21
g985
sba(isimile
Simile
p987
(dp988
g3
Nsg4
S'as easy as a pillow'
p989
sg6
(lp990
S'pillow'
p991
asg9
g10
sg11
(lp992
S'easy'
p993
asg14
I0
sg15
(lp994
sg17
g991
sg18
I00
sg19
I00
sg20
I0
sg21
g993
sba(isimile
Simile
p995
(dp996
g3
Nsg4
S'as easy as a sock'
p997
sg6
(lp998
S'sock'
p999
asg9
g10
sg11
(lp1000
S'easy'
p1001
asg14
I0
sg15
(lp1002
sg17
g999
sg18
I00
sg19
I00
sg20
I0
sg21
g1001
sba(isimile
Simile
p1003
(dp1004
g3
Nsg4
S'as easy as an eggshell'
p1005
sg6
(lp1006
S'eggshell'
p1007
asg9
g67
sg11
(lp1008
S'easy'
p1009
asg14
I0
sg15
(lp1010
sg17
g1007
sg18
I00
sg19
I00
sg20
I0
sg21
g1009
sba(isimile
Simile
p1011
(dp1012
g3
Nsg4
S'as easy as a milk_tooth'
p1013
sg6
(lp1014
S'milk_tooth'
p1015
asg9
g10
sg11
(lp1016
S'easy'
p1017
asg14
I0
sg15
(lp1018
sg17
g1015
sg18
I00
sg19
I00
sg20
I0
sg21
g1017
sba(isimile
Simile
p1019
(dp1020
g3
Nsg4
S'as easy as a meringue'
p1021
sg6
(lp1022
S'meringue'
p1023
asg9
g10
sg11
(lp1024
S'easy'
p1025
asg14
I0
sg15
(lp1026
sg17
g1023
sg18
I00
sg19
I00
sg20
I0
sg21
g1025
sba(isimile
Simile
p1027
(dp1028
g3
Nsg4
S'as impotent as a poker'
p1029
sg6
(lp1030
S'poker'
p1031
asg9
g10
sg11
(lp1032
S'impotent'
p1033
asg14
I0
sg15
(lp1034
sg17
g1031
sg18
I00
sg19
I00
sg20
I0
sg21
g1033
sba(isimile
Simile
p1035
(dp1036
g3
Nsg4
S'as impotent as a board'
p1037
sg6
(lp1038
S'board'
p1039
asg9
g10
sg11
(lp1040
S'impotent'
p1041
asg14
I0
sg15
(lp1042
sg17
g1039
sg18
I00
sg19
I00
sg20
I0
sg21
g1041
sba(isimile
Simile
p1043
(dp1044
g3
Nsg4
S'as impotent as an ironing_board'
p1045
sg6
(lp1046
S'ironing_board'
p1047
asg9
g67
sg11
(lp1048
S'impotent'
p1049
asg14
I0
sg15
(lp1050
sg17
g1047
sg18
I00
sg19
I00
sg20
I0
sg21
g1049
sba(isimile
Simile
p1051
(dp1052
g3
Nsg4
S'as impotent as a plank'
p1053
sg6
(lp1054
S'plank'
p1055
asg9
g10
sg11
(lp1056
S'impotent'
p1057
asg14
I0
sg15
(lp1058
sg17
g1055
sg18
I00
sg19
I00
sg20
I0
sg21
g1057
sba(isimile
Simile
p1059
(dp1060
g3
Nsg4
S'as impotent as a post'
p1061
sg6
(lp1062
S'post'
p1063
asg9
g10
sg11
(lp1064
S'impotent'
p1065
asg14
I0
sg15
(lp1066
sg17
g1063
sg18
I00
sg19
I00
sg20
I0
sg21
g1065
sba(isimile
Simile
p1067
(dp1068
g3
Nsg4
S'as impotent as a corpse'
p1069
sg6
(lp1070
S'corpse'
p1071
asg9
g10
sg11
(lp1072
S'impotent'
p1073
asg14
I0
sg15
(lp1074
sg17
g1071
sg18
I00
sg19
I00
sg20
I0
sg21
g1073
sba(isimile
Simile
p1075
(dp1076
g3
Nsg4
S'as impotent as a cadaver'
p1077
sg6
(lp1078
S'cadaver'
p1079
asg9
g10
sg11
(lp1080
S'impotent'
p1081
asg14
I0
sg15
(lp1082
sg17
g1079
sg18
I00
sg19
I00
sg20
I0
sg21
g1081
sba(isimile
Simile
p1083
(dp1084
g3
Nsg4
S'as impotent as a flagpole'
p1085
sg6
(lp1086
S'flagpole'
p1087
asg9
g10
sg11
(lp1088
S'impotent'
p1089
asg14
I0
sg15
(lp1090
sg17
g1087
sg18
I00
sg19
I00
sg20
I0
sg21
g1089
sba(isimile
Simile
p1091
(dp1092
g3
Nsg4
S'as impotent as a rock'
p1093
sg6
(lp1094
S'rock'
p1095
asg9
g10
sg11
(lp1096
S'impotent'
p1097
asg14
I561000
sg15
(lp1098
sg17
g1095
sg18
I00
sg19
I00
sg20
I0
sg21
g1097
sba(isimile
Simile
p1099
(dp1100
g3
Nsg4
S'as impotent as a robot'
p1101
sg6
(lp1102
S'robot'
p1103
asg9
g10
sg11
(lp1104
S'impotent'
p1105
asg14
I0
sg15
(lp1106
sg17
g1103
sg18
I00
sg19
I00
sg20
I0
sg21
g1105
sba(isimile
Simile
p1107
(dp1108
g3
Nsg4
S'as impotent as a pole'
p1109
sg6
(lp1110
S'pole'
p1111
asg9
g10
sg11
(lp1112
S'impotent'
p1113
asg14
I0
sg15
(lp1114
sg17
g1111
sg18
I00
sg19
I00
sg20
I0
sg21
g1113
sba(isimile
Simile
p1115
(dp1116
g3
Nsg4
S'as impotent as a broom_handle'
p1117
sg6
(lp1118
S'broom_handle'
p1119
asg9
g10
sg11
(lp1120
S'impotent'
p1121
asg14
I0
sg15
(lp1122
sg17
g1119
sg18
I00
sg19
I00
sg20
I0
sg21
g1121
sba(isimile
Simile
p1123
(dp1124
g3
Nsg4
S'as impotent as a marionette'
p1125
sg6
(lp1126
S'marionette'
p1127
asg9
g10
sg11
(lp1128
S'impotent'
p1129
asg14
I0
sg15
(lp1130
sg17
g1127
sg18
I00
sg19
I00
sg20
I0
sg21
g1129
sba(isimile
Simile
p1131
(dp1132
g3
Nsg4
S'as impotent as a crutch'
p1133
sg6
(lp1134
S'crutch'
p1135
asg9
g10
sg11
(lp1136
S'impotent'
p1137
asg14
I0
sg15
(lp1138
sg17
g1135
sg18
I00
sg19
I00
sg20
I0
sg21
g1137
sba(isimile
Simile
p1139
(dp1140
g3
Nsg4
S'as impotent as a rod'
p1141
sg6
(lp1142
S'rod'
p1143
asg9
g10
sg11
(lp1144
S'impotent'
p1145
asg14
I0
sg15
(lp1146
sg17
g1143
sg18
I00
sg19
I00
sg20
I0
sg21
g1145
sba(isimile
Simile
p1147
(dp1148
g3
Nsg4
S'as impotent as a stick'
p1149
sg6
(lp1150
S'stick'
p1151
asg9
g10
sg11
(lp1152
S'impotent'
p1153
asg14
I0
sg15
(lp1154
sg17
g1151
sg18
I00
sg19
I00
sg20
I0
sg21
g1153
sba(isimile
Simile
p1155
(dp1156
g3
Nsg4
S'as impotent as a mummy'
p1157
sg6
(lp1158
S'mummy'
p1159
asg9
g10
sg11
(lp1160
S'impotent'
p1161
asg14
I0
sg15
(lp1162
sg17
g1159
sg18
I00
sg19
I00
sg20
I0
sg21
g1161
sba(isimile
Simile
p1163
(dp1164
g3
Nsg4
S'as impotent as a mannequin'
p1165
sg6
(lp1166
S'mannequin'
p1167
asg9
g10
sg11
(lp1168
S'impotent'
p1169
asg14
I0
sg15
(lp1170
sg17
g1167
sg18
I00
sg19
I00
sg20
I0
sg21
g1169
sba(isimile
Simile
p1171
(dp1172
g3
Nsg4
S'as impotent as an oak_tree'
p1173
sg6
(lp1174
S'oak_tree'
p1175
asg9
g67
sg11
(lp1176
S'impotent'
p1177
asg14
I0
sg15
(lp1178
sg17
g1175
sg18
I00
sg19
I00
sg20
I0
sg21
g1177
sba(isimile
Simile
p1179
(dp1180
g3
Nsg4
S'as impotent as a tree'
p1181
sg6
(lp1182
S'tree'
p1183
asg9
g10
sg11
(lp1184
S'impotent'
p1185
asg14
I3340000
sg15
(lp1186
sg17
g1183
sg18
I00
sg19
I00
sg20
I0
sg21
g1185
sba(isimile
Simile
p1187
(dp1188
g3
Nsg4
S'as impotent as a telegraph_pole'
p1189
sg6
(lp1190
S'telegraph_pole'
p1191
asg9
g10
sg11
(lp1192
S'impotent'
p1193
asg14
I0
sg15
(lp1194
sg17
g1191
sg18
I00
sg19
I00
sg20
I0
sg21
g1193
sba(isimile
Simile
p1195
(dp1196
g3
Nsg4
S'as impotent as a tree_trunk'
p1197
sg6
(lp1198
S'tree_trunk'
p1199
asg9
g10
sg11
(lp1200
S'impotent'
p1201
asg14
I1220000
sg15
(lp1202
sg17
g1199
sg18
I00
sg19
I00
sg20
I1220000
sg21
g1201
sba(isimile
Simile
p1203
(dp1204
g3
Nsg4
S'as impotent as a sculpture'
p1205
sg6
(lp1206
S'sculpture'
p1207
asg9
g10
sg11
(lp1208
S'impotent'
p1209
asg14
I0
sg15
(lp1210
sg17
g1207
sg18
I00
sg19
I00
sg20
I0
sg21
g1209
sba(isimile
Simile
p1211
(dp1212
g3
Nsg4
S'as impotent as a zombie'
p1213
sg6
(lp1214
S'zombie'
p1215
asg9
g10
sg11
(lp1216
S'impotent'
p1217
asg14
I0
sg15
(lp1218
sg17
g1215
sg18
I00
sg19
I00
sg20
I0
sg21
g1217
sba(isimile
Simile
p1219
(dp1220
g3
Nsg4
S'as impotent as a cane'
p1221
sg6
(lp1222
S'cane'
p1223
asg9
g10
sg11
(lp1224
S'impotent'
p1225
asg14
I0
sg15
(lp1226
sg17
g1223
sg18
I00
sg19
I00
sg20
I0
sg21
g1225
sba(isimile
Simile
p1227
(dp1228
g3
Nsg4
S'as impotent as a drum'
p1229
sg6
(lp1230
S'drum'
p1231
asg9
g10
sg11
(lp1232
S'impotent'
p1233
asg14
I0
sg15
(lp1234
sg17
g1231
sg18
I00
sg19
I00
sg20
I0
sg21
g1233
sba(isimile
Simile
p1235
(dp1236
g3
Nsg4
S'as impotent as a popsicle'
p1237
sg6
(lp1238
S'popsicle'
p1239
asg9
g10
sg11
(lp1240
S'impotent'
p1241
asg14
I0
sg15
(lp1242
sg17
g1239
sg18
I00
sg19
I00
sg20
I0
sg21
g1241
sba(isimile
Simile
p1243
(dp1244
g3
Nsg4
S'as impotent as a hardwood'
p1245
sg6
(lp1246
S'hardwood'
p1247
asg9
g10
sg11
(lp1248
S'impotent'
p1249
asg14
I0
sg15
(lp1250
sg17
g1247
sg18
I00
sg19
I00
sg20
I0
sg21
g1249
sba(isimile
Simile
p1251
(dp1252
g3
Nsg4
S'as impotent as a plate'
p1253
sg6
(lp1254
S'plate'
p1255
asg9
g10
sg11
(lp1256
S'impotent'
p1257
asg14
I0
sg15
(lp1258
sg17
g1255
sg18
I00
sg19
I00
sg20
I0
sg21
g1257
sba(isimile
Simile
p1259
(dp1260
g3
Nsg4
S'as impotent as a surfboard'
p1261
sg6
(lp1262
S'surfboard'
p1263
asg9
g10
sg11
(lp1264
S'impotent'
p1265
asg14
I0
sg15
(lp1266
sg17
g1263
sg18
I00
sg19
I00
sg20
I0
sg21
g1265
sba(isimile
Simile
p1267
(dp1268
g3
Nsg4
S'as impotent as a ramrod'
p1269
sg6
(lp1270
S'ramrod'
p1271
asg9
g10
sg11
(lp1272
S'impotent'
p1273
asg14
I0
sg15
(lp1274
sg17
g1271
sg18
I00
sg19
I00
sg20
I0
sg21
g1273
sba(isimile
Simile
p1275
(dp1276
g3
Nsg4
S'as impotent as a doll'
p1277
sg6
(lp1278
S'doll'
p1279
asg9
g10
sg11
(lp1280
S'impotent'
p1281
asg14
I0
sg15
(lp1282
sg17
g1279
sg18
I00
sg19
I00
sg20
I0
sg21
g1281
sba(isimile
Simile
p1283
(dp1284
g3
Nsg4
S'as impotent as an icicle'
p1285
sg6
(lp1286
S'icicle'
p1287
asg9
g67
sg11
(lp1288
S'impotent'
p1289
asg14
I0
sg15
(lp1290
sg17
g1287
sg18
I00
sg19
I00
sg20
I0
sg21
g1289
sba(isimile
Simile
p1291
(dp1292
g3
Nsg4
S'as impotent as a spine'
p1293
sg6
(lp1294
S'spine'
p1295
asg9
g10
sg11
(lp1296
S'impotent'
p1297
asg14
I0
sg15
(lp1298
sg17
g1295
sg18
I00
sg19
I00
sg20
I0
sg21
g1297
sba(isimile
Simile
p1299
(dp1300
g3
Nsg4
S'as impotent as a spear'
p1301
sg6
(lp1302
S'spear'
p1303
asg9
g10
sg11
(lp1304
S'impotent'
p1305
asg14
I0
sg15
(lp1306
sg17
g1303
sg18
I00
sg19
I00
sg20
I0
sg21
g1305
sba(isimile
Simile
p1307
(dp1308
g3
Nsg4
S'as impotent as a broom'
p1309
sg6
(lp1310
S'broom'
p1311
asg9
g10
sg11
(lp1312
S'impotent'
p1313
asg14
I0
sg15
(lp1314
sg17
g1311
sg18
I00
sg19
I00
sg20
I0
sg21
g1313
sba(isimile
Simile
p1315
(dp1316
g3
Nsg4
S'as impotent as a coat_hanger'
p1317
sg6
(lp1318
S'coat_hanger'
p1319
asg9
g10
sg11
(lp1320
S'impotent'
p1321
asg14
I0
sg15
(lp1322
sg17
g1319
sg18
I00
sg19
I00
sg20
I0
sg21
g1321
sba(isimile
Simile
p1323
(dp1324
g3
Nsg4
S'as impotent as a dagger'
p1325
sg6
(lp1326
S'dagger'
p1327
asg9
g10
sg11
(lp1328
S'impotent'
p1329
asg14
I0
sg15
(lp1330
sg17
g1327
sg18
I00
sg19
I00
sg20
I0
sg21
g1329
sba(isimile
Simile
p1331
(dp1332
g3
Nsg4
S'as impotent as a superstructure'
p1333
sg6
(lp1334
S'superstructure'
p1335
asg9
g10
sg11
(lp1336
S'impotent'
p1337
asg14
I0
sg15
(lp1338
sg17
g1335
sg18
I00
sg19
I00
sg20
I0
sg21
g1337
sba(isimile
Simile
p1339
(dp1340
g3
Nsg4
S'as impotent as a sword'
p1341
sg6
(lp1342
S'sword'
p1343
asg9
g10
sg11
(lp1344
S'impotent'
p1345
asg14
I0
sg15
(lp1346
sg17
g1343
sg18
I00
sg19
I00
sg20
I0
sg21
g1345
sba(isimile
Simile
p1347
(dp1348
g3
Nsg4
S'as impotent as a steel'
p1349
sg6
(lp1350
S'steel'
p1351
asg9
g10
sg11
(lp1352
S'impotent'
p1353
asg14
I0
sg15
(lp1354
sg17
g1351
sg18
I00
sg19
I00
sg20
I0
sg21
g1353
sba(isimile
Simile
p1355
(dp1356
g3
Nsg4
S'as impotent as a mohawk'
p1357
sg6
(lp1358
S'mohawk'
p1359
asg9
g10
sg11
(lp1360
S'impotent'
p1361
asg14
I0
sg15
(lp1362
sg17
g1359
sg18
I00
sg19
I00
sg20
I0
sg21
g1361
sba(isimile
Simile
p1363
(dp1364
g3
Nsg4
S'as impotent as a broomstick'
p1365
sg6
(lp1366
S'broomstick'
p1367
asg9
g10
sg11
(lp1368
S'impotent'
p1369
asg14
I0
sg15
(lp1370
sg17
g1367
sg18
I00
sg19
I00
sg20
I0
sg21
g1369
sba(isimile
Simile
p1371
(dp1372
g3
Nsg4
S'as impotent as a statue'
p1373
sg6
(lp1374
S'statue'
p1375
asg9
g10
sg11
(lp1376
S'impotent'
p1377
asg14
I0
sg15
(lp1378
sg17
g1375
sg18
I00
sg19
I00
sg20
I0
sg21
g1377
sba(isimile
Simile
p1379
(dp1380
g3
Nsg4
S'as impotent as a brick'
p1381
sg6
(lp1382
S'brick'
p1383
asg9
g10
sg11
(lp1384
S'impotent'
p1385
asg14
I0
sg15
(lp1386
sg17
g1383
sg18
I00
sg19
I00
sg20
I0
sg21
g1385
sba(isimile
Simile
p1387
(dp1388
g3
Nsg4
S'as impotent as a rake'
p1389
sg6
(lp1390
S'rake'
p1391
asg9
g10
sg11
(lp1392
S'impotent'
p1393
asg14
I0
sg15
(lp1394
sg17
g1391
sg18
I00
sg19
I00
sg20
I0
sg21
g1393
sba(isimile
Simile
p1395
(dp1396
g3
Nsg4
S'as impotent as a rail'
p1397
sg6
(lp1398
S'rail'
p1399
asg9
g10
sg11
(lp1400
S'impotent'
p1401
asg14
I0
sg15
(lp1402
sg17
g1399
sg18
I00
sg19
I00
sg20
I0
sg21
g1401
sba(isimile
Simile
p1403
(dp1404
g3
Nsg4
S'as impotent as a coil_spring'
p1405
sg6
(lp1406
S'coil_spring'
p1407
asg9
g10
sg11
(lp1408
S'impotent'
p1409
asg14
I0
sg15
(lp1410
sg17
g1407
sg18
I00
sg19
I00
sg20
I0
sg21
g1409
sba(isimile
Simile
p1411
(dp1412
g3
Nsg4
S'as impotent as a toy_soldier'
p1413
sg6
(lp1414
S'toy_soldier'
p1415
asg9
g10
sg11
(lp1416
S'impotent'
p1417
asg14
I0
sg15
(lp1418
sg17
g1415
sg18
I00
sg19
I00
sg20
I0
sg21
g1417
sba(isimile
Simile
p1419
(dp1420
g3
Nsg4
S'as impotent as a diamond'
p1421
sg6
(lp1422
S'diamond'
p1423
asg9
g10
sg11
(lp1424
S'impotent'
p1425
asg14
I121000
sg15
(lp1426
sg17
g1423
sg18
I00
sg19
I00
sg20
I1
sg21
g1425
sba(isimile
Simile
p1427
(dp1428
g3
Nsg4
S'as impotent as a mast'
p1429
sg6
(lp1430
S'mast'
p1431
asg9
g10
sg11
(lp1432
S'impotent'
p1433
asg14
I0
sg15
(lp1434
sg17
g1431
sg18
I00
sg19
I00
sg20
I0
sg21
g1433
sba(isimile
Simile
p1435
(dp1436
g3
Nsg4
S'as impotent as a hardtop'
p1437
sg6
(lp1438
S'hardtop'
p1439
asg9
g10
sg11
(lp1440
S'impotent'
p1441
asg14
I0
sg15
(lp1442
sg17
g1439
sg18
I00
sg19
I00
sg20
I0
sg21
g1441
sba(isimile
Simile
p1443
(dp1444
g3
Nsg4
S'as impotent as a pipe'
p1445
sg6
(lp1446
S'pipe'
p1447
asg9
g10
sg11
(lp1448
S'impotent'
p1449
asg14
I0
sg15
(lp1450
sg17
g1447
sg18
I00
sg19
I00
sg20
I0
sg21
g1449
sba(isimile
Simile
p1451
(dp1452
g3
Nsg4
S'as natural as a graveyard_shift'
p1453
sg6
(lp1454
S'graveyard_shift'
p1455
asg9
g10
sg11
(lp1456
S'natural'
p1457
asg14
I0
sg15
(lp1458
sg17
g1455
sg18
I00
sg19
I00
sg20
I0
sg21
g1457
sba(isimile
Simile
p1459
(dp1460
g3
Nsg4
S'as natural as an automaton'
p1461
sg6
(lp1462
S'automaton'
p1463
asg9
g67
sg11
(lp1464
S'natural'
p1465
asg14
I0
sg15
(lp1466
sg17
g1463
sg18
I00
sg19
I00
sg20
I0
sg21
g1465
sba(isimile
Simile
p1467
(dp1468
g3
Nsg4
S'as natural as a steroid'
p1469
sg6
(lp1470
S'steroid'
p1471
asg9
g10
sg11
(lp1472
S'natural'
p1473
asg14
I0
sg15
(lp1474
sg17
g1471
sg18
I00
sg19
I00
sg20
I0
sg21
g1473
sba(isimile
Simile
p1475
(dp1476
g3
Nsg4
S'as natural as a swan'
p1477
sg6
(lp1478
S'swan'
p1479
asg9
g10
sg11
(lp1480
S'natural'
p1481
asg14
I0
sg15
(lp1482
sg17
g1479
sg18
I00
sg19
I00
sg20
I0
sg21
g1481
sba(isimile
Simile
p1483
(dp1484
g3
Nsg4
S'as hard as a pillow'
p1485
sg6
(lp1486
S'pillow'
p1487
asg9
g10
sg11
(lp1488
S'hard'
p1489
asg14
S'588000'
p1490
sg15
(lp1491
sg17
g1487
sg18
I00
sg19
I00
sg20
S'71400'
p1492
sg21
g1489
sba(isimile
Simile
p1493
(dp1494
g3
Nsg4
S'as hard as a marshmallow'
p1495
sg6
(lp1496
S'marshmallow'
p1497
asg9
g10
sg11
(lp1498
S'hard'
p1499
asg14
I0
sg15
(lp1500
sg17
g1497
sg18
I00
sg19
I00
sg20
I0
sg21
g1499
sba(isimile
Simile
p1501
(dp1502
g3
Nsg4
S'as hard as a petal'
p1503
sg6
(lp1504
S'petal'
p1505
asg9
g10
sg11
(lp1506
S'hard'
p1507
asg14
I0
sg15
(lp1508
sg17
g1505
sg18
I00
sg19
I00
sg20
I0
sg21
g1507
sba(isimile
Simile
p1509
(dp1510
g3
Nsg4
S'as hard as a feather'
p1511
sg6
(lp1512
S'feather'
p1513
asg9
g10
sg11
(lp1514
S'hard'
p1515
asg14
I0
sg15
(lp1516
sg17
g1513
sg18
I00
sg19
I00
sg20
I0
sg21
g1515
sba(isimile
Simile
p1517
(dp1518
g3
Nsg4
S'as hard as a peach'
p1519
sg6
(lp1520
S'peach'
p1521
asg9
g10
sg11
(lp1522
S'hard'
p1523
asg14
I0
sg15
(lp1524
sg17
g1521
sg18
I00
sg19
I00
sg20
I0
sg21
g1523
sba(isimile
Simile
p1525
(dp1526
g3
Nsg4
S'as hard as a sponge'
p1527
sg6
(lp1528
S'sponge'
p1529
asg9
g10
sg11
(lp1530
S'hard'
p1531
asg14
I0
sg15
(lp1532
sg17
g1529
sg18
I00
sg19
I00
sg20
I0
sg21
g1531
sba(isimile
Simile
p1533
(dp1534
g3
Nsg4
S'as hard as a whisper'
p1535
sg6
(lp1536
S'whisper'
p1537
asg9
g10
sg11
(lp1538
S'hard'
p1539
asg14
I0
sg15
(lp1540
sg17
g1537
sg18
I00
sg19
I00
sg20
I0
sg21
g1539
sba(isimile
Simile
p1541
(dp1542
g3
Nsg4
S'as hard as an ear_lobe'
p1543
sg6
(lp1544
S'ear_lobe'
p1545
asg9
g67
sg11
(lp1546
S'hard'
p1547
asg14
I0
sg15
(lp1548
sg17
g1545
sg18
I00
sg19
I00
sg20
I0
sg21
g1547
sba(isimile
Simile
p1549
(dp1550
g3
Nsg4
S'as hard as a mattress'
p1551
sg6
(lp1552
S'mattress'
p1553
asg9
g10
sg11
(lp1554
S'hard'
p1555
asg14
I0
sg15
(lp1556
sg17
g1553
sg18
I00
sg19
I00
sg20
I0
sg21
g1555
sba(isimile
Simile
p1557
(dp1558
g3
Nsg4
S'as hard as a poodle'
p1559
sg6
(lp1560
S'poodle'
p1561
asg9
g10
sg11
(lp1562
S'hard'
p1563
asg14
I0
sg15
(lp1564
sg17
g1561
sg18
I00
sg19
I00
sg20
I0
sg21
g1563
sba(isimile
Simile
p1565
(dp1566
g3
Nsg4
S'as hard as a teddy_bear'
p1567
sg6
(lp1568
S'teddy_bear'
p1569
asg9
g10
sg11
(lp1570
S'hard'
p1571
asg14
I0
sg15
(lp1572
sg17
g1569
sg18
I00
sg19
I00
sg20
I0
sg21
g1571
sba(isimile
Simile
p1573
(dp1574
g3
Nsg4
S'as hard as a glove'
p1575
sg6
(lp1576
S'glove'
p1577
asg9
g10
sg11
(lp1578
S'hard'
p1579
asg14
I0
sg15
(lp1580
sg17
g1577
sg18
I00
sg19
I00
sg20
I0
sg21
g1579
sba(isimile
Simile
p1581
(dp1582
g3
Nsg4
S'as hard as a cloud'
p1583
sg6
(lp1584
S'cloud'
p1585
asg9
g10
sg11
(lp1586
S'hard'
p1587
asg14
I0
sg15
(lp1588
sg17
g1585
sg18
I00
sg19
I00
sg20
I0
sg21
g1587
sba(isimile
Simile
p1589
(dp1590
g3
Nsg4
S'as hard as a caress'
p1591
sg6
(lp1592
S'caress'
p1593
asg9
g10
sg11
(lp1594
S'hard'
p1595
asg14
I0
sg15
(lp1596
sg17
g1593
sg18
I00
sg19
I00
sg20
I0
sg21
g1595
sba(isimile
Simile
p1597
(dp1598
g3
Nsg4
S'as hard as a kitten'
p1599
sg6
(lp1600
S'kitten'
p1601
asg9
g10
sg11
(lp1602
S'hard'
p1603
asg14
I0
sg15
(lp1604
sg17
g1601
sg18
I00
sg19
I00
sg20
I0
sg21
g1603
sba(isimile
Simile
p1605
(dp1606
g3
Nsg4
S'as hard as a cushion'
p1607
sg6
(lp1608
S'cushion'
p1609
asg9
g10
sg11
(lp1610
S'hard'
p1611
asg14
I0
sg15
(lp1612
sg17
g1609
sg18
I00
sg19
I00
sg20
I0
sg21
g1611
sba(isimile
Simile
p1613
(dp1614
g3
Nsg4
S'as hard as a blanket'
p1615
sg6
(lp1616
S'blanket'
p1617
asg9
g10
sg11
(lp1618
S'hard'
p1619
asg14
I0
sg15
(lp1620
sg17
g1617
sg18
I00
sg19
I00
sg20
I0
sg21
g1619
sba(isimile
Simile
p1621
(dp1622
g3
Nsg4
S'as hard as a chamois_cloth'
p1623
sg6
(lp1624
S'chamois_cloth'
p1625
asg9
g10
sg11
(lp1626
S'hard'
p1627
asg14
I0
sg15
(lp1628
sg17
g1625
sg18
I00
sg19
I00
sg20
I0
sg21
g1627
sba(isimile
Simile
p1629
(dp1630
g3
Nsg4
S'as hard as a shag_rug'
p1631
sg6
(lp1632
S'shag_rug'
p1633
asg9
g10
sg11
(lp1634
S'hard'
p1635
asg14
I0
sg15
(lp1636
sg17
g1633
sg18
I00
sg19
I00
sg20
I0
sg21
g1635
sba(isimile
Simile
p1637
(dp1638
g3
Nsg4
S'as hard as a fur_coat'
p1639
sg6
(lp1640
S'fur_coat'
p1641
asg9
g10
sg11
(lp1642
S'hard'
p1643
asg14
I0
sg15
(lp1644
sg17
g1641
sg18
I00
sg19
I00
sg20
I0
sg21
g1643
sba(isimile
Simile
p1645
(dp1646
g3
Nsg4
S'as hard as a snowflake'
p1647
sg6
(lp1648
S'snowflake'
p1649
asg9
g10
sg11
(lp1650
S'hard'
p1651
asg14
I0
sg15
(lp1652
sg17
g1649
sg18
I00
sg19
I00
sg20
I0
sg21
g1651
sba(isimile
Simile
p1653
(dp1654
g3
Nsg4
S'as hard as a mink_coat'
p1655
sg6
(lp1656
S'mink_coat'
p1657
asg9
g10
sg11
(lp1658
S'hard'
p1659
asg14
I0
sg15
(lp1660
sg17
g1657
sg18
I00
sg19
I00
sg20
I0
sg21
g1659
sba(isimile
Simile
p1661
(dp1662
g3
Nsg4
S'as hard as a sidewalk'
p1663
sg6
(lp1664
S'sidewalk'
p1665
asg9
g10
sg11
(lp1666
S'hard'
p1667
asg14
I0
sg15
(lp1668
sg17
g1665
sg18
I00
sg19
I00
sg20
I0
sg21
g1667
sba(isimile
Simile
p1669
(dp1670
g3
Nsg4
S'as hard as a storm'
p1671
sg6
(lp1672
S'storm'
p1673
asg9
g10
sg11
(lp1674
S'hard'
p1675
asg14
I0
sg15
(lp1676
sg17
g1673
sg18
I00
sg19
I00
sg20
I0
sg21
g1675
sba(isimile
Simile
p1677
(dp1678
g3
Nsg4
S'as hard as a roadside'
p1679
sg6
(lp1680
S'roadside'
p1681
asg9
g10
sg11
(lp1682
S'hard'
p1683
asg14
I0
sg15
(lp1684
sg17
g1681
sg18
I00
sg19
I00
sg20
I0
sg21
g1683
sba(isimile
Simile
p1685
(dp1686
g3
Nsg4
S'as hard as a shipyard'
p1687
sg6
(lp1688
S'shipyard'
p1689
asg9
g10
sg11
(lp1690
S'hard'
p1691
asg14
I0
sg15
(lp1692
sg17
g1689
sg18
I00
sg19
I00
sg20
I0
sg21
g1691
sba(isimile
Simile
p1693
(dp1694
g3
Nsg4
S'as hard as a potato'
p1695
sg6
(lp1696
S'potato'
p1697
asg9
g10
sg11
(lp1698
S'hard'
p1699
asg14
I0
sg15
(lp1700
sg17
g1697
sg18
I00
sg19
I00
sg20
I0
sg21
g1699
sba(isimile
Simile
p1701
(dp1702
g3
Nsg4
S'as hard as a chainsaw'
p1703
sg6
(lp1704
S'chainsaw'
p1705
asg9
g10
sg11
(lp1706
S'hard'
p1707
asg14
I0
sg15
(lp1708
sg17
g1705
sg18
I00
sg19
I00
sg20
I0
sg21
g1707
sba(isimile
Simile
p1709
(dp1710
g3
Nsg4
S'as hard as an icepick'
p1711
sg6
(lp1712
S'icepick'
p1713
asg9
g67
sg11
(lp1714
S'hard'
p1715
asg14
I0
sg15
(lp1716
sg17
g1713
sg18
I00
sg19
I00
sg20
I0
sg21
g1715
sba(isimile
Simile
p1717
(dp1718
g3
Nsg4
S'as hard as a cymbal'
p1719
sg6
(lp1720
S'cymbal'
p1721
asg9
g10
sg11
(lp1722
S'hard'
p1723
asg14
I0
sg15
(lp1724
sg17
g1721
sg18
I00
sg19
I00
sg20
I0
sg21
g1723
sba(isimile
Simile
p1725
(dp1726
g3
Nsg4
S'as hard as a dagger'
p1727
sg6
(lp1728
S'dagger'
p1729
asg9
g10
sg11
(lp1730
S'hard'
p1731
asg14
I0
sg15
(lp1732
sg17
g1729
sg18
I00
sg19
I00
sg20
I0
sg21
g1731
sba(isimile
Simile
p1733
(dp1734
g3
Nsg4
S'as hard as a boxer'
p1735
sg6
(lp1736
S'boxer'
p1737
asg9
g10
sg11
(lp1738
S'hard'
p1739
asg14
I0
sg15
(lp1740
sg17
g1737
sg18
I00
sg19
I00
sg20
I0
sg21
g1739
sba(isimile
Simile
p1741
(dp1742
g3
Nsg4
S'as stale as a daisy'
p1743
sg6
(lp1744
S'daisy'
p1745
asg9
g10
sg11
(lp1746
S'stale'
p1747
asg14
I0
sg15
(lp1748
sg17
g1745
sg18
I00
sg19
I00
sg20
I0
sg21
g1747
sba(isimile
Simile
p1749
(dp1750
g3
Nsg4
S'as stale as a rose'
p1751
sg6
(lp1752
S'rose'
p1753
asg9
g10
sg11
(lp1754
S'stale'
p1755
asg14
I0
sg15
(lp1756
sg17
g1753
sg18
I00
sg19
I00
sg20
I0
sg21
g1755
sba(isimile
Simile
p1757
(dp1758
g3
Nsg4
S'as stale as a queen'
p1759
sg6
(lp1760
S'queen'
p1761
asg9
g10
sg11
(lp1762
S'stale'
p1763
asg14
I0
sg15
(lp1764
sg17
g1761
sg18
I00
sg19
I00
sg20
I0
sg21
g1763
sba(isimile
Simile
p1765
(dp1766
g3
Nsg4
S'as stale as a lily'
p1767
sg6
(lp1768
S'lily'
p1769
asg9
g10
sg11
(lp1770
S'stale'
p1771
asg14
I0
sg15
(lp1772
sg17
g1769
sg18
I00
sg19
I00
sg20
I0
sg21
g1771
sba(isimile
Simile
p1773
(dp1774
g3
Nsg4
S'as stale as a beginner'
p1775
sg6
(lp1776
S'beginner'
p1777
asg9
g10
sg11
(lp1778
S'stale'
p1779
asg14
I0
sg15
(lp1780
sg17
g1777
sg18
I00
sg19
I00
sg20
I0
sg21
g1779
sba(isimile
Simile
p1781
(dp1782
g3
Nsg4
S'as stale as a baby'
p1783
sg6
(lp1784
S'baby'
p1785
asg9
g10
sg11
(lp1786
S'stale'
p1787
asg14
I0
sg15
(lp1788
sg17
g1785
sg18
I00
sg19
I00
sg20
I0
sg21
g1787
sba(isimile
Simile
p1789
(dp1790
g3
Nsg4
S'as stale as a flower'
p1791
sg6
(lp1792
S'flower'
p1793
asg9
g10
sg11
(lp1794
S'stale'
p1795
asg14
I0
sg15
(lp1796
sg17
g1793
sg18
I00
sg19
I00
sg20
I0
sg21
g1795
sba(isimile
Simile
p1797
(dp1798
g3
Nsg4
S'as stale as a flower_bud'
p1799
sg6
(lp1800
S'flower_bud'
p1801
asg9
g10
sg11
(lp1802
S'stale'
p1803
asg14
I0
sg15
(lp1804
sg17
g1801
sg18
I00
sg19
I00
sg20
I0
sg21
g1803
sba(isimile
Simile
p1805
(dp1806
g3
Nsg4
S'as stale as a lark'
p1807
sg6
(lp1808
S'lark'
p1809
asg9
g10
sg11
(lp1810
S'stale'
p1811
asg14
I0
sg15
(lp1812
sg17
g1809
sg18
I00
sg19
I00
sg20
I0
sg21
g1811
sba(isimile
Simile
p1813
(dp1814
g3
Nsg4
S'as stale as a berry'
p1815
sg6
(lp1816
S'berry'
p1817
asg9
g10
sg11
(lp1818
S'stale'
p1819
asg14
I0
sg15
(lp1820
sg17
g1817
sg18
I00
sg19
I00
sg20
I0
sg21
g1819
sba(isimile
Simile
p1821
(dp1822
g3
Nsg4
S'as stale as a breeze'
p1823
sg6
(lp1824
S'breeze'
p1825
asg9
g10
sg11
(lp1826
S'stale'
p1827
asg14
I0
sg15
(lp1828
sg17
g1825
sg18
I00
sg19
I00
sg20
I0
sg21
g1827
sba(isimile
Simile
p1829
(dp1830
g3
Nsg4
S'as stale as a sun'
p1831
sg6
(lp1832
S'sun'
p1833
asg9
g10
sg11
(lp1834
S'stale'
p1835
asg14
I0
sg15
(lp1836
sg17
g1833
sg18
I00
sg19
I00
sg20
I0
sg21
g1835
sba(isimile
Simile
p1837
(dp1838
g3
Nsg4
S'as stale as a shamrock'
p1839
sg6
(lp1840
S'shamrock'
p1841
asg9
g10
sg11
(lp1842
S'stale'
p1843
asg14
I0
sg15
(lp1844
sg17
g1841
sg18
I00
sg19
I00
sg20
I0
sg21
g1843
sba(isimile
Simile
p1845
(dp1846
g3
Nsg4
S'as stale as a shower'
p1847
sg6
(lp1848
S'shower'
p1849
asg9
g10
sg11
(lp1850
S'stale'
p1851
asg14
I0
sg15
(lp1852
sg17
g1849
sg18
I00
sg19
I00
sg20
I0
sg21
g1851
sba(isimile
Simile
p1853
(dp1854
g3
Nsg4
S'as stale as an ingenue'
p1855
sg6
(lp1856
S'ingenue'
p1857
asg9
g67
sg11
(lp1858
S'stale'
p1859
asg14
I0
sg15
(lp1860
sg17
g1857
sg18
I00
sg19
I00
sg20
I0
sg21
g1859
sba(isimile
Simile
p1861
(dp1862
g3
Nsg4
S'as stale as a rookie'
p1863
sg6
(lp1864
S'rookie'
p1865
asg9
g10
sg11
(lp1866
S'stale'
p1867
asg14
I0
sg15
(lp1868
sg17
g1865
sg18
I00
sg19
I00
sg20
I0
sg21
g1867
sba(isimile
Simile
p1869
(dp1870
g3
Nsg4
S'as stale as a herb_garden'
p1871
sg6
(lp1872
S'herb_garden'
p1873
asg9
g10
sg11
(lp1874
S'stale'
p1875
asg14
I0
sg15
(lp1876
sg17
g1873
sg18
I00
sg19
I00
sg20
I0
sg21
g1875
sba(isimile
Simile
p1877
(dp1878
g3
Nsg4
S'as stale as a lake'
p1879
sg6
(lp1880
S'lake'
p1881
asg9
g10
sg11
(lp1882
S'stale'
p1883
asg14
I0
sg15
(lp1884
sg17
g1881
sg18
I00
sg19
I00
sg20
I0
sg21
g1883
sba(isimile
Simile
p1885
(dp1886
g3
Nsg4
S'as stale as a snowflake'
p1887
sg6
(lp1888
S'snowflake'
p1889
asg9
g10
sg11
(lp1890
S'stale'
p1891
asg14
I0
sg15
(lp1892
sg17
g1889
sg18
I00
sg19
I00
sg20
I0
sg21
g1891
sba(isimile
Simile
p1893
(dp1894
g3
Nsg4
S'as stale as a geisha_girl'
p1895
sg6
(lp1896
S'geisha_girl'
p1897
asg9
g10
sg11
(lp1898
S'stale'
p1899
asg14
I0
sg15
(lp1900
sg17
g1897
sg18
I00
sg19
I00
sg20
I0
sg21
g1899
sba(isimile
Simile
p1901
(dp1902
g3
Nsg4
S'as stale as a princess'
p1903
sg6
(lp1904
S'princess'
p1905
asg9
g10
sg11
(lp1906
S'stale'
p1907
asg14
I0
sg15
(lp1908
sg17
g1905
sg18
I00
sg19
I00
sg20
I0
sg21
g1907
sba(isimile
Simile
p1909
(dp1910
g3
Nsg4
S'as stale as a primrose'
p1911
sg6
(lp1912
S'primrose'
p1913
asg9
g10
sg11
(lp1914
S'stale'
p1915
asg14
I0
sg15
(lp1916
sg17
g1913
sg18
I00
sg19
I00
sg20
I0
sg21
g1915
sba(isimile
Simile
p1917
(dp1918
g3
Nsg4
S'as stale as a citrus'
p1919
sg6
(lp1920
S'citrus'
p1921
asg9
g10
sg11
(lp1922
S'stale'
p1923
asg14
I0
sg15
(lp1924
sg17
g1921
sg18
I00
sg19
I00
sg20
I0
sg21
g1923
sba(isimile
Simile
p1925
(dp1926
g3
Nsg4
S'as stale as a peach'
p1927
sg6
(lp1928
S'peach'
p1929
asg9
g10
sg11
(lp1930
S'stale'
p1931
asg14
I0
sg15
(lp1932
sg17
g1929
sg18
I00
sg19
I00
sg20
I0
sg21
g1931
sba(isimile
Simile
p1933
(dp1934
g3
Nsg4
S'as stale as a rain'
p1935
sg6
(lp1936
S'rain'
p1937
asg9
g10
sg11
(lp1938
S'stale'
p1939
asg14
I0
sg15
(lp1940
sg17
g1937
sg18
I00
sg19
I00
sg20
I0
sg21
g1939
sba(isimile
Simile
p1941
(dp1942
g3
Nsg4
S'as stale as a glacier'
p1943
sg6
(lp1944
S'glacier'
p1945
asg9
g10
sg11
(lp1946
S'stale'
p1947
asg14
I0
sg15
(lp1948
sg17
g1945
sg18
I00
sg19
I00
sg20
I0
sg21
g1947
sba(isimile
Simile
p1949
(dp1950
g3
Nsg4
S'as stale as a lettuce'
p1951
sg6
(lp1952
S'lettuce'
p1953
asg9
g10
sg11
(lp1954
S'stale'
p1955
asg14
I0
sg15
(lp1956
sg17
g1953
sg18
I00
sg19
I00
sg20
I0
sg21
g1955
sba(isimile
Simile
p1957
(dp1958
g3
Nsg4
S'as stale as a dew'
p1959
sg6
(lp1960
S'dew'
p1961
asg9
g10
sg11
(lp1962
S'stale'
p1963
asg14
I0
sg15
(lp1964
sg17
g1961
sg18
I00
sg19
I00
sg20
I0
sg21
g1963
sba(isimile
Simile
p1965
(dp1966
g3
Nsg4
S'as stale as a spray'
p1967
sg6
(lp1968
S'spray'
p1969
asg9
g10
sg11
(lp1970
S'stale'
p1971
asg14
I0
sg15
(lp1972
sg17
g1969
sg18
I00
sg19
I00
sg20
I0
sg21
g1971
sba(isimile
Simile
p1973
(dp1974
g3
Nsg4
S'as stale as a cowslip'
p1975
sg6
(lp1976
S'cowslip'
p1977
asg9
g10
sg11
(lp1978
S'stale'
p1979
asg14
I0
sg15
(lp1980
sg17
g1977
sg18
I00
sg19
I00
sg20
I0
sg21
g1979
sba(isimile
Simile
p1981
(dp1982
g3
Nsg4
S'as stale as a mummy'
p1983
sg6
(lp1984
S'mummy'
p1985
asg9
g10
sg11
(lp1986
S'stale'
p1987
asg14
I0
sg15
(lp1988
sg17
g1985
sg18
I00
sg19
I00
sg20
I0
sg21
g1987
sba(isimile
Simile
p1989
(dp1990
g3
Nsg4
S'as stale as a trash_can'
p1991
sg6
(lp1992
S'trash_can'
p1993
asg9
g10
sg11
(lp1994
S'stale'
p1995
asg14
I0
sg15
(lp1996
sg17
g1993
sg18
I00
sg19
I00
sg20
I0
sg21
g1995
sba(isimile
Simile
p1997
(dp1998
g3
Nsg4
S'as stale as a maggot'
p1999
sg6
(lp2000
S'maggot'
p2001
asg9
g10
sg11
(lp2002
S'stale'
p2003
asg14
I0
sg15
(lp2004
sg17
g2001
sg18
I00
sg19
I00
sg20
I0
sg21
g2003
sba(isimile
Simile
p2005
(dp2006
g3
Nsg4
S'as solid as a ghost'
p2007
sg6
(lp2008
S'ghost'
p2009
asg9
g10
sg11
(lp2010
S'solid'
p2011
asg14
I0
sg15
(lp2012
sg17
g2009
sg18
I00
sg19
I00
sg20
I0
sg21
g2011
sba(isimile
Simile
p2013
(dp2014
g3
Nsg4
S'as solid as a drum'
p2015
sg6
(lp2016
S'drum'
p2017
asg9
g10
sg11
(lp2018
S'solid'
p2019
asg14
I0
sg15
(lp2020
sg17
g2017
sg18
I00
sg19
I00
sg20
I0
sg21
g2019
sba(isimile
Simile
p2021
(dp2022
g3
Nsg4
S'as solid as a shell'
p2023
sg6
(lp2024
S'shell'
p2025
asg9
g10
sg11
(lp2026
S'solid'
p2027
asg14
I0
sg15
(lp2028
sg17
g2025
sg18
I00
sg19
I00
sg20
I0
sg21
g2027
sba(isimile
Simile
p2029
(dp2030
g3
Nsg4
S'as solid as a scarecrow'
p2031
sg6
(lp2032
S'scarecrow'
p2033
asg9
g10
sg11
(lp2034
S'solid'
p2035
asg14
I0
sg15
(lp2036
sg17
g2033
sg18
I00
sg19
I00
sg20
I0
sg21
g2035
sba(isimile
Simile
p2037
(dp2038
g3
Nsg4
S'as solid as a cave'
p2039
sg6
(lp2040
S'cave'
p2041
asg9
g10
sg11
(lp2042
S'solid'
p2043
asg14
I0
sg15
(lp2044
sg17
g2041
sg18
I00
sg19
I00
sg20
I0
sg21
g2043
sba(isimile
Simile
p2045
(dp2046
g3
Nsg4
S'as solid as a clay_pipe'
p2047
sg6
(lp2048
S'clay_pipe'
p2049
asg9
g10
sg11
(lp2050
S'solid'
p2051
asg14
I0
sg15
(lp2052
sg17
g2049
sg18
I00
sg19
I00
sg20
I0
sg21
g2051
sba(isimile
Simile
p2053
(dp2054
g3
Nsg4
S'as solid as a beach_ball'
p2055
sg6
(lp2056
S'beach_ball'
p2057
asg9
g10
sg11
(lp2058
S'solid'
p2059
asg14
I0
sg15
(lp2060
sg17
g2057
sg18
I00
sg19
I00
sg20
I0
sg21
g2059
sba(isimile
Simile
p2061
(dp2062
g3
Nsg4
S'as solid as a gourd'
p2063
sg6
(lp2064
S'gourd'
p2065
asg9
g10
sg11
(lp2066
S'solid'
p2067
asg14
I0
sg15
(lp2068
sg17
g2065
sg18
I00
sg19
I00
sg20
I0
sg21
g2067
sba(isimile
Simile
p2069
(dp2070
g3
Nsg4
S"as solid as a jacko'lantern"
p2071
sg6
(lp2072
S"jacko'lantern"
p2073
asg9
g10
sg11
(lp2074
S'solid'
p2075
asg14
I0
sg15
(lp2076
sg17
g2073
sg18
I00
sg19
I00
sg20
I0
sg21
g2075
sba(isimile
Simile
p2077
(dp2078
g3
Nsg4
S'as solid as a bone'
p2079
sg6
(lp2080
S'bone'
p2081
asg9
g10
sg11
(lp2082
S'solid'
p2083
asg14
I0
sg15
(lp2084
sg17
g2081
sg18
I00
sg19
I00
sg20
I0
sg21
g2083
sba(isimile
Simile
p2085
(dp2086
g3
Nsg4
S'as solid as a reed'
p2087
sg6
(lp2088
S'reed'
p2089
asg9
g10
sg11
(lp2090
S'solid'
p2091
asg14
I0
sg15
(lp2092
sg17
g2089
sg18
I00
sg19
I00
sg20
I0
sg21
g2091
sba(isimile
Simile
p2093
(dp2094
g3
Nsg4
S'as solid as a bell'
p2095
sg6
(lp2096
S'bell'
p2097
asg9
g10
sg11
(lp2098
S'solid'
p2099
asg14
I0
sg15
(lp2100
sg17
g2097
sg18
I00
sg19
I00
sg20
I0
sg21
g2099
sba(isimile
Simile
p2101
(dp2102
g3
Nsg4
S'as solid as a hoax'
p2103
sg6
(lp2104
S'hoax'
p2105
asg9
g10
sg11
(lp2106
S'solid'
p2107
asg14
I0
sg15
(lp2108
sg17
g2105
sg18
I00
sg19
I00
sg20
I0
sg21
g2107
sba(isimile
Simile
p2109
(dp2110
g3
Nsg4
S'as solid as a church_bell'
p2111
sg6
(lp2112
S'church_bell'
p2113
asg9
g10
sg11
(lp2114
S'solid'
p2115
asg14
I0
sg15
(lp2116
sg17
g2113
sg18
I00
sg19
I00
sg20
I0
sg21
g2115
sba(isimile
Simile
p2117
(dp2118
g3
Nsg4
S'as solid as a coconut'
p2119
sg6
(lp2120
S'coconut'
p2121
asg9
g10
sg11
(lp2122
S'solid'
p2123
asg14
I0
sg15
(lp2124
sg17
g2121
sg18
I00
sg19
I00
sg20
I0
sg21
g2123
sba(isimile
Simile
p2125
(dp2126
g3
Nsg4
S'as solid as a tunnel'
p2127
sg6
(lp2128
S'tunnel'
p2129
asg9
g10
sg11
(lp2130
S'solid'
p2131
asg14
I0
sg15
(lp2132
sg17
g2129
sg18
I00
sg19
I00
sg20
I0
sg21
g2131
sba(isimile
Simile
p2133
(dp2134
g3
Nsg4
S'as solid as a dream'
p2135
sg6
(lp2136
S'dream'
p2137
asg9
g10
sg11
(lp2138
S'solid'
p2139
asg14
I0
sg15
(lp2140
sg17
g2137
sg18
I00
sg19
I00
sg20
I0
sg21
g2139
sba(isimile
Simile
p2141
(dp2142
g3
Nsg4
S'as solid as a jackolantern'
p2143
sg6
(lp2144
S'jackolantern'
p2145
asg9
g10
sg11
(lp2146
S'solid'
p2147
asg14
I0
sg15
(lp2148
sg17
g2145
sg18
I00
sg19
I00
sg20
I0
sg21
g2147
sba(isimile
Simile
p2149
(dp2150
g3
Nsg4
S'as solid as a drain'
p2151
sg6
(lp2152
S'drain'
p2153
asg9
g10
sg11
(lp2154
S'solid'
p2155
asg14
I0
sg15
(lp2156
sg17
g2153
sg18
I00
sg19
I00
sg20
I0
sg21
g2155
sba(isimile
Simile
p2157
(dp2158
g3
Nsg4
S'as incomplete as an encyclopedia'
p2159
sg6
(lp2160
S'encyclopedia'
p2161
asg9
g67
sg11
(lp2162
S'incomplete'
p2163
asg14
I0
sg15
(lp2164
sg17
g2161
sg18
I00
sg19
I00
sg20
I0
sg21
g2163
sba(isimile
Simile
p2165
(dp2166
g3
Nsg4
S'as incomplete as a core_dump'
p2167
sg6
(lp2168
S'core_dump'
p2169
asg9
g10
sg11
(lp2170
S'incomplete'
p2171
asg14
I0
sg15
(lp2172
sg17
g2169
sg18
I00
sg19
I00
sg20
I0
sg21
g2171
sba(isimile
Simile
p2173
(dp2174
g3
Nsg4
S'as incomplete as a reference_book'
p2175
sg6
(lp2176
S'reference_book'
p2177
asg9
g10
sg11
(lp2178
S'incomplete'
p2179
asg14
I0
sg15
(lp2180
sg17
g2177
sg18
I00
sg19
I00
sg20
I0
sg21
g2179
sba(isimile
Simile
p2181
(dp2182
g3
Nsg4
S'as incomplete as a blueprint'
p2183
sg6
(lp2184
S'blueprint'
p2185
asg9
g10
sg11
(lp2186
S'incomplete'
p2187
asg14
I0
sg15
(lp2188
sg17
g2185
sg18
I00
sg19
I00
sg20
I0
sg21
g2187
sba(isimile
Simile
p2189
(dp2190
g3
Nsg4
S'as incomplete as a treatise'
p2191
sg6
(lp2192
S'treatise'
p2193
asg9
g10
sg11
(lp2194
S'incomplete'
p2195
asg14
I0
sg15
(lp2196
sg17
g2193
sg18
I00
sg19
I00
sg20
I0
sg21
g2195
sba(isimile
Simile
p2197
(dp2198
g3
Nsg4
S'as crooked as a die'
p2199
sg6
(lp2200
S'die'
p2201
asg9
g10
sg11
(lp2202
S'crooked'
p2203
asg14
I0
sg15
(lp2204
sg17
g2201
sg18
I00
sg19
I00
sg20
I0
sg21
g2203
sba(isimile
Simile
p2205
(dp2206
g3
Nsg4
S'as crooked as a ruler'
p2207
sg6
(lp2208
S'ruler'
p2209
asg9
g10
sg11
(lp2210
S'crooked'
p2211
asg14
I0
sg15
(lp2212
sg17
g2209
sg18
I00
sg19
I00
sg20
I0
sg21
g2211
sba(isimile
Simile
p2213
(dp2214
g3
Nsg4
S'as crooked as an arrow'
p2215
sg6
(lp2216
S'arrow'
p2217
asg9
g67
sg11
(lp2218
S'crooked'
p2219
asg14
I0
sg15
(lp2220
sg17
g2217
sg18
I00
sg19
I00
sg20
I0
sg21
g2219
sba(isimile
Simile
p2221
(dp2222
g3
Nsg4
S'as crooked as an ironing_board'
p2223
sg6
(lp2224
S'ironing_board'
p2225
asg9
g67
sg11
(lp2226
S'crooked'
p2227
asg14
I0
sg15
(lp2228
sg17
g2225
sg18
I00
sg19
I00
sg20
I0
sg21
g2227
sba(isimile
Simile
p2229
(dp2230
g3
Nsg4
S'as crooked as a poker'
p2231
sg6
(lp2232
S'poker'
p2233
asg9
g10
sg11
(lp2234
S'crooked'
p2235
asg14
I0
sg15
(lp2236
sg17
g2233
sg18
I00
sg19
I00
sg20
I0
sg21
g2235
sba(isimile
Simile
p2237
(dp2238
g3
Nsg4
S'as crooked as a gun_barrel'
p2239
sg6
(lp2240
S'gun_barrel'
p2241
asg9
g10
sg11
(lp2242
S'crooked'
p2243
asg14
I0
sg15
(lp2244
sg17
g2241
sg18
I00
sg19
I00
sg20
I0
sg21
g2243
sba(isimile
Simile
p2245
(dp2246
g3
Nsg4
S'as crooked as a hem'
p2247
sg6
(lp2248
S'hem'
p2249
asg9
g10
sg11
(lp2250
S'crooked'
p2251
asg14
I0
sg15
(lp2252
sg17
g2249
sg18
I00
sg19
I00
sg20
I0
sg21
g2251
sba(isimile
Simile
p2253
(dp2254
g3
Nsg4
S'as crooked as a dart'
p2255
sg6
(lp2256
S'dart'
p2257
asg9
g10
sg11
(lp2258
S'crooked'
p2259
asg14
I0
sg15
(lp2260
sg17
g2257
sg18
I00
sg19
I00
sg20
I0
sg21
g2259
sba(isimile
Simile
p2261
(dp2262
g3
Nsg4
S'as crooked as a reed'
p2263
sg6
(lp2264
S'reed'
p2265
asg9
g10
sg11
(lp2266
S'crooked'
p2267
asg14
I0
sg15
(lp2268
sg17
g2265
sg18
I00
sg19
I00
sg20
I0
sg21
g2267
sba(isimile
Simile
p2269
(dp2270
g3
Nsg4
S'as crooked as a pole'
p2271
sg6
(lp2272
S'pole'
p2273
asg9
g10
sg11
(lp2274
S'crooked'
p2275
asg14
I0
sg15
(lp2276
sg17
g2273
sg18
I00
sg19
I00
sg20
I0
sg21
g2275
sba(isimile
Simile
p2277
(dp2278
g3
Nsg4
S'as crooked as a line'
p2279
sg6
(lp2280
S'line'
p2281
asg9
g10
sg11
(lp2282
S'crooked'
p2283
asg14
I0
sg15
(lp2284
sg17
g2281
sg18
I00
sg19
I00
sg20
I0
sg21
g2283
sba(isimile
Simile
p2285
(dp2286
g3
Nsg4
S'as crooked as a ramrod'
p2287
sg6
(lp2288
S'ramrod'
p2289
asg9
g10
sg11
(lp2290
S'crooked'
p2291
asg14
I0
sg15
(lp2292
sg17
g2289
sg18
I00
sg19
I00
sg20
I0
sg21
g2291
sba(isimile
Simile
p2293
(dp2294
g3
Nsg4
S'as crooked as a flagpole'
p2295
sg6
(lp2296
S'flagpole'
p2297
asg9
g10
sg11
(lp2298
S'crooked'
p2299
asg14
I0
sg15
(lp2300
sg17
g2297
sg18
I00
sg19
I00
sg20
I0
sg21
g2299
sba(isimile
Simile
p2301
(dp2302
g3
Nsg4
S'as crooked as a lance'
p2303
sg6
(lp2304
S'lance'
p2305
asg9
g10
sg11
(lp2306
S'crooked'
p2307
asg14
I0
sg15
(lp2308
sg17
g2305
sg18
I00
sg19
I00
sg20
I0
sg21
g2307
sba(isimile
Simile
p2309
(dp2310
g3
Nsg4
S'as crooked as a sunbeam'
p2311
sg6
(lp2312
S'sunbeam'
p2313
asg9
g10
sg11
(lp2314
S'crooked'
p2315
asg14
I0
sg15
(lp2316
sg17
g2313
sg18
I00
sg19
I00
sg20
I0
sg21
g2315
sba(isimile
Simile
p2317
(dp2318
g3
Nsg4
S'as crooked as a laser_beam'
p2319
sg6
(lp2320
S'laser_beam'
p2321
asg9
g10
sg11
(lp2322
S'crooked'
p2323
asg14
I0
sg15
(lp2324
sg17
g2321
sg18
I00
sg19
I00
sg20
I0
sg21
g2323
sba(isimile
Simile
p2325
(dp2326
g3
Nsg4
S'as crooked as a needle'
p2327
sg6
(lp2328
S'needle'
p2329
asg9
g10
sg11
(lp2330
S'crooked'
p2331
asg14
I0
sg15
(lp2332
sg17
g2329
sg18
I00
sg19
I00
sg20
I0
sg21
g2331
sba(isimile
Simile
p2333
(dp2334
g3
Nsg4
S'as crooked as a pencil'
p2335
sg6
(lp2336
S'pencil'
p2337
asg9
g10
sg11
(lp2338
S'crooked'
p2339
asg14
I0
sg15
(lp2340
sg17
g2337
sg18
I00
sg19
I00
sg20
I0
sg21
g2339
sba(isimile
Simile
p2341
(dp2342
g3
Nsg4
S'as crooked as a nail'
p2343
sg6
(lp2344
S'nail'
p2345
asg9
g10
sg11
(lp2346
S'crooked'
p2347
asg14
I0
sg15
(lp2348
sg17
g2345
sg18
I00
sg19
I00
sg20
I0
sg21
g2347
sba(isimile
Simile
p2349
(dp2350
g3
Nsg4
S'as crooked as a bowstring'
p2351
sg6
(lp2352
S'bowstring'
p2353
asg9
g10
sg11
(lp2354
S'crooked'
p2355
asg14
I0
sg15
(lp2356
sg17
g2353
sg18
I00
sg19
I00
sg20
I0
sg21
g2355
sba(isimile
Simile
p2357
(dp2358
g3
Nsg4
S'as crooked as a razor'
p2359
sg6
(lp2360
S'razor'
p2361
asg9
g10
sg11
(lp2362
S'crooked'
p2363
asg14
I0
sg15
(lp2364
sg17
g2361
sg18
I00
sg19
I00
sg20
I0
sg21
g2363
sba(isimile
Simile
p2365
(dp2366
g3
Nsg4
S'as crooked as a pin'
p2367
sg6
(lp2368
S'pin'
p2369
asg9
g10
sg11
(lp2370
S'crooked'
p2371
asg14
I0
sg15
(lp2372
sg17
g2369
sg18
I00
sg19
I00
sg20
I0
sg21
g2371
sba(isimile
Simile
p2373
(dp2374
g3
Nsg4
S'as crooked as a spear'
p2375
sg6
(lp2376
S'spear'
p2377
asg9
g10
sg11
(lp2378
S'crooked'
p2379
asg14
I0
sg15
(lp2380
sg17
g2377
sg18
I00
sg19
I00
sg20
I0
sg21
g2379
sba(isimile
Simile
p2381
(dp2382
g3
Nsg4
S'as crooked as a chopstick'
p2383
sg6
(lp2384
S'chopstick'
p2385
asg9
g10
sg11
(lp2386
S'crooked'
p2387
asg14
I0
sg15
(lp2388
sg17
g2385
sg18
I00
sg19
I00
sg20
I0
sg21
g2387
sba(isimile
Simile
p2389
(dp2390
g3
Nsg4
S'as crooked as a sword'
p2391
sg6
(lp2392
S'sword'
p2393
asg9
g10
sg11
(lp2394
S'crooked'
p2395
asg14
I0
sg15
(lp2396
sg17
g2393
sg18
I00
sg19
I00
sg20
I0
sg21
g2395
sba(isimile
Simile
p2397
(dp2398
g3
Nsg4
S'as crooked as a board'
p2399
sg6
(lp2400
S'board'
p2401
asg9
g10
sg11
(lp2402
S'crooked'
p2403
asg14
I0
sg15
(lp2404
sg17
g2401
sg18
I00
sg19
I00
sg20
I0
sg21
g2403
sba(isimile
Simile
p2405
(dp2406
g3
Nsg4
S'as crooked as a post'
p2407
sg6
(lp2408
S'post'
p2409
asg9
g10
sg11
(lp2410
S'crooked'
p2411
asg14
I0
sg15
(lp2412
sg17
g2409
sg18
I00
sg19
I00
sg20
I0
sg21
g2411
sba(isimile
Simile
p2413
(dp2414
g3
Nsg4
S'as crooked as a rake'
p2415
sg6
(lp2416
S'rake'
p2417
asg9
g10
sg11
(lp2418
S'crooked'
p2419
asg14
I0
sg15
(lp2420
sg17
g2417
sg18
I00
sg19
I00
sg20
I0
sg21
g2419
sba(isimile
Simile
p2421
(dp2422
g3
Nsg4
S'as crooked as a rail'
p2423
sg6
(lp2424
S'rail'
p2425
asg9
g10
sg11
(lp2426
S'crooked'
p2427
asg14
I0
sg15
(lp2428
sg17
g2425
sg18
I00
sg19
I00
sg20
I0
sg21
g2427
sba(isimile
Simile
p2429
(dp2430
g3
Nsg4
S'as crooked as a broom_handle'
p2431
sg6
(lp2432
S'broom_handle'
p2433
asg9
g10
sg11
(lp2434
S'crooked'
p2435
asg14
I0
sg15
(lp2436
sg17
g2433
sg18
I00
sg19
I00
sg20
I0
sg21
g2435
sba(isimile
Simile
p2437
(dp2438
g3
Nsg4
S'as crooked as a lamppost'
p2439
sg6
(lp2440
S'lamppost'
p2441
asg9
g10
sg11
(lp2442
S'crooked'
p2443
asg14
I0
sg15
(lp2444
sg17
g2441
sg18
I00
sg19
I00
sg20
I0
sg21
g2443
sba(isimile
Simile
p2445
(dp2446
g3
Nsg4
S'as crooked as a plank'
p2447
sg6
(lp2448
S'plank'
p2449
asg9
g10
sg11
(lp2450
S'crooked'
p2451
asg14
I0
sg15
(lp2452
sg17
g2449
sg18
I00
sg19
I00
sg20
I0
sg21
g2451
sba(isimile
Simile
p2453
(dp2454
g3
Nsg4
S'as crooked as a rifle_shot'
p2455
sg6
(lp2456
S'rifle_shot'
p2457
asg9
g10
sg11
(lp2458
S'crooked'
p2459
asg14
I0
sg15
(lp2460
sg17
g2457
sg18
I00
sg19
I00
sg20
I0
sg21
g2459
sba(isimile
Simile
p2461
(dp2462
g3
Nsg4
S'as crooked as a chimney'
p2463
sg6
(lp2464
S'chimney'
p2465
asg9
g10
sg11
(lp2466
S'crooked'
p2467
asg14
I0
sg15
(lp2468
sg17
g2465
sg18
I00
sg19
I00
sg20
I0
sg21
g2467
sba(isimile
Simile
p2469
(dp2470
g3
Nsg4
S'as crooked as an oak'
p2471
sg6
(lp2472
S'oak'
p2473
asg9
g67
sg11
(lp2474
S'crooked'
p2475
asg14
I0
sg15
(lp2476
sg17
g2473
sg18
I00
sg19
I00
sg20
I0
sg21
g2475
sba(isimile
Simile
p2477
(dp2478
g3
Nsg4
S'as crooked as a crowbar'
p2479
sg6
(lp2480
S'crowbar'
p2481
asg9
g10
sg11
(lp2482
S'crooked'
p2483
asg14
I0
sg15
(lp2484
sg17
g2481
sg18
I00
sg19
I00
sg20
I0
sg21
g2483
sba(isimile
Simile
p2485
(dp2486
g3
Nsg4
S'as crooked as a rail_fence'
p2487
sg6
(lp2488
S'rail_fence'
p2489
asg9
g10
sg11
(lp2490
S'crooked'
p2491
asg14
I0
sg15
(lp2492
sg17
g2489
sg18
I00
sg19
I00
sg20
I0
sg21
g2491
sba(isimile
Simile
p2493
(dp2494
g3
Nsg4
S'as crooked as a bullet'
p2495
sg6
(lp2496
S'bullet'
p2497
asg9
g10
sg11
(lp2498
S'crooked'
p2499
asg14
I0
sg15
(lp2500
sg17
g2497
sg18
I00
sg19
I00
sg20
I0
sg21
g2499
sba(isimile
Simile
p2501
(dp2502
g3
Nsg4
S'as crooked as a bayonet'
p2503
sg6
(lp2504
S'bayonet'
p2505
asg9
g10
sg11
(lp2506
S'crooked'
p2507
asg14
I0
sg15
(lp2508
sg17
g2505
sg18
I00
sg19
I00
sg20
I0
sg21
g2507
sba(isimile
Simile
p2509
(dp2510
g3
Nsg4
S'as crooked as an expressway'
p2511
sg6
(lp2512
S'expressway'
p2513
asg9
g67
sg11
(lp2514
S'crooked'
p2515
asg14
I0
sg15
(lp2516
sg17
g2513
sg18
I00
sg19
I00
sg20
I0
sg21
g2515
sba(isimile
Simile
p2517
(dp2518
g3
Nsg4
S'as crooked as a telephone_pole'
p2519
sg6
(lp2520
S'telephone_pole'
p2521
asg9
g10
sg11
(lp2522
S'crooked'
p2523
asg14
I0
sg15
(lp2524
sg17
g2521
sg18
I00
sg19
I00
sg20
I0
sg21
g2523
sba(isimile
Simile
p2525
(dp2526
g3
Nsg4
S'as crooked as a telegraph_pole'
p2527
sg6
(lp2528
S'telegraph_pole'
p2529
asg9
g10
sg11
(lp2530
S'crooked'
p2531
asg14
I0
sg15
(lp2532
sg17
g2529
sg18
I00
sg19
I00
sg20
I0
sg21
g2531
sba(isimile
Simile
p2533
(dp2534
g3
Nsg4
S'as crooked as a corkscrew'
p2535
sg6
(lp2536
S'corkscrew'
p2537
asg9
g10
sg11
(lp2538
S'crooked'
p2539
asg14
S'4170'
p2540
sg15
(lp2541
sg17
g2537
sg18
I00
sg19
I00
sg20
g466
sg21
g2539
sba(isimile
Simile
p2542
(dp2543
g3
Nsg4
S'as crooked as a boomerang'
p2544
sg6
(lp2545
S'boomerang'
p2546
asg9
g10
sg11
(lp2547
S'crooked'
p2548
asg14
S'325'
p2549
sg15
(lp2550
sg17
g2546
sg18
I00
sg19
I00
sg20
g466
sg21
g2548
sba(isimile
Simile
p2551
(dp2552
g3
Nsg4
S'as crooked as a rainbow'
p2553
sg6
(lp2554
S'rainbow'
p2555
asg9
g10
sg11
(lp2556
S'crooked'
p2557
asg14
I0
sg15
(lp2558
sg17
g2555
sg18
I00
sg19
I00
sg20
I0
sg21
g2557
sba(isimile
Simile
p2559
(dp2560
g3
Nsg4
S'as crooked as a circle'
p2561
sg6
(lp2562
S'circle'
p2563
asg9
g10
sg11
(lp2564
S'crooked'
p2565
asg14
I0
sg15
(lp2566
sg17
g2563
sg18
I00
sg19
I00
sg20
I0
sg21
g2565
sba(isimile
Simile
p2567
(dp2568
g3
Nsg4
S'as crooked as a tire'
p2569
sg6
(lp2570
S'tire'
p2571
asg9
g10
sg11
(lp2572
S'crooked'
p2573
asg14
I0
sg15
(lp2574
sg17
g2571
sg18
I00
sg19
I00
sg20
I0
sg21
g2573
sba(isimile
Simile
p2575
(dp2576
g3
Nsg4
S'as crooked as a hoop'
p2577
sg6
(lp2578
S'hoop'
p2579
asg9
g10
sg11
(lp2580
S'crooked'
p2581
asg14
I0
sg15
(lp2582
sg17
g2579
sg18
I00
sg19
I00
sg20
I0
sg21
g2581
sba(isimile
Simile
p2583
(dp2584
g3
Nsg4
S'as crooked as a phone_cord'
p2585
sg6
(lp2586
S'phone_cord'
p2587
asg9
g10
sg11
(lp2588
S'crooked'
p2589
asg14
I0
sg15
(lp2590
sg17
g2587
sg18
I00
sg19
I00
sg20
I0
sg21
g2589
sba(isimile
Simile
p2591
(dp2592
g3
Nsg4
S'as crooked as a sidewinder'
p2593
sg6
(lp2594
S'sidewinder'
p2595
asg9
g10
sg11
(lp2596
S'crooked'
p2597
asg14
I0
sg15
(lp2598
sg17
g2595
sg18
I00
sg19
I00
sg20
I0
sg21
g2597
sba(isimile
Simile
p2599
(dp2600
g3
Nsg4
S'as crooked as a mobius_strip'
p2601
sg6
(lp2602
S'mobius_strip'
p2603
asg9
g10
sg11
(lp2604
S'crooked'
p2605
asg14
I0
sg15
(lp2606
sg17
g2603
sg18
I00
sg19
I00
sg20
I0
sg21
g2605
sba(isimile
Simile
p2607
(dp2608
g3
Nsg4
S'as crooked as a paper_clip'
p2609
sg6
(lp2610
S'paper_clip'
p2611
asg9
g10
sg11
(lp2612
S'crooked'
p2613
asg14
I0
sg15
(lp2614
sg17
g2611
sg18
I00
sg19
I00
sg20
I0
sg21
g2613
sba(isimile
Simile
p2615
(dp2616
g3
Nsg4
S'as crooked as a basketball_hoop'
p2617
sg6
(lp2618
S'basketball_hoop'
p2619
asg9
g10
sg11
(lp2620
S'crooked'
p2621
asg14
I0
sg15
(lp2622
sg17
g2619
sg18
I00
sg19
I00
sg20
I0
sg21
g2621
sba(isimile
Simile
p2623
(dp2624
g3
Nsg4
S'as straight as a corkscrew'
p2625
sg6
(lp2626
S'corkscrew'
p2627
asg9
g10
sg11
(lp2628
S'straight'
p2629
asg14
S'5280'
p2630
sg15
(lp2631
sg17
g2627
sg18
I00
sg19
I00
sg20
S'2130'
p2632
sg21
g2629
sba(isimile
Simile
p2633
(dp2634
g3
Nsg4
S'as straight as a politician'
p2635
sg6
(lp2636
S'politician'
p2637
asg9
g10
sg11
(lp2638
S'straight'
p2639
asg14
I0
sg15
(lp2640
sg17
g2637
sg18
I00
sg19
I00
sg20
I0
sg21
g2639
sba(isimile
Simile
p2641
(dp2642
g3
Nsg4
S'as straight as a snake'
p2643
sg6
(lp2644
S'snake'
p2645
asg9
g10
sg11
(lp2646
S'straight'
p2647
asg14
I0
sg15
(lp2648
sg17
g2645
sg18
I00
sg19
I00
sg20
I0
sg21
g2647
sba(isimile
Simile
p2649
(dp2650
g3
Nsg4
S'as straight as a question_mark'
p2651
sg6
(lp2652
S'question_mark'
p2653
asg9
g10
sg11
(lp2654
S'straight'
p2655
asg14
I0
sg15
(lp2656
sg17
g2653
sg18
I00
sg19
I00
sg20
I0
sg21
g2655
sba(isimile
Simile
p2657
(dp2658
g3
Nsg4
S'as straight as a boa_constrictor'
p2659
sg6
(lp2660
S'boa_constrictor'
p2661
asg9
g10
sg11
(lp2662
S'straight'
p2663
asg14
I0
sg15
(lp2664
sg17
g2661
sg18
I00
sg19
I00
sg20
I0
sg21
g2663
sba(isimile
Simile
p2665
(dp2666
g3
Nsg4
S'as straight as a pretzel'
p2667
sg6
(lp2668
S'pretzel'
p2669
asg9
g10
sg11
(lp2670
S'straight'
p2671
asg14
I0
sg15
(lp2672
sg17
g2669
sg18
I00
sg19
I00
sg20
I0
sg21
g2671
sba(isimile
Simile
p2673
(dp2674
g3
Nsg4
S'as straight as a lawyer'
p2675
sg6
(lp2676
S'lawyer'
p2677
asg9
g10
sg11
(lp2678
S'straight'
p2679
asg14
I0
sg15
(lp2680
sg17
g2677
sg18
I00
sg19
I00
sg20
I0
sg21
g2679
sba(isimile
Simile
p2681
(dp2682
g3
Nsg4
S'as straight as a boomerang'
p2683
sg6
(lp2684
S'boomerang'
p2685
asg9
g10
sg11
(lp2686
S'straight'
p2687
asg14
S'3990'
p2688
sg15
(lp2689
sg17
g2685
sg18
I00
sg19
I00
sg20
S'1480'
p2690
sg21
g2687
sba(isimile
Simile
p2691
(dp2692
g3
Nsg4
S'as straight as a rattlesnake'
p2693
sg6
(lp2694
S'rattlesnake'
p2695
asg9
g10
sg11
(lp2696
S'straight'
p2697
asg14
I0
sg15
(lp2698
sg17
g2695
sg18
I00
sg19
I00
sg20
I0
sg21
g2697
sba(isimile
Simile
p2699
(dp2700
g3
Nsg4
S'as straight as a water_moccasin'
p2701
sg6
(lp2702
S'water_moccasin'
p2703
asg9
g10
sg11
(lp2704
S'straight'
p2705
asg14
I0
sg15
(lp2706
sg17
g2703
sg18
I00
sg19
I00
sg20
I0
sg21
g2705
sba(isimile
Simile
p2707
(dp2708
g3
Nsg4
S'as straight as a hunchback'
p2709
sg6
(lp2710
S'hunchback'
p2711
asg9
g10
sg11
(lp2712
S'straight'
p2713
asg14
I0
sg15
(lp2714
sg17
g2711
sg18
I00
sg19
I00
sg20
I0
sg21
g2713
sba(isimile
Simile
p2715
(dp2716
g3
Nsg4
S'as straight as a counterfeiter'
p2717
sg6
(lp2718
S'counterfeiter'
p2719
asg9
g10
sg11
(lp2720
S'straight'
p2721
asg14
I0
sg15
(lp2722
sg17
g2719
sg18
I00
sg19
I00
sg20
I0
sg21
g2721
sba(isimile
Simile
p2723
(dp2724
g3
Nsg4
S'as straight as a quack'
p2725
sg6
(lp2726
S'quack'
p2727
asg9
g10
sg11
(lp2728
S'straight'
p2729
asg14
I0
sg15
(lp2730
sg17
g2727
sg18
I00
sg19
I00
sg20
I0
sg21
g2729
sba(isimile
Simile
p2731
(dp2732
g3
Nsg4
S'as straight as a coil_spring'
p2733
sg6
(lp2734
S'coil_spring'
p2735
asg9
g10
sg11
(lp2736
S'straight'
p2737
asg14
I0
sg15
(lp2738
sg17
g2735
sg18
I00
sg19
I00
sg20
I0
sg21
g2737
sba(isimile
Simile
p2739
(dp2740
g3
Nsg4
S'as complex as a child'
p2741
sg6
(lp2742
S'child'
p2743
asg9
g10
sg11
(lp2744
S'complex'
p2745
asg14
I0
sg15
(lp2746
sg17
g2743
sg18
I00
sg19
I00
sg20
I0
sg21
g2745
sba(isimile
Simile
p2747
(dp2748
g3
Nsg4
S'as complex as a rock'
p2749
sg6
(lp2750
S'rock'
p2751
asg9
g10
sg11
(lp2752
S'complex'
p2753
asg14
I0
sg15
(lp2754
sg17
g2751
sg18
I00
sg19
I00
sg20
I0
sg21
g2753
sba(isimile
Simile
p2755
(dp2756
g3
Nsg4
S'as complex as a sunbeam'
p2757
sg6
(lp2758
S'sunbeam'
p2759
asg9
g10
sg11
(lp2760
S'complex'
p2761
asg14
I0
sg15
(lp2762
sg17
g2759
sg18
I00
sg19
I00
sg20
I0
sg21
g2761
sba(isimile
Simile
p2763
(dp2764
g3
Nsg4
S'as clean as a pig'
p2765
sg6
(lp2766
S'pig'
p2767
asg9
g10
sg11
(lp2768
S'clean'
p2769
asg14
I0
sg15
(lp2770
sg17
g2767
sg18
I00
sg19
I00
sg20
I0
sg21
g2769
sba(isimile
Simile
p2771
(dp2772
g3
Nsg4
S'as clean as a toilet_seat'
p2773
sg6
(lp2774
S'toilet_seat'
p2775
asg9
g10
sg11
(lp2776
S'clean'
p2777
asg14
I0
sg15
(lp2778
sg17
g2775
sg18
I00
sg19
I00
sg20
I0
sg21
g2777
sba(isimile
Simile
p2779
(dp2780
g3
Nsg4
S'as clean as a street_fighter'
p2781
sg6
(lp2782
S'street_fighter'
p2783
asg9
g10
sg11
(lp2784
S'clean'
p2785
asg14
I0
sg15
(lp2786
sg17
g2783
sg18
I00
sg19
I00
sg20
I0
sg21
g2785
sba(isimile
Simile
p2787
(dp2788
g3
Nsg4
S'as clean as a ditch_digger'
p2789
sg6
(lp2790
S'ditch_digger'
p2791
asg9
g10
sg11
(lp2792
S'clean'
p2793
asg14
I0
sg15
(lp2794
sg17
g2791
sg18
I00
sg19
I00
sg20
I0
sg21
g2793
sba(isimile
Simile
p2795
(dp2796
g3
Nsg4
S'as clean as a coal_miner'
p2797
sg6
(lp2798
S'coal_miner'
p2799
asg9
g10
sg11
(lp2800
S'clean'
p2801
asg14
I0
sg15
(lp2802
sg17
g2799
sg18
I00
sg19
I00
sg20
I0
sg21
g2801
sba(isimile
Simile
p2803
(dp2804
g3
Nsg4
S'as clean as a hog'
p2805
sg6
(lp2806
S'hog'
p2807
asg9
g10
sg11
(lp2808
S'clean'
p2809
asg14
I0
sg15
(lp2810
sg17
g2807
sg18
I00
sg19
I00
sg20
I0
sg21
g2809
sba(isimile
Simile
p2811
(dp2812
g3
Nsg4
S'as clean as a dump'
p2813
sg6
(lp2814
S'dump'
p2815
asg9
g10
sg11
(lp2816
S'clean'
p2817
asg14
I0
sg15
(lp2818
sg17
g2815
sg18
I00
sg19
I00
sg20
I0
sg21
g2817
sba(isimile
Simile
p2819
(dp2820
g3
Nsg4
S'as clean as a warthog'
p2821
sg6
(lp2822
S'warthog'
p2823
asg9
g10
sg11
(lp2824
S'clean'
p2825
asg14
I0
sg15
(lp2826
sg17
g2823
sg18
I00
sg19
I00
sg20
I0
sg21
g2825
sba(isimile
Simile
p2827
(dp2828
g3
Nsg4
S'as clean as a sewer'
p2829
sg6
(lp2830
S'sewer'
p2831
asg9
g10
sg11
(lp2832
S'clean'
p2833
asg14
I0
sg15
(lp2834
sg17
g2831
sg18
I00
sg19
I00
sg20
I0
sg21
g2833
sba(isimile
Simile
p2835
(dp2836
g3
Nsg4
S'as clean as a stripper'
p2837
sg6
(lp2838
S'stripper'
p2839
asg9
g10
sg11
(lp2840
S'clean'
p2841
asg14
I0
sg15
(lp2842
sg17
g2839
sg18
I00
sg19
I00
sg20
I0
sg21
g2841
sba(isimile
Simile
p2843
(dp2844
g3
Nsg4
S'as clean as a stable'
p2845
sg6
(lp2846
S'stable'
p2847
asg9
g10
sg11
(lp2848
S'clean'
p2849
asg14
I0
sg15
(lp2850
sg17
g2847
sg18
I00
sg19
I00
sg20
I0
sg21
g2849
sba(isimile
Simile
p2851
(dp2852
g3
Nsg4
S'as clean as a prostitute'
p2853
sg6
(lp2854
S'prostitute'
p2855
asg9
g10
sg11
(lp2856
S'clean'
p2857
asg14
I0
sg15
(lp2858
sg17
g2855
sg18
I00
sg19
I00
sg20
I0
sg21
g2857
sba(isimile
Simile
p2859
(dp2860
g3
Nsg4
S'as clean as a tractor_trailer'
p2861
sg6
(lp2862
S'tractor_trailer'
p2863
asg9
g10
sg11
(lp2864
S'clean'
p2865
asg14
I0
sg15
(lp2866
sg17
g2863
sg18
I00
sg19
I00
sg20
I0
sg21
g2865
sba(isimile
Simile
p2867
(dp2868
g3
Nsg4
S'as clean as a tinker'
p2869
sg6
(lp2870
S'tinker'
p2871
asg9
g10
sg11
(lp2872
S'clean'
p2873
asg14
I0
sg15
(lp2874
sg17
g2871
sg18
I00
sg19
I00
sg20
I0
sg21
g2873
sba(isimile
Simile
p2875
(dp2876
g3
Nsg4
S'as clean as a greaser'
p2877
sg6
(lp2878
S'greaser'
p2879
asg9
g10
sg11
(lp2880
S'clean'
p2881
asg14
I0
sg15
(lp2882
sg17
g2879
sg18
I00
sg19
I00
sg20
I0
sg21
g2881
sba(isimile
Simile
p2883
(dp2884
g3
Nsg4
S'as clean as a sewer_rat'
p2885
sg6
(lp2886
S'sewer_rat'
p2887
asg9
g10
sg11
(lp2888
S'clean'
p2889
asg14
I0
sg15
(lp2890
sg17
g2887
sg18
I00
sg19
I00
sg20
I0
sg21
g2889
sba(isimile
Simile
p2891
(dp2892
g3
Nsg4
S'as clean as a pigsty'
p2893
sg6
(lp2894
S'pigsty'
p2895
asg9
g10
sg11
(lp2896
S'clean'
p2897
asg14
I0
sg15
(lp2898
sg17
g2895
sg18
I00
sg19
I00
sg20
I0
sg21
g2897
sba(isimile
Simile
p2899
(dp2900
g3
Nsg4
S'as clean as a swine'
p2901
sg6
(lp2902
S'swine'
p2903
asg9
g10
sg11
(lp2904
S'clean'
p2905
asg14
I0
sg15
(lp2906
sg17
g2903
sg18
I00
sg19
I00
sg20
I0
sg21
g2905
sba(isimile
Simile
p2907
(dp2908
g3
Nsg4
S'as clean as a gargoyle'
p2909
sg6
(lp2910
S'gargoyle'
p2911
asg9
g10
sg11
(lp2912
S'clean'
p2913
asg14
I0
sg15
(lp2914
sg17
g2911
sg18
I00
sg19
I00
sg20
I0
sg21
g2913
sba(isimile
Simile
p2915
(dp2916
g3
Nsg4
S'as clean as a pigpen'
p2917
sg6
(lp2918
S'pigpen'
p2919
asg9
g10
sg11
(lp2920
S'clean'
p2921
asg14
I0
sg15
(lp2922
sg17
g2919
sg18
I00
sg19
I00
sg20
I0
sg21
g2921
sba(isimile
Simile
p2923
(dp2924
g3
Nsg4
S'as clean as a clock'
p2925
sg6
(lp2926
S'clock'
p2927
asg9
g10
sg11
(lp2928
S'clean'
p2929
asg14
I0
sg15
(lp2930
sg17
g2927
sg18
I00
sg19
I00
sg20
I0
sg21
g2929
sba(isimile
Simile
p2931
(dp2932
g3
Nsg4
S'as permanent as a mayfly'
p2933
sg6
(lp2934
S'mayfly'
p2935
asg9
g10
sg11
(lp2936
S'permanent'
p2937
asg14
I0
sg15
(lp2938
sg17
g2935
sg18
I00
sg19
I00
sg20
I0
sg21
g2937
sba(isimile
Simile
p2939
(dp2940
g3
Nsg4
S'as permanent as a cloud'
p2941
sg6
(lp2942
S'cloud'
p2943
asg9
g10
sg11
(lp2944
S'permanent'
p2945
asg14
I0
sg15
(lp2946
sg17
g2943
sg18
I00
sg19
I00
sg20
I0
sg21
g2945
sba(isimile
Simile
p2947
(dp2948
g3
Nsg4
S'as permanent as a shooting_star'
p2949
sg6
(lp2950
S'shooting_star'
p2951
asg9
g10
sg11
(lp2952
S'permanent'
p2953
asg14
I0
sg15
(lp2954
sg17
g2951
sg18
I00
sg19
I00
sg20
I0
sg21
g2953
sba(isimile
Simile
p2955
(dp2956
g3
Nsg4
S'as permanent as a mandala'
p2957
sg6
(lp2958
S'mandala'
p2959
asg9
g10
sg11
(lp2960
S'permanent'
p2961
asg14
I0
sg15
(lp2962
sg17
g2959
sg18
I00
sg19
I00
sg20
I0
sg21
g2961
sba(isimile
Simile
p2963
(dp2964
g3
Nsg4
S'as permanent as a sunset'
p2965
sg6
(lp2966
S'sunset'
p2967
asg9
g10
sg11
(lp2968
S'permanent'
p2969
asg14
I0
sg15
(lp2970
sg17
g2967
sg18
I00
sg19
I00
sg20
I0
sg21
g2969
sba(isimile
Simile
p2971
(dp2972
g3
Nsg4
S'as heavy as a feather'
p2973
sg6
(lp2974
S'feather'
p2975
asg9
g10
sg11
(lp2976
S'heavy'
p2977
asg14
S'21200'
p2978
sg15
(lp2979
sg17
g2975
sg18
I00
sg19
I00
sg20
S'19300'
p2980
sg21
g2977
sba(isimile
Simile
p2981
(dp2982
g3
Nsg4
S'as heavy as a cobweb'
p2983
sg6
(lp2984
S'cobweb'
p2985
asg9
g10
sg11
(lp2986
S'heavy'
p2987
asg14
I0
sg15
(lp2988
sg17
g2985
sg18
I00
sg19
I00
sg20
I0
sg21
g2987
sba(isimile
Simile
p2989
(dp2990
g3
Nsg4
S'as heavy as a breeze'
p2991
sg6
(lp2992
S'breeze'
p2993
asg9
g10
sg11
(lp2994
S'heavy'
p2995
asg14
I0
sg15
(lp2996
sg17
g2993
sg18
I00
sg19
I00
sg20
I0
sg21
g2995
sba(isimile
Simile
p2997
(dp2998
g3
Nsg4
S'as heavy as a butterfly'
p2999
sg6
(lp3000
S'butterfly'
p3001
asg9
g10
sg11
(lp3002
S'heavy'
p3003
asg14
I0
sg15
(lp3004
sg17
g3001
sg18
I00
sg19
I00
sg20
I0
sg21
g3003
sba(isimile
Simile
p3005
(dp3006
g3
Nsg4
S'as heavy as a sparrow'
p3007
sg6
(lp3008
S'sparrow'
p3009
asg9
g10
sg11
(lp3010
S'heavy'
p3011
asg14
I0
sg15
(lp3012
sg17
g3009
sg18
I00
sg19
I00
sg20
I0
sg21
g3011
sba(isimile
Simile
p3013
(dp3014
g3
Nsg4
S'as heavy as a cloud'
p3015
sg6
(lp3016
S'cloud'
p3017
asg9
g10
sg11
(lp3018
S'heavy'
p3019
asg14
I0
sg15
(lp3020
sg17
g3017
sg18
I00
sg19
I00
sg20
I0
sg21
g3019
sba(isimile
Simile
p3021
(dp3022
g3
Nsg4
S'as heavy as a marshmallow'
p3023
sg6
(lp3024
S'marshmallow'
p3025
asg9
g10
sg11
(lp3026
S'heavy'
p3027
asg14
I0
sg15
(lp3028
sg17
g3025
sg18
I00
sg19
I00
sg20
I0
sg21
g3027
sba(isimile
Simile
p3029
(dp3030
g3
Nsg4
S'as heavy as a dove'
p3031
sg6
(lp3032
S'dove'
p3033
asg9
g10
sg11
(lp3034
S'heavy'
p3035
asg14
I0
sg15
(lp3036
sg17
g3033
sg18
I00
sg19
I00
sg20
I0
sg21
g3035
sba(isimile
Simile
p3037
(dp3038
g3
Nsg4
S'as heavy as a salad'
p3039
sg6
(lp3040
S'salad'
p3041
asg9
g10
sg11
(lp3042
S'heavy'
p3043
asg14
I0
sg15
(lp3044
sg17
g3041
sg18
I00
sg19
I00
sg20
I0
sg21
g3043
sba(isimile
Simile
p3045
(dp3046
g3
Nsg4
S'as heavy as a meringue'
p3047
sg6
(lp3048
S'meringue'
p3049
asg9
g10
sg11
(lp3050
S'heavy'
p3051
asg14
I0
sg15
(lp3052
sg17
g3049
sg18
I00
sg19
I00
sg20
I0
sg21
g3051
sba(isimile
Simile
p3053
(dp3054
g3
Nsg4
S'as heavy as a cirrus_cloud'
p3055
sg6
(lp3056
S'cirrus_cloud'
p3057
asg9
g10
sg11
(lp3058
S'heavy'
p3059
asg14
I0
sg15
(lp3060
sg17
g3057
sg18
I00
sg19
I00
sg20
I0
sg21
g3059
sba(isimile
Simile
p3061
(dp3062
g3
Nsg4
S'as heavy as a snowflake'
p3063
sg6
(lp3064
S'snowflake'
p3065
asg9
g10
sg11
(lp3066
S'heavy'
p3067
asg14
I0
sg15
(lp3068
sg17
g3065
sg18
I00
sg19
I00
sg20
I0
sg21
g3067
sba(isimile
Simile
p3069
(dp3070
g3
Nsg4
S'as heavy as a soap_bubble'
p3071
sg6
(lp3072
S'soap_bubble'
p3073
asg9
g10
sg11
(lp3074
S'heavy'
p3075
asg14
I0
sg15
(lp3076
sg17
g3073
sg18
I00
sg19
I00
sg20
I0
sg21
g3075
sba(isimile
Simile
p3077
(dp3078
g3
Nsg4
S'as heavy as a pebble'
p3079
sg6
(lp3080
S'pebble'
p3081
asg9
g10
sg11
(lp3082
S'heavy'
p3083
asg14
I0
sg15
(lp3084
sg17
g3081
sg18
I00
sg19
I00
sg20
I0
sg21
g3083
sba(isimile
Simile
p3085
(dp3086
g3
Nsg4
S'as heavy as a bird'
p3087
sg6
(lp3088
S'bird'
p3089
asg9
g10
sg11
(lp3090
S'heavy'
p3091
asg14
I0
sg15
(lp3092
sg17
g3089
sg18
I00
sg19
I00
sg20
I0
sg21
g3091
sba(isimile
Simile
p3093
(dp3094
g3
Nsg4
S'as heavy as a petal'
p3095
sg6
(lp3096
S'petal'
p3097
asg9
g10
sg11
(lp3098
S'heavy'
p3099
asg14
I0
sg15
(lp3100
sg17
g3097
sg18
I00
sg19
I00
sg20
I0
sg21
g3099
sba(isimile
Simile
p3101
(dp3102
g3
Nsg4
S'as heavy as a leaf'
p3103
sg6
(lp3104
S'leaf'
p3105
asg9
g10
sg11
(lp3106
S'heavy'
p3107
asg14
I0
sg15
(lp3108
sg17
g3105
sg18
I00
sg19
I00
sg20
I0
sg21
g3107
sba(isimile
Simile
p3109
(dp3110
g3
Nsg4
S'as heavy as a pillow'
p3111
sg6
(lp3112
S'pillow'
p3113
asg9
g10
sg11
(lp3114
S'heavy'
p3115
asg14
I0
sg15
(lp3116
sg17
g3113
sg18
I00
sg19
I00
sg20
I0
sg21
g3115
sba(isimile
Simile
p3117
(dp3118
g3
Nsg4
S'as heavy as a bee'
p3119
sg6
(lp3120
S'bee'
p3121
asg9
g10
sg11
(lp3122
S'heavy'
p3123
asg14
I0
sg15
(lp3124
sg17
g3121
sg18
I00
sg19
I00
sg20
I0
sg21
g3123
sba(isimile
Simile
p3125
(dp3126
g3
Nsg4
S'as heavy as a duckling'
p3127
sg6
(lp3128
S'duckling'
p3129
asg9
g10
sg11
(lp3130
S'heavy'
p3131
asg14
I0
sg15
(lp3132
sg17
g3129
sg18
I00
sg19
I00
sg20
I0
sg21
g3131
sba(isimile
Simile
p3133
(dp3134
g3
Nsg4
S'as heavy as a grasshopper'
p3135
sg6
(lp3136
S'grasshopper'
p3137
asg9
g10
sg11
(lp3138
S'heavy'
p3139
asg14
I0
sg15
(lp3140
sg17
g3137
sg18
I00
sg19
I00
sg20
I0
sg21
g3139
sba(isimile
Simile
p3141
(dp3142
g3
Nsg4
S'as heavy as a windbreaker'
p3143
sg6
(lp3144
S'windbreaker'
p3145
asg9
g10
sg11
(lp3146
S'heavy'
p3147
asg14
I0
sg15
(lp3148
sg17
g3145
sg18
I00
sg19
I00
sg20
I0
sg21
g3147
sba(isimile
Simile
p3149
(dp3150
g3
Nsg4
S'as heavy as a spirit'
p3151
sg6
(lp3152
S'spirit'
p3153
asg9
g10
sg11
(lp3154
S'heavy'
p3155
asg14
I0
sg15
(lp3156
sg17
g3153
sg18
I00
sg19
I00
sg20
I0
sg21
g3155
sba(isimile
Simile
p3157
(dp3158
g3
Nsg4
S'as heavy as a pin'
p3159
sg6
(lp3160
S'pin'
p3161
asg9
g10
sg11
(lp3162
S'heavy'
p3163
asg14
I0
sg15
(lp3164
sg17
g3161
sg18
I00
sg19
I00
sg20
I0
sg21
g3163
sba(isimile
Simile
p3165
(dp3166
g3
Nsg4
S'as heavy as a ballerina'
p3167
sg6
(lp3168
S'ballerina'
p3169
asg9
g10
sg11
(lp3170
S'heavy'
p3171
asg14
I0
sg15
(lp3172
sg17
g3169
sg18
I00
sg19
I00
sg20
I0
sg21
g3171
sba(isimile
Simile
p3173
(dp3174
g3
Nsg4
S'as heavy as a gazelle'
p3175
sg6
(lp3176
S'gazelle'
p3177
asg9
g10
sg11
(lp3178
S'heavy'
p3179
asg14
I0
sg15
(lp3180
sg17
g3177
sg18
I00
sg19
I00
sg20
I0
sg21
g3179
sba(isimile
Simile
p3181
(dp3182
g3
Nsg4
S'as heavy as a teaspoon'
p3183
sg6
(lp3184
S'teaspoon'
p3185
asg9
g10
sg11
(lp3186
S'heavy'
p3187
asg14
I0
sg15
(lp3188
sg17
g3185
sg18
I00
sg19
I00
sg20
I0
sg21
g3187
sba(isimile
Simile
p3189
(dp3190
g3
Nsg4
S'as heavy as a croissant'
p3191
sg6
(lp3192
S'croissant'
p3193
asg9
g10
sg11
(lp3194
S'heavy'
p3195
asg14
I0
sg15
(lp3196
sg17
g3193
sg18
I00
sg19
I00
sg20
I0
sg21
g3195
sba(isimile
Simile
p3197
(dp3198
g3
Nsg4
S'as heavy as a veil'
p3199
sg6
(lp3200
S'veil'
p3201
asg9
g10
sg11
(lp3202
S'heavy'
p3203
asg14
I0
sg15
(lp3204
sg17
g3201
sg18
I00
sg19
I00
sg20
I0
sg21
g3203
sba(isimile
Simile
p3205
(dp3206
g3
Nsg4
S'as heavy as a glove'
p3207
sg6
(lp3208
S'glove'
p3209
asg9
g10
sg11
(lp3210
S'heavy'
p3211
asg14
I0
sg15
(lp3212
sg17
g3209
sg18
I00
sg19
I00
sg20
I0
sg21
g3211
sba(isimile
Simile
p3213
(dp3214
g3
Nsg4
S'as heavy as a smile'
p3215
sg6
(lp3216
S'smile'
p3217
asg9
g10
sg11
(lp3218
S'heavy'
p3219
asg14
I0
sg15
(lp3220
sg17
g3217
sg18
I00
sg19
I00
sg20
I0
sg21
g3219
sba(isimile
Simile
p3221
(dp3222
g3
Nsg4
S'as heavy as a cotton_ball'
p3223
sg6
(lp3224
S'cotton_ball'
p3225
asg9
g10
sg11
(lp3226
S'heavy'
p3227
asg14
S'3'
p3228
sg15
(lp3229
sg17
g3225
sg18
I00
sg19
I00
sg20
g466
sg21
g3227
sba(isimile
Simile
p3230
(dp3231
g3
Nsg4
S'as heavy as a membrane'
p3232
sg6
(lp3233
S'membrane'
p3234
asg9
g10
sg11
(lp3235
S'heavy'
p3236
asg14
I0
sg15
(lp3237
sg17
g3234
sg18
I00
sg19
I00
sg20
I0
sg21
g3236
sba(isimile
Simile
p3238
(dp3239
g3
Nsg4
S'as heavy as a sponge_cake'
p3240
sg6
(lp3241
S'sponge_cake'
p3242
asg9
g10
sg11
(lp3243
S'heavy'
p3244
asg14
I0
sg15
(lp3245
sg17
g3242
sg18
I00
sg19
I00
sg20
I0
sg21
g3244
sba(isimile
Simile
p3246
(dp3247
g3
Nsg4
S'as heavy as a skyscraper'
p3248
sg6
(lp3249
S'skyscraper'
p3250
asg9
g10
sg11
(lp3251
S'heavy'
p3252
asg14
g3228
sg15
(lp3253
sg17
g3250
sg18
I00
sg19
I00
sg20
g466
sg21
g3252
sba(isimile
Simile
p3254
(dp3255
g3
Nsg4
S'as heavy as a pickup_truck'
p3256
sg6
(lp3257
S'pickup_truck'
p3258
asg9
g10
sg11
(lp3259
S'heavy'
p3260
asg14
I0
sg15
(lp3261
sg17
g3258
sg18
I00
sg19
I00
sg20
I0
sg21
g3260
sba(isimile
Simile
p3262
(dp3263
g3
Nsg4
S'as heavy as a sledgehammer'
p3264
sg6
(lp3265
S'sledgehammer'
p3266
asg9
g10
sg11
(lp3267
S'heavy'
p3268
asg14
S'5020'
p3269
sg15
(lp3270
sg17
g3266
sg18
I00
sg19
I00
sg20
S'4'
p3271
sg21
g3268
sba(isimile
Simile
p3272
(dp3273
g3
Nsg4
S'as loose as a drum'
p3274
sg6
(lp3275
S'drum'
p3276
asg9
g10
sg11
(lp3277
S'loose'
p3278
asg14
I0
sg15
(lp3279
sg17
g3276
sg18
I00
sg19
I00
sg20
I0
sg21
g3278
sba(isimile
Simile
p3280
(dp3281
g3
Nsg4
S'as loose as a fist'
p3282
sg6
(lp3283
S'fist'
p3284
asg9
g10
sg11
(lp3285
S'loose'
p3286
asg14
I0
sg15
(lp3287
sg17
g3284
sg18
I00
sg19
I00
sg20
I0
sg21
g3286
sba(isimile
Simile
p3288
(dp3289
g3
Nsg4
S'as loose as a glove'
p3290
sg6
(lp3291
S'glove'
p3292
asg9
g10
sg11
(lp3293
S'loose'
p3294
asg14
I0
sg15
(lp3295
sg17
g3292
sg18
I00
sg19
I00
sg20
I0
sg21
g3294
sba(isimile
Simile
p3296
(dp3297
g3
Nsg4
S'as loose as a vise'
p3298
sg6
(lp3299
S'vise'
p3300
asg9
g10
sg11
(lp3301
S'loose'
p3302
asg14
I0
sg15
(lp3303
sg17
g3300
sg18
I00
sg19
I00
sg20
I0
sg21
g3302
sba(isimile
Simile
p3304
(dp3305
g3
Nsg4
S'as loose as a bowstring'
p3306
sg6
(lp3307
S'bowstring'
p3308
asg9
g10
sg11
(lp3309
S'loose'
p3310
asg14
I0
sg15
(lp3311
sg17
g3308
sg18
I00
sg19
I00
sg20
I0
sg21
g3310
sba(isimile
Simile
p3312
(dp3313
g3
Nsg4
S'as loose as a pressure_cooker'
p3314
sg6
(lp3315
S'pressure_cooker'
p3316
asg9
g10
sg11
(lp3317
S'loose'
p3318
asg14
I0
sg15
(lp3319
sg17
g3316
sg18
I00
sg19
I00
sg20
I0
sg21
g3318
sba(isimile
Simile
p3320
(dp3321
g3
Nsg4
S'as loose as a miser'
p3322
sg6
(lp3323
S'miser'
p3324
asg9
g10
sg11
(lp3325
S'loose'
p3326
asg14
I0
sg15
(lp3327
sg17
g3324
sg18
I00
sg19
I00
sg20
I0
sg21
g3326
sba(isimile
Simile
p3328
(dp3329
g3
Nsg4
S'as loose as a bow'
p3330
sg6
(lp3331
S'bow'
p3332
asg9
g10
sg11
(lp3333
S'loose'
p3334
asg14
I0
sg15
(lp3335
sg17
g3332
sg18
I00
sg19
I00
sg20
I0
sg21
g3334
sba(isimile
Simile
p3336
(dp3337
g3
Nsg4
S'as loose as a noose'
p3338
sg6
(lp3339
S'noose'
p3340
asg9
g10
sg11
(lp3341
S'loose'
p3342
asg14
I0
sg15
(lp3343
sg17
g3340
sg18
I00
sg19
I00
sg20
I0
sg21
g3342
sba(isimile
Simile
p3344
(dp3345
g3
Nsg4
S'as loose as a condom'
p3346
sg6
(lp3347
S'condom'
p3348
asg9
g10
sg11
(lp3349
S'loose'
p3350
asg14
I0
sg15
(lp3351
sg17
g3348
sg18
I00
sg19
I00
sg20
I0
sg21
g3350
sba(isimile
Simile
p3352
(dp3353
g3
Nsg4
S'as loose as a treasure_chest'
p3354
sg6
(lp3355
S'treasure_chest'
p3356
asg9
g10
sg11
(lp3357
S'loose'
p3358
asg14
I0
sg15
(lp3359
sg17
g3356
sg18
I00
sg19
I00
sg20
I0
sg21
g3358
sba(isimile
Simile
p3360
(dp3361
g3
Nsg4
S'as loose as a corset'
p3362
sg6
(lp3363
S'corset'
p3364
asg9
g10
sg11
(lp3365
S'loose'
p3366
asg14
I0
sg15
(lp3367
sg17
g3364
sg18
I00
sg19
I00
sg20
I0
sg21
g3366
sba(isimile
Simile
p3368
(dp3369
g3
Nsg4
S'as loose as a clam'
p3370
sg6
(lp3371
S'clam'
p3372
asg9
g10
sg11
(lp3373
S'loose'
p3374
asg14
I0
sg15
(lp3375
sg17
g3372
sg18
I00
sg19
I00
sg20
I0
sg21
g3374
sba(isimile
Simile
p3376
(dp3377
g3
Nsg4
S'as loose as a tourniquet'
p3378
sg6
(lp3379
S'tourniquet'
p3380
asg9
g10
sg11
(lp3381
S'loose'
p3382
asg14
I0
sg15
(lp3383
sg17
g3380
sg18
I00
sg19
I00
sg20
I0
sg21
g3382
sba(isimile
Simile
p3384
(dp3385
g3
Nsg4
S'as loose as a bracelet'
p3386
sg6
(lp3387
S'bracelet'
p3388
asg9
g10
sg11
(lp3389
S'loose'
p3390
asg14
I0
sg15
(lp3391
sg17
g3388
sg18
I00
sg19
I00
sg20
I0
sg21
g3390
sba(isimile
Simile
p3392
(dp3393
g3
Nsg4
S'as loose as a balloon'
p3394
sg6
(lp3395
S'balloon'
p3396
asg9
g10
sg11
(lp3397
S'loose'
p3398
asg14
I0
sg15
(lp3399
sg17
g3396
sg18
I00
sg19
I00
sg20
I0
sg21
g3398
sba(isimile
Simile
p3400
(dp3401
g3
Nsg4
S'as loose as a yoke'
p3402
sg6
(lp3403
S'yoke'
p3404
asg9
g10
sg11
(lp3405
S'loose'
p3406
asg14
I0
sg15
(lp3407
sg17
g3404
sg18
I00
sg19
I00
sg20
I0
sg21
g3406
sba(isimile
Simile
p3408
(dp3409
g3
Nsg4
S'as loose as an egg'
p3410
sg6
(lp3411
S'egg'
p3412
asg9
g67
sg11
(lp3413
S'loose'
p3414
asg14
I0
sg15
(lp3415
sg17
g3412
sg18
I00
sg19
I00
sg20
I0
sg21
g3414
sba(isimile
Simile
p3416
(dp3417
g3
Nsg4
S'as loose as a mason_jar'
p3418
sg6
(lp3419
S'mason_jar'
p3420
asg9
g10
sg11
(lp3421
S'loose'
p3422
asg14
I0
sg15
(lp3423
sg17
g3420
sg18
I00
sg19
I00
sg20
I0
sg21
g3422
sba(isimile
Simile
p3424
(dp3425
g3
Nsg4
S'as loose as a marriage'
p3426
sg6
(lp3427
S'marriage'
p3428
asg9
g10
sg11
(lp3429
S'loose'
p3430
asg14
I0
sg15
(lp3431
sg17
g3428
sg18
I00
sg19
I00
sg20
I0
sg21
g3430
sba(isimile
Simile
p3432
(dp3433
g3
Nsg4
S'as loose as a thermos_bottle'
p3434
sg6
(lp3435
S'thermos_bottle'
p3436
asg9
g10
sg11
(lp3437
S'loose'
p3438
asg14
I0
sg15
(lp3439
sg17
g3436
sg18
I00
sg19
I00
sg20
I0
sg21
g3438
sba(isimile
Simile
p3440
(dp3441
g3
Nsg4
S'as loose as a suture'
p3442
sg6
(lp3443
S'suture'
p3444
asg9
g10
sg11
(lp3445
S'loose'
p3446
asg14
I0
sg15
(lp3447
sg17
g3444
sg18
I00
sg19
I00
sg20
I0
sg21
g3446
sba(isimile
Simile
p3448
(dp3449
g3
Nsg4
S'as loose as a tennis_racquet'
p3450
sg6
(lp3451
S'tennis_racquet'
p3452
asg9
g10
sg11
(lp3453
S'loose'
p3454
asg14
I0
sg15
(lp3455
sg17
g3452
sg18
I00
sg19
I00
sg20
I0
sg21
g3454
sba(isimile
Simile
p3456
(dp3457
g3
Nsg4
S'as loose as a barnacle'
p3458
sg6
(lp3459
S'barnacle'
p3460
asg9
g10
sg11
(lp3461
S'loose'
p3462
asg14
I0
sg15
(lp3463
sg17
g3460
sg18
I00
sg19
I00
sg20
I0
sg21
g3462
sba(isimile
Simile
p3464
(dp3465
g3
Nsg4
S'as loose as a vault'
p3466
sg6
(lp3467
S'vault'
p3468
asg9
g10
sg11
(lp3469
S'loose'
p3470
asg14
I0
sg15
(lp3471
sg17
g3468
sg18
I00
sg19
I00
sg20
I0
sg21
g3470
sba(isimile
Simile
p3472
(dp3473
g3
Nsg4
S'as loose as a shroud'
p3474
sg6
(lp3475
S'shroud'
p3476
asg9
g10
sg11
(lp3477
S'loose'
p3478
asg14
I0
sg15
(lp3479
sg17
g3476
sg18
I00
sg19
I00
sg20
I0
sg21
g3478
sba(isimile
Simile
p3480
(dp3481
g3
Nsg4
S'as loose as a locker'
p3482
sg6
(lp3483
S'locker'
p3484
asg9
g10
sg11
(lp3485
S'loose'
p3486
asg14
I0
sg15
(lp3487
sg17
g3484
sg18
I00
sg19
I00
sg20
I0
sg21
g3486
sba(isimile
Simile
p3488
(dp3489
g3
Nsg4
S'as loose as a dog_collar'
p3490
sg6
(lp3491
S'dog_collar'
p3492
asg9
g10
sg11
(lp3493
S'loose'
p3494
asg14
I0
sg15
(lp3495
sg17
g3492
sg18
I00
sg19
I00
sg20
I0
sg21
g3494
sba(isimile
Simile
p3496
(dp3497
g3
Nsg4
S'as loose as a leotard'
p3498
sg6
(lp3499
S'leotard'
p3500
asg9
g10
sg11
(lp3501
S'loose'
p3502
asg14
I0
sg15
(lp3503
sg17
g3500
sg18
I00
sg19
I00
sg20
I0
sg21
g3502
sba(isimile
Simile
p3504
(dp3505
g3
Nsg4
S'as loose as a bank_vault'
p3506
sg6
(lp3507
S'bank_vault'
p3508
asg9
g10
sg11
(lp3509
S'loose'
p3510
asg14
I0
sg15
(lp3511
sg17
g3508
sg18
I00
sg19
I00
sg20
I0
sg21
g3510
sba(isimile
Simile
p3512
(dp3513
g3
Nsg4
S'as loose as a choker'
p3514
sg6
(lp3515
S'choker'
p3516
asg9
g10
sg11
(lp3517
S'loose'
p3518
asg14
I0
sg15
(lp3519
sg17
g3516
sg18
I00
sg19
I00
sg20
I0
sg21
g3518
sba(isimile
Simile
p3520
(dp3521
g3
Nsg4
S'as loose as a tambourine'
p3522
sg6
(lp3523
S'tambourine'
p3524
asg9
g10
sg11
(lp3525
S'loose'
p3526
asg14
I0
sg15
(lp3527
sg17
g3524
sg18
I00
sg19
I00
sg20
I0
sg21
g3526
sba(isimile
Simile
p3528
(dp3529
g3
Nsg4
S'as loose as a jar'
p3530
sg6
(lp3531
S'jar'
p3532
asg9
g10
sg11
(lp3533
S'loose'
p3534
asg14
I0
sg15
(lp3535
sg17
g3532
sg18
I00
sg19
I00
sg20
I0
sg21
g3534
sba(isimile
Simile
p3536
(dp3537
g3
Nsg4
S'as loose as a girdle'
p3538
sg6
(lp3539
S'girdle'
p3540
asg9
g10
sg11
(lp3541
S'loose'
p3542
asg14
I0
sg15
(lp3543
sg17
g3540
sg18
I00
sg19
I00
sg20
I0
sg21
g3542
sba(isimile
Simile
p3544
(dp3545
g3
Nsg4
S'as loose as a life_preserver'
p3546
sg6
(lp3547
S'life_preserver'
p3548
asg9
g10
sg11
(lp3549
S'loose'
p3550
asg14
I0
sg15
(lp3551
sg17
g3548
sg18
I00
sg19
I00
sg20
I0
sg21
g3550
sba(isimile
Simile
p3552
(dp3553
g3
Nsg4
S'as loose as a leech'
p3554
sg6
(lp3555
S'leech'
p3556
asg9
g10
sg11
(lp3557
S'loose'
p3558
asg14
I0
sg15
(lp3559
sg17
g3556
sg18
I00
sg19
I00
sg20
I0
sg21
g3558
sba(isimile
Simile
p3560
(dp3561
g3
Nsg4
S'as loose as a bathing_cap'
p3562
sg6
(lp3563
S'bathing_cap'
p3564
asg9
g10
sg11
(lp3565
S'loose'
p3566
asg14
I0
sg15
(lp3567
sg17
g3564
sg18
I00
sg19
I00
sg20
I0
sg21
g3566
sba(isimile
Simile
p3568
(dp3569
g3
Nsg4
S'as loose as a garter_belt'
p3570
sg6
(lp3571
S'garter_belt'
p3572
asg9
g10
sg11
(lp3573
S'loose'
p3574
asg14
I0
sg15
(lp3575
sg17
g3572
sg18
I00
sg19
I00
sg20
I0
sg21
g3574
sba(isimile
Simile
p3576
(dp3577
g3
Nsg4
S'as loose as a cell_membrane'
p3578
sg6
(lp3579
S'cell_membrane'
p3580
asg9
g10
sg11
(lp3581
S'loose'
p3582
asg14
I0
sg15
(lp3583
sg17
g3580
sg18
I00
sg19
I00
sg20
I0
sg21
g3582
sba(isimile
Simile
p3584
(dp3585
g3
Nsg4
S'as loose as a teddy_bear'
p3586
sg6
(lp3587
S'teddy_bear'
p3588
asg9
g10
sg11
(lp3589
S'loose'
p3590
asg14
I0
sg15
(lp3591
sg17
g3588
sg18
I00
sg19
I00
sg20
I0
sg21
g3590
sba(isimile
Simile
p3592
(dp3593
g3
Nsg4
S'as loose as a sieve'
p3594
sg6
(lp3595
S'sieve'
p3596
asg9
g10
sg11
(lp3597
S'loose'
p3598
asg14
I0
sg15
(lp3599
sg17
g3596
sg18
I00
sg19
I00
sg20
I0
sg21
g3598
sba(isimile
Simile
p3600
(dp3601
g3
Nsg4
S'as loose as a colander'
p3602
sg6
(lp3603
S'colander'
p3604
asg9
g10
sg11
(lp3605
S'loose'
p3606
asg14
I0
sg15
(lp3607
sg17
g3604
sg18
I00
sg19
I00
sg20
I0
sg21
g3606
sba(isimile
Simile
p3608
(dp3609
g3
Nsg4
S'as unfrozen as a popsicle'
p3610
sg6
(lp3611
S'popsicle'
p3612
asg9
g10
sg11
(lp3613
S'unfrozen'
p3614
asg14
I0
sg15
(lp3615
sg17
g3612
sg18
I00
sg19
I00
sg20
I0
sg21
g3614
sba(isimile
Simile
p3616
(dp3617
g3
Nsg4
S'as unfrozen as a statue'
p3618
sg6
(lp3619
S'statue'
p3620
asg9
g10
sg11
(lp3621
S'unfrozen'
p3622
asg14
I0
sg15
(lp3623
sg17
g3620
sg18
I00
sg19
I00
sg20
I0
sg21
g3622
sba(isimile
Simile
p3624
(dp3625
g3
Nsg4
S'as unfrozen as a mask'
p3626
sg6
(lp3627
S'mask'
p3628
asg9
g10
sg11
(lp3629
S'unfrozen'
p3630
asg14
I0
sg15
(lp3631
sg17
g3628
sg18
I00
sg19
I00
sg20
I0
sg21
g3630
sba(isimile
Simile
p3632
(dp3633
g3
Nsg4
S'as unfrozen as a glacier'
p3634
sg6
(lp3635
S'glacier'
p3636
asg9
g10
sg11
(lp3637
S'unfrozen'
p3638
asg14
I0
sg15
(lp3639
sg17
g3636
sg18
I00
sg19
I00
sg20
I0
sg21
g3638
sba(isimile
Simile
p3640
(dp3641
g3
Nsg4
S'as unfrozen as a rock'
p3642
sg6
(lp3643
S'rock'
p3644
asg9
g10
sg11
(lp3645
S'unfrozen'
p3646
asg14
I0
sg15
(lp3647
sg17
g3644
sg18
I00
sg19
I00
sg20
I0
sg21
g3646
sba(isimile
Simile
p3648
(dp3649
g3
Nsg4
S'as unfrozen as a corpse'
p3650
sg6
(lp3651
S'corpse'
p3652
asg9
g10
sg11
(lp3653
S'unfrozen'
p3654
asg14
I0
sg15
(lp3655
sg17
g3652
sg18
I00
sg19
I00
sg20
I0
sg21
g3654
sba(isimile
Simile
p3656
(dp3657
g3
Nsg4
S'as unfrozen as a snowman'
p3658
sg6
(lp3659
S'snowman'
p3660
asg9
g10
sg11
(lp3661
S'unfrozen'
p3662
asg14
I0
sg15
(lp3663
sg17
g3660
sg18
I00
sg19
I00
sg20
I0
sg21
g3662
sba(isimile
Simile
p3664
(dp3665
g3
Nsg4
S'as unbalanced as a tightrope_walker'
p3666
sg6
(lp3667
S'tightrope_walker'
p3668
asg9
g10
sg11
(lp3669
S'unbalanced'
p3670
asg14
I0
sg15
(lp3671
sg17
g3668
sg18
I00
sg19
I00
sg20
I0
sg21
g3670
sba(isimile
Simile
p3672
(dp3673
g3
Nsg4
S'as unbalanced as a gyroscope'
p3674
sg6
(lp3675
S'gyroscope'
p3676
asg9
g10
sg11
(lp3677
S'unbalanced'
p3678
asg14
I0
sg15
(lp3679
sg17
g3676
sg18
I00
sg19
I00
sg20
I0
sg21
g3678
sba(isimile
Simile
p3680
(dp3681
g3
Nsg4
S'as unbalanced as a cantilever_bridge'
p3682
sg6
(lp3683
S'cantilever_bridge'
p3684
asg9
g10
sg11
(lp3685
S'unbalanced'
p3686
asg14
I0
sg15
(lp3687
sg17
g3684
sg18
I00
sg19
I00
sg20
I0
sg21
g3686
sba(isimile
Simile
p3688
(dp3689
g3
Nsg4
S'as unbalanced as a dancer'
p3690
sg6
(lp3691
S'dancer'
p3692
asg9
g10
sg11
(lp3693
S'unbalanced'
p3694
asg14
I0
sg15
(lp3695
sg17
g3692
sg18
I00
sg19
I00
sg20
I0
sg21
g3694
sba(isimile
Simile
p3696
(dp3697
g3
Nsg4
S'as unbalanced as a pyramid'
p3698
sg6
(lp3699
S'pyramid'
p3700
asg9
g10
sg11
(lp3701
S'unbalanced'
p3702
asg14
I0
sg15
(lp3703
sg17
g3700
sg18
I00
sg19
I00
sg20
I0
sg21
g3702
sba(isimile
Simile
p3704
(dp3705
g3
Nsg4
S'as unbalanced as a nut_case'
p3706
sg6
(lp3707
S'nut_case'
p3708
asg9
g10
sg11
(lp3709
S'unbalanced'
p3710
asg14
I0
sg15
(lp3711
sg17
g3708
sg18
I00
sg19
I00
sg20
I0
sg21
g3710
sba(isimile
Simile
p3712
(dp3713
g3
Nsg4
S'as fertile as a hospital'
p3714
sg6
(lp3715
S'hospital'
p3716
asg9
g10
sg11
(lp3717
S'fertile'
p3718
asg14
I0
sg15
(lp3719
sg17
g3716
sg18
I00
sg19
I00
sg20
I0
sg21
g3718
sba(isimile
Simile
p3720
(dp3721
g3
Nsg4
S'as fertile as a mule'
p3722
sg6
(lp3723
S'mule'
p3724
asg9
g10
sg11
(lp3725
S'fertile'
p3726
asg14
I0
sg15
(lp3727
sg17
g3724
sg18
I00
sg19
I00
sg20
I0
sg21
g3726
sba(isimile
Simile
p3728
(dp3729
g3
Nsg4
S'as fertile as a hospital_ward'
p3730
sg6
(lp3731
S'hospital_ward'
p3732
asg9
g10
sg11
(lp3733
S'fertile'
p3734
asg14
I0
sg15
(lp3735
sg17
g3732
sg18
I00
sg19
I00
sg20
I0
sg21
g3734
sba(isimile
Simile
p3736
(dp3737
g3
Nsg4
S'as fertile as a gauze_bandage'
p3738
sg6
(lp3739
S'gauze_bandage'
p3740
asg9
g10
sg11
(lp3741
S'fertile'
p3742
asg14
I0
sg15
(lp3743
sg17
g3740
sg18
I00
sg19
I00
sg20
I0
sg21
g3742
sba(isimile
Simile
p3744
(dp3745
g3
Nsg4
S'as fertile as a cotton_ball'
p3746
sg6
(lp3747
S'cotton_ball'
p3748
asg9
g10
sg11
(lp3749
S'fertile'
p3750
asg14
I0
sg15
(lp3751
sg17
g3748
sg18
I00
sg19
I00
sg20
I0
sg21
g3750
sba(isimile
Simile
p3752
(dp3753
g3
Nsg4
S'as fertile as an eunuch'
p3754
sg6
(lp3755
S'eunuch'
p3756
asg9
g67
sg11
(lp3757
S'fertile'
p3758
asg14
I0
sg15
(lp3759
sg17
g3756
sg18
I00
sg19
I00
sg20
I0
sg21
g3758
sba(isimile
Simile
p3760
(dp3761
g3
Nsg4
S'as fertile as a brain_surgery'
p3762
sg6
(lp3763
S'brain_surgery'
p3764
asg9
g10
sg11
(lp3765
S'fertile'
p3766
asg14
I0
sg15
(lp3767
sg17
g3764
sg18
I00
sg19
I00
sg20
I0
sg21
g3766
sba(isimile
Simile
p3768
(dp3769
g3
Nsg4
S'as compromising as an oak'
p3770
sg6
(lp3771
S'oak'
p3772
asg9
g67
sg11
(lp3773
S'compromising'
p3774
asg14
I0
sg15
(lp3775
sg17
g3772
sg18
I00
sg19
I00
sg20
I0
sg21
g3774
sba(isimile
Simile
p3776
(dp3777
g3
Nsg4
S'as compromising as a rock'
p3778
sg6
(lp3779
S'rock'
p3780
asg9
g10
sg11
(lp3781
S'compromising'
p3782
asg14
I0
sg15
(lp3783
sg17
g3780
sg18
I00
sg19
I00
sg20
I0
sg21
g3782
sba(isimile
Simile
p3784
(dp3785
g3
Nsg4
S'as compromising as a trunk'
p3786
sg6
(lp3787
S'trunk'
p3788
asg9
g10
sg11
(lp3789
S'compromising'
p3790
asg14
I0
sg15
(lp3791
sg17
g3788
sg18
I00
sg19
I00
sg20
I0
sg21
g3790
sba(isimile
Simile
p3792
(dp3793
g3
Nsg4
S'as compromising as a house'
p3794
sg6
(lp3795
S'house'
p3796
asg9
g10
sg11
(lp3797
S'compromising'
p3798
asg14
I0
sg15
(lp3799
sg17
g3796
sg18
I00
sg19
I00
sg20
I0
sg21
g3798
sba(isimile
Simile
p3800
(dp3801
g3
Nsg4
S'as compromising as a bridge'
p3802
sg6
(lp3803
S'bridge'
p3804
asg9
g10
sg11
(lp3805
S'compromising'
p3806
asg14
I0
sg15
(lp3807
sg17
g3804
sg18
I00
sg19
I00
sg20
I0
sg21
g3806
sba(isimile
Simile
p3808
(dp3809
g3
Nsg4
S'as compromising as a mountain'
p3810
sg6
(lp3811
S'mountain'
p3812
asg9
g10
sg11
(lp3813
S'compromising'
p3814
asg14
I0
sg15
(lp3815
sg17
g3812
sg18
I00
sg19
I00
sg20
I0
sg21
g3814
sba(isimile
Simile
p3816
(dp3817
g3
Nsg4
S'as compromising as a tripod'
p3818
sg6
(lp3819
S'tripod'
p3820
asg9
g10
sg11
(lp3821
S'compromising'
p3822
asg14
I0
sg15
(lp3823
sg17
g3820
sg18
I00
sg19
I00
sg20
I0
sg21
g3822
sba(isimile
Simile
p3824
(dp3825
g3
Nsg4
S'as compromising as a hummer'
p3826
sg6
(lp3827
S'hummer'
p3828
asg9
g10
sg11
(lp3829
S'compromising'
p3830
asg14
I0
sg15
(lp3831
sg17
g3828
sg18
I00
sg19
I00
sg20
I0
sg21
g3830
sba(isimile
Simile
p3832
(dp3833
g3
Nsg4
S'as compromising as a plow_horse'
p3834
sg6
(lp3835
S'plow_horse'
p3836
asg9
g10
sg11
(lp3837
S'compromising'
p3838
asg14
I0
sg15
(lp3839
sg17
g3836
sg18
I00
sg19
I00
sg20
I0
sg21
g3838
sba(isimile
Simile
p3840
(dp3841
g3
Nsg4
S'as compromising as a brick'
p3842
sg6
(lp3843
S'brick'
p3844
asg9
g10
sg11
(lp3845
S'compromising'
p3846
asg14
I0
sg15
(lp3847
sg17
g3844
sg18
I00
sg19
I00
sg20
I0
sg21
g3846
sba(isimile
Simile
p3848
(dp3849
g3
Nsg4
S'as compromising as a mule'
p3850
sg6
(lp3851
S'mule'
p3852
asg9
g10
sg11
(lp3853
S'compromising'
p3854
asg14
I0
sg15
(lp3855
sg17
g3852
sg18
I00
sg19
I00
sg20
I0
sg21
g3854
sba(isimile
Simile
p3856
(dp3857
g3
Nsg4
S'as compromising as a barn'
p3858
sg6
(lp3859
S'barn'
p3860
asg9
g10
sg11
(lp3861
S'compromising'
p3862
asg14
I0
sg15
(lp3863
sg17
g3860
sg18
I00
sg19
I00
sg20
I0
sg21
g3862
sba(isimile
Simile
p3864
(dp3865
g3
Nsg4
S'as compromising as a workhorse'
p3866
sg6
(lp3867
S'workhorse'
p3868
asg9
g10
sg11
(lp3869
S'compromising'
p3870
asg14
I0
sg15
(lp3871
sg17
g3868
sg18
I00
sg19
I00
sg20
I0
sg21
g3870
sba(isimile
Simile
p3872
(dp3873
g3
Nsg4
S'as compromising as a warship'
p3874
sg6
(lp3875
S'warship'
p3876
asg9
g10
sg11
(lp3877
S'compromising'
p3878
asg14
I0
sg15
(lp3879
sg17
g3876
sg18
I00
sg19
I00
sg20
I0
sg21
g3878
sba(isimile
Simile
p3880
(dp3881
g3
Nsg4
S'as compromising as a skyscraper'
p3882
sg6
(lp3883
S'skyscraper'
p3884
asg9
g10
sg11
(lp3885
S'compromising'
p3886
asg14
I0
sg15
(lp3887
sg17
g3884
sg18
I00
sg19
I00
sg20
I0
sg21
g3886
sba(isimile
Simile
p3888
(dp3889
g3
Nsg4
S'as compromising as a tank'
p3890
sg6
(lp3891
S'tank'
p3892
asg9
g10
sg11
(lp3893
S'compromising'
p3894
asg14
I0
sg15
(lp3895
sg17
g3892
sg18
I00
sg19
I00
sg20
I0
sg21
g3894
sba(isimile
Simile
p3896
(dp3897
g3
Nsg4
S'as compromising as a castle'
p3898
sg6
(lp3899
S'castle'
p3900
asg9
g10
sg11
(lp3901
S'compromising'
p3902
asg14
I0
sg15
(lp3903
sg17
g3900
sg18
I00
sg19
I00
sg20
I0
sg21
g3902
sba(isimile
Simile
p3904
(dp3905
g3
Nsg4
S'as compromising as a refrigerator'
p3906
sg6
(lp3907
S'refrigerator'
p3908
asg9
g10
sg11
(lp3909
S'compromising'
p3910
asg14
I0
sg15
(lp3911
sg17
g3908
sg18
I00
sg19
I00
sg20
I0
sg21
g3910
sba(isimile
Simile
p3912
(dp3913
g3
Nsg4
S'as compromising as a weed'
p3914
sg6
(lp3915
S'weed'
p3916
asg9
g10
sg11
(lp3917
S'compromising'
p3918
asg14
I0
sg15
(lp3919
sg17
g3916
sg18
I00
sg19
I00
sg20
I0
sg21
g3918
sba(isimile
Simile
p3920
(dp3921
g3
Nsg4
S'as compromising as a granite'
p3922
sg6
(lp3923
S'granite'
p3924
asg9
g10
sg11
(lp3925
S'compromising'
p3926
asg14
I0
sg15
(lp3927
sg17
g3924
sg18
I00
sg19
I00
sg20
I0
sg21
g3926
sba(isimile
Simile
p3928
(dp3929
g3
Nsg4
S'as compromising as a screw'
p3930
sg6
(lp3931
S'screw'
p3932
asg9
g10
sg11
(lp3933
S'compromising'
p3934
asg14
I0
sg15
(lp3935
sg17
g3932
sg18
I00
sg19
I00
sg20
I0
sg21
g3934
sba(isimile
Simile
p3936
(dp3937
g3
Nsg4
S'as compromising as a post'
p3938
sg6
(lp3939
S'post'
p3940
asg9
g10
sg11
(lp3941
S'compromising'
p3942
asg14
I0
sg15
(lp3943
sg17
g3940
sg18
I00
sg19
I00
sg20
I0
sg21
g3942
sba(isimile
Simile
p3944
(dp3945
g3
Nsg4
S'as compromising as a twobyfour'
p3946
sg6
(lp3947
S'twobyfour'
p3948
asg9
g10
sg11
(lp3949
S'compromising'
p3950
asg14
I0
sg15
(lp3951
sg17
g3948
sg18
I00
sg19
I00
sg20
I0
sg21
g3950
sba(isimile
Simile
p3952
(dp3953
g3
Nsg4
S'as compromising as a fortress'
p3954
sg6
(lp3955
S'fortress'
p3956
asg9
g10
sg11
(lp3957
S'compromising'
p3958
asg14
I0
sg15
(lp3959
sg17
g3956
sg18
I00
sg19
I00
sg20
I0
sg21
g3958
sba(isimile
Simile
p3960
(dp3961
g3
Nsg4
S'as compromising as a battleship'
p3962
sg6
(lp3963
S'battleship'
p3964
asg9
g10
sg11
(lp3965
S'compromising'
p3966
asg14
I0
sg15
(lp3967
sg17
g3964
sg18
I00
sg19
I00
sg20
I0
sg21
g3966
sba(isimile
Simile
p3968
(dp3969
g3
Nsg4
S'as compromising as a tree'
p3970
sg6
(lp3971
S'tree'
p3972
asg9
g10
sg11
(lp3973
S'compromising'
p3974
asg14
I0
sg15
(lp3975
sg17
g3972
sg18
I00
sg19
I00
sg20
I0
sg21
g3974
sba(isimile
Simile
p3976
(dp3977
g3
Nsg4
S'as compromising as a lion'
p3978
sg6
(lp3979
S'lion'
p3980
asg9
g10
sg11
(lp3981
S'compromising'
p3982
asg14
I0
sg15
(lp3983
sg17
g3980
sg18
I00
sg19
I00
sg20
I0
sg21
g3982
sba(isimile
Simile
p3984
(dp3985
g3
Nsg4
S'as compromising as an axe_handle'
p3986
sg6
(lp3987
S'axe_handle'
p3988
asg9
g67
sg11
(lp3989
S'compromising'
p3990
asg14
I0
sg15
(lp3991
sg17
g3988
sg18
I00
sg19
I00
sg20
I0
sg21
g3990
sba(isimile
Simile
p3992
(dp3993
g3
Nsg4
S'as compromising as a tractor'
p3994
sg6
(lp3995
S'tractor'
p3996
asg9
g10
sg11
(lp3997
S'compromising'
p3998
asg14
I0
sg15
(lp3999
sg17
g3996
sg18
I00
sg19
I00
sg20
I0
sg21
g3998
sba(isimile
Simile
p4000
(dp4001
g3
Nsg4
S'as compromising as a mountain_bike'
p4002
sg6
(lp4003
S'mountain_bike'
p4004
asg9
g10
sg11
(lp4005
S'compromising'
p4006
asg14
I0
sg15
(lp4007
sg17
g4004
sg18
I00
sg19
I00
sg20
I0
sg21
g4006
sba(isimile
Simile
p4008
(dp4009
g3
Nsg4
S'as compromising as a saltine'
p4010
sg6
(lp4011
S'saltine'
p4012
asg9
g10
sg11
(lp4013
S'compromising'
p4014
asg14
I0
sg15
(lp4015
sg17
g4012
sg18
I00
sg19
I00
sg20
I0
sg21
g4014
sba(isimile
Simile
p4016
(dp4017
g3
Nsg4
S'as compromising as a beer_can'
p4018
sg6
(lp4019
S'beer_can'
p4020
asg9
g10
sg11
(lp4021
S'compromising'
p4022
asg14
I0
sg15
(lp4023
sg17
g4020
sg18
I00
sg19
I00
sg20
I0
sg21
g4022
sba(isimile
Simile
p4024
(dp4025
g3
Nsg4
S'as compromising as a paper_clip'
p4026
sg6
(lp4027
S'paper_clip'
p4028
asg9
g10
sg11
(lp4029
S'compromising'
p4030
asg14
I0
sg15
(lp4031
sg17
g4028
sg18
I00
sg19
I00
sg20
I0
sg21
g4030
sba(isimile
Simile
p4032
(dp4033
g3
Nsg4
S'as compromising as a feather'
p4034
sg6
(lp4035
S'feather'
p4036
asg9
g10
sg11
(lp4037
S'compromising'
p4038
asg14
I0
sg15
(lp4039
sg17
g4036
sg18
I00
sg19
I00
sg20
I0
sg21
g4038
sba(isimile
Simile
p4040
(dp4041
g3
Nsg4
S'as compromising as a toothpick'
p4042
sg6
(lp4043
S'toothpick'
p4044
asg9
g10
sg11
(lp4045
S'compromising'
p4046
asg14
I0
sg15
(lp4047
sg17
g4044
sg18
I00
sg19
I00
sg20
I0
sg21
g4046
sba(isimile
Simile
p4048
(dp4049
g3
Nsg4
S'as compromising as a flea'
p4050
sg6
(lp4051
S'flea'
p4052
asg9
g10
sg11
(lp4053
S'compromising'
p4054
asg14
I0
sg15
(lp4055
sg17
g4052
sg18
I00
sg19
I00
sg20
I0
sg21
g4054
sba(isimile
Simile
p4056
(dp4057
g3
Nsg4
S'as natural as a glass_eye'
p4058
sg6
(lp4059
S'glass_eye'
p4060
asg9
g10
sg11
(lp4061
S'natural'
p4062
asg14
I0
sg15
(lp4063
sg17
g4060
sg18
I00
sg19
I00
sg20
I0
sg21
g4062
sba(isimile
Simile
p4064
(dp4065
g3
Nsg4
S'as natural as a doll'
p4066
sg6
(lp4067
S'doll'
p4068
asg9
g10
sg11
(lp4069
S'natural'
p4070
asg14
I0
sg15
(lp4071
sg17
g4068
sg18
I00
sg19
I00
sg20
I0
sg21
g4070
sba(isimile
Simile
p4072
(dp4073
g3
Nsg4
S'as natural as a video_game'
p4074
sg6
(lp4075
S'video_game'
p4076
asg9
g10
sg11
(lp4077
S'natural'
p4078
asg14
I0
sg15
(lp4079
sg17
g4076
sg18
I00
sg19
I00
sg20
I0
sg21
g4078
sba(isimile
Simile
p4080
(dp4081
g3
Nsg4
S'as natural as a fairy_tale'
p4082
sg6
(lp4083
S'fairy_tale'
p4084
asg9
g10
sg11
(lp4085
S'natural'
p4086
asg14
I0
sg15
(lp4087
sg17
g4084
sg18
I00
sg19
I00
sg20
I0
sg21
g4086
sba(isimile
Simile
p4088
(dp4089
g3
Nsg4
S'as natural as a puppet_show'
p4090
sg6
(lp4091
S'puppet_show'
p4092
asg9
g10
sg11
(lp4093
S'natural'
p4094
asg14
I0
sg15
(lp4095
sg17
g4092
sg18
I00
sg19
I00
sg20
I0
sg21
g4094
sba(isimile
Simile
p4096
(dp4097
g3
Nsg4
S'as natural as a theme_park'
p4098
sg6
(lp4099
S'theme_park'
p4100
asg9
g10
sg11
(lp4101
S'natural'
p4102
asg14
I0
sg15
(lp4103
sg17
g4100
sg18
I00
sg19
I00
sg20
I0
sg21
g4102
sba(isimile
Simile
p4104
(dp4105
g3
Nsg4
S'as natural as a mannequin'
p4106
sg6
(lp4107
S'mannequin'
p4108
asg9
g10
sg11
(lp4109
S'natural'
p4110
asg14
I0
sg15
(lp4111
sg17
g4108
sg18
I00
sg19
I00
sg20
I0
sg21
g4110
sba(isimile
Simile
p4112
(dp4113
g3
Nsg4
S'as disorderly as a crystal'
p4114
sg6
(lp4115
S'crystal'
p4116
asg9
g10
sg11
(lp4117
S'disorderly'
p4118
asg14
I0
sg15
(lp4119
sg17
g4116
sg18
I00
sg19
I00
sg20
I0
sg21
g4118
sba(isimile
Simile
p4120
(dp4121
g3
Nsg4
S'as disorderly as a museum'
p4122
sg6
(lp4123
S'museum'
p4124
asg9
g10
sg11
(lp4125
S'disorderly'
p4126
asg14
I0
sg15
(lp4127
sg17
g4124
sg18
I00
sg19
I00
sg20
I0
sg21
g4126
sba(isimile
Simile
p4128
(dp4129
g3
Nsg4
S'as disorderly as a crystal_lattice'
p4130
sg6
(lp4131
S'crystal_lattice'
p4132
asg9
g10
sg11
(lp4133
S'disorderly'
p4134
asg14
I0
sg15
(lp4135
sg17
g4132
sg18
I00
sg19
I00
sg20
I0
sg21
g4134
sba(isimile
Simile
p4136
(dp4137
g3
Nsg4
S'as disorderly as a clock'
p4138
sg6
(lp4139
S'clock'
p4140
asg9
g10
sg11
(lp4141
S'disorderly'
p4142
asg14
I0
sg15
(lp4143
sg17
g4140
sg18
I00
sg19
I00
sg20
I0
sg21
g4142
sba(isimile
Simile
p4144
(dp4145
g3
Nsg4
S'as disorderly as a map'
p4146
sg6
(lp4147
S'map'
p4148
asg9
g10
sg11
(lp4149
S'disorderly'
p4150
asg14
I0
sg15
(lp4151
sg17
g4148
sg18
I00
sg19
I00
sg20
I0
sg21
g4150
sba(isimile
Simile
p4152
(dp4153
g3
Nsg4
S'as disorderly as a library'
p4154
sg6
(lp4155
S'library'
p4156
asg9
g10
sg11
(lp4157
S'disorderly'
p4158
asg14
I0
sg15
(lp4159
sg17
g4156
sg18
I00
sg19
I00
sg20
I0
sg21
g4158
sba(isimile
Simile
p4160
(dp4161
g3
Nsg4
S'as disorderly as a funeral'
p4162
sg6
(lp4163
S'funeral'
p4164
asg9
g10
sg11
(lp4165
S'disorderly'
p4166
asg14
I0
sg15
(lp4167
sg17
g4164
sg18
I00
sg19
I00
sg20
I0
sg21
g4166
sba(isimile
Simile
p4168
(dp4169
g3
Nsg4
S'as disorderly as a fire_drill'
p4170
sg6
(lp4171
S'fire_drill'
p4172
asg9
g10
sg11
(lp4173
S'disorderly'
p4174
asg14
I0
sg15
(lp4175
sg17
g4172
sg18
I00
sg19
I00
sg20
I0
sg21
g4174
sba(isimile
Simile
p4176
(dp4177
g3
Nsg4
S'as disorderly as a bank'
p4178
sg6
(lp4179
S'bank'
p4180
asg9
g10
sg11
(lp4181
S'disorderly'
p4182
asg14
I0
sg15
(lp4183
sg17
g4180
sg18
I00
sg19
I00
sg20
I0
sg21
g4182
sba(isimile
Simile
p4184
(dp4185
g3
Nsg4
S'as disorderly as a golf_course'
p4186
sg6
(lp4187
S'golf_course'
p4188
asg9
g10
sg11
(lp4189
S'disorderly'
p4190
asg14
I0
sg15
(lp4191
sg17
g4188
sg18
I00
sg19
I00
sg20
I0
sg21
g4190
sba(isimile
Simile
p4192
(dp4193
g3
Nsg4
S'as disorderly as a card_catalogue'
p4194
sg6
(lp4195
S'card_catalogue'
p4196
asg9
g10
sg11
(lp4197
S'disorderly'
p4198
asg14
I0
sg15
(lp4199
sg17
g4196
sg18
I00
sg19
I00
sg20
I0
sg21
g4198
sba(isimile
Simile
p4200
(dp4201
g3
Nsg4
S'as disorderly as a lattice'
p4202
sg6
(lp4203
S'lattice'
p4204
asg9
g10
sg11
(lp4205
S'disorderly'
p4206
asg14
I0
sg15
(lp4207
sg17
g4204
sg18
I00
sg19
I00
sg20
I0
sg21
g4206
sba(isimile
Simile
p4208
(dp4209
g3
Nsg4
S'as disorderly as a honeycomb'
p4210
sg6
(lp4211
S'honeycomb'
p4212
asg9
g10
sg11
(lp4213
S'disorderly'
p4214
asg14
I0
sg15
(lp4215
sg17
g4212
sg18
I00
sg19
I00
sg20
I0
sg21
g4214
sba(isimile
Simile
p4216
(dp4217
g3
Nsg4
S'as disorderly as a quadrille'
p4218
sg6
(lp4219
S'quadrille'
p4220
asg9
g10
sg11
(lp4221
S'disorderly'
p4222
asg14
I0
sg15
(lp4223
sg17
g4220
sg18
I00
sg19
I00
sg20
I0
sg21
g4222
sba(isimile
Simile
p4224
(dp4225
g3
Nsg4
S'as disorderly as a checker_board'
p4226
sg6
(lp4227
S'checker_board'
p4228
asg9
g10
sg11
(lp4229
S'disorderly'
p4230
asg14
I0
sg15
(lp4231
sg17
g4228
sg18
I00
sg19
I00
sg20
I0
sg21
g4230
sba(isimile
Simile
p4232
(dp4233
g3
Nsg4
S'as disorderly as a polka_dot'
p4234
sg6
(lp4235
S'polka_dot'
p4236
asg9
g10
sg11
(lp4237
S'disorderly'
p4238
asg14
I0
sg15
(lp4239
sg17
g4236
sg18
I00
sg19
I00
sg20
I0
sg21
g4238
sba(isimile
Simile
p4240
(dp4241
g3
Nsg4
S'as disorderly as a labyrinth'
p4242
sg6
(lp4243
S'labyrinth'
p4244
asg9
g10
sg11
(lp4245
S'disorderly'
p4246
asg14
I0
sg15
(lp4247
sg17
g4244
sg18
I00
sg19
I00
sg20
I0
sg21
g4246
sba(isimile
Simile
p4248
(dp4249
g3
Nsg4
S'as disorderly as a stampede'
p4250
sg6
(lp4251
S'stampede'
p4252
asg9
g10
sg11
(lp4253
S'disorderly'
p4254
asg14
I0
sg15
(lp4255
sg17
g4252
sg18
I00
sg19
I00
sg20
I0
sg21
g4254
sba(isimile
Simile
p4256
(dp4257
g3
Nsg4
S'as untempered as a harlot'
p4258
sg6
(lp4259
S'harlot'
p4260
asg9
g10
sg11
(lp4261
S'untempered'
p4262
asg14
I0
sg15
(lp4263
sg17
g4260
sg18
I00
sg19
I00
sg20
I0
sg21
g4262
sba(isimile
Simile
p4264
(dp4265
g3
Nsg4
S'as untempered as a new_york'
p4266
sg6
(lp4267
S'new_york'
p4268
asg9
g10
sg11
(lp4269
S'untempered'
p4270
asg14
I0
sg15
(lp4271
sg17
g4268
sg18
I00
sg19
I00
sg20
I0
sg21
g4270
sba(isimile
Simile
p4272
(dp4273
g3
Nsg4
S'as incidental as a toothbrush'
p4274
sg6
(lp4275
S'toothbrush'
p4276
asg9
g10
sg11
(lp4277
S'incidental'
p4278
asg14
I0
sg15
(lp4279
sg17
g4276
sg18
I00
sg19
I00
sg20
I0
sg21
g4278
sba(isimile
Simile
p4280
(dp4281
g3
Nsg4
S'as incidental as a flashlight'
p4282
sg6
(lp4283
S'flashlight'
p4284
asg9
g10
sg11
(lp4285
S'incidental'
p4286
asg14
I0
sg15
(lp4287
sg17
g4284
sg18
I00
sg19
I00
sg20
I0
sg21
g4286
sba(isimile
Simile
p4288
(dp4289
g3
Nsg4
S'as incidental as a bed'
p4290
sg6
(lp4291
S'bed'
p4292
asg9
g10
sg11
(lp4293
S'incidental'
p4294
asg14
I0
sg15
(lp4295
sg17
g4292
sg18
I00
sg19
I00
sg20
I0
sg21
g4294
sba(isimile
Simile
p4296
(dp4297
g3
Nsg4
S'as incidental as a bedroom'
p4298
sg6
(lp4299
S'bedroom'
p4300
asg9
g10
sg11
(lp4301
S'incidental'
p4302
asg14
I0
sg15
(lp4303
sg17
g4300
sg18
I00
sg19
I00
sg20
I0
sg21
g4302
sba(isimile
Simile
p4304
(dp4305
g3
Nsg4
S'as robust as a dove'
p4306
sg6
(lp4307
S'dove'
p4308
asg9
g10
sg11
(lp4309
S'robust'
p4310
asg14
I0
sg15
(lp4311
sg17
g4308
sg18
I00
sg19
I00
sg20
I0
sg21
g4310
sba(isimile
Simile
p4312
(dp4313
g3
Nsg4
S'as robust as a butterfly'
p4314
sg6
(lp4315
S'butterfly'
p4316
asg9
g10
sg11
(lp4317
S'robust'
p4318
asg14
I0
sg15
(lp4319
sg17
g4316
sg18
I00
sg19
I00
sg20
I0
sg21
g4318
sba(isimile
Simile
p4320
(dp4321
g3
Nsg4
S'as robust as a daffodil'
p4322
sg6
(lp4323
S'daffodil'
p4324
asg9
g10
sg11
(lp4325
S'robust'
p4326
asg14
I0
sg15
(lp4327
sg17
g4324
sg18
I00
sg19
I00
sg20
I0
sg21
g4326
sba(isimile
Simile
p4328
(dp4329
g3
Nsg4
S'as robust as a flower'
p4330
sg6
(lp4331
S'flower'
p4332
asg9
g10
sg11
(lp4333
S'robust'
p4334
asg14
I0
sg15
(lp4335
sg17
g4332
sg18
I00
sg19
I00
sg20
I0
sg21
g4334
sba(isimile
Simile
p4336
(dp4337
g3
Nsg4
S'as robust as a mayfly'
p4338
sg6
(lp4339
S'mayfly'
p4340
asg9
g10
sg11
(lp4341
S'robust'
p4342
asg14
I0
sg15
(lp4343
sg17
g4340
sg18
I00
sg19
I00
sg20
I0
sg21
g4342
sba(isimile
Simile
p4344
(dp4345
g3
Nsg4
S'as robust as a bubble'
p4346
sg6
(lp4347
S'bubble'
p4348
asg9
g10
sg11
(lp4349
S'robust'
p4350
asg14
I0
sg15
(lp4351
sg17
g4348
sg18
I00
sg19
I00
sg20
I0
sg21
g4350
sba(isimile
Simile
p4352
(dp4353
g3
Nsg4
S'as robust as a snowflake'
p4354
sg6
(lp4355
S'snowflake'
p4356
asg9
g10
sg11
(lp4357
S'robust'
p4358
asg14
I0
sg15
(lp4359
sg17
g4356
sg18
I00
sg19
I00
sg20
I0
sg21
g4358
sba(isimile
Simile
p4360
(dp4361
g3
Nsg4
S'as robust as a reed'
p4362
sg6
(lp4363
S'reed'
p4364
asg9
g10
sg11
(lp4365
S'robust'
p4366
asg14
I0
sg15
(lp4367
sg17
g4364
sg18
I00
sg19
I00
sg20
I0
sg21
g4366
sba(isimile
Simile
p4368
(dp4369
g3
Nsg4
S'as robust as a snail'
p4370
sg6
(lp4371
S'snail'
p4372
asg9
g10
sg11
(lp4373
S'robust'
p4374
asg14
I0
sg15
(lp4375
sg17
g4372
sg18
I00
sg19
I00
sg20
I0
sg21
g4374
sba(isimile
Simile
p4376
(dp4377
g3
Nsg4
S'as robust as a baby_bird'
p4378
sg6
(lp4379
S'baby_bird'
p4380
asg9
g10
sg11
(lp4381
S'robust'
p4382
asg14
I0
sg15
(lp4383
sg17
g4380
sg18
I00
sg19
I00
sg20
I0
sg21
g4382
sba(isimile
Simile
p4384
(dp4385
g3
Nsg4
S'as robust as a snowdrop'
p4386
sg6
(lp4387
S'snowdrop'
p4388
asg9
g10
sg11
(lp4389
S'robust'
p4390
asg14
I0
sg15
(lp4391
sg17
g4388
sg18
I00
sg19
I00
sg20
I0
sg21
g4390
sba(isimile
Simile
p4392
(dp4393
g3
Nsg4
S'as robust as a feather'
p4394
sg6
(lp4395
S'feather'
p4396
asg9
g10
sg11
(lp4397
S'robust'
p4398
asg14
I0
sg15
(lp4399
sg17
g4396
sg18
I00
sg19
I00
sg20
I0
sg21
g4398
sba(isimile
Simile
p4400
(dp4401
g3
Nsg4
S'as robust as a foetus'
p4402
sg6
(lp4403
S'foetus'
p4404
asg9
g10
sg11
(lp4405
S'robust'
p4406
asg14
I0
sg15
(lp4407
sg17
g4404
sg18
I00
sg19
I00
sg20
I0
sg21
g4406
sba(isimile
Simile
p4408
(dp4409
g3
Nsg4
S"as robust as a willo'thewisp"
p4410
sg6
(lp4411
S"willo'thewisp"
p4412
asg9
g10
sg11
(lp4413
S'robust'
p4414
asg14
I0
sg15
(lp4415
sg17
g4412
sg18
I00
sg19
I00
sg20
I0
sg21
g4414
sba(isimile
Simile
p4416
(dp4417
g3
Nsg4
S'as robust as a potato_chip'
p4418
sg6
(lp4419
S'potato_chip'
p4420
asg9
g10
sg11
(lp4421
S'robust'
p4422
asg14
I0
sg15
(lp4423
sg17
g4420
sg18
I00
sg19
I00
sg20
I0
sg21
g4422
sba(isimile
Simile
p4424
(dp4425
g3
Nsg4
S'as robust as a rag_doll'
p4426
sg6
(lp4427
S'rag_doll'
p4428
asg9
g10
sg11
(lp4429
S'robust'
p4430
asg14
I0
sg15
(lp4431
sg17
g4428
sg18
I00
sg19
I00
sg20
I0
sg21
g4430
sba(isimile
Simile
p4432
(dp4433
g3
Nsg4
S'as robust as a sparrow'
p4434
sg6
(lp4435
S'sparrow'
p4436
asg9
g10
sg11
(lp4437
S'robust'
p4438
asg14
I0
sg15
(lp4439
sg17
g4436
sg18
I00
sg19
I00
sg20
I0
sg21
g4438
sba(isimile
Simile
p4440
(dp4441
g3
Nsg4
S'as robust as a supermodel'
p4442
sg6
(lp4443
S'supermodel'
p4444
asg9
g10
sg11
(lp4445
S'robust'
p4446
asg14
I0
sg15
(lp4447
sg17
g4444
sg18
I00
sg19
I00
sg20
I0
sg21
g4446
sba(isimile
Simile
p4448
(dp4449
g3
Nsg4
S'as formed as a babe'
p4450
sg6
(lp4451
S'babe'
p4452
asg9
g10
sg11
(lp4453
S'formed'
p4454
asg14
I0
sg15
(lp4455
sg17
g4452
sg18
I00
sg19
I00
sg20
I0
sg21
g4454
sba(isimile
Simile
p4456
(dp4457
g3
Nsg4
S'as formed as a newborn'
p4458
sg6
(lp4459
S'newborn'
p4460
asg9
g10
sg11
(lp4461
S'formed'
p4462
asg14
I0
sg15
(lp4463
sg17
g4460
sg18
I00
sg19
I00
sg20
I0
sg21
g4462
sba(isimile
Simile
p4464
(dp4465
g3
Nsg4
S'as relaxed as an alley_cat'
p4466
sg6
(lp4467
S'alley_cat'
p4468
asg9
g67
sg11
(lp4469
S'relaxed'
p4470
asg14
I0
sg15
(lp4471
sg17
g4468
sg18
I00
sg19
I00
sg20
I0
sg21
g4470
sba(isimile
Simile
p4472
(dp4473
g3
Nsg4
S'as relaxed as a cat'
p4474
sg6
(lp4475
S'cat'
p4476
asg9
g10
sg11
(lp4477
S'relaxed'
p4478
asg14
I0
sg15
(lp4479
sg17
g4476
sg18
I00
sg19
I00
sg20
I0
sg21
g4478
sba(isimile
Simile
p4480
(dp4481
g3
Nsg4
S'as relaxed as a bow'
p4482
sg6
(lp4483
S'bow'
p4484
asg9
g10
sg11
(lp4485
S'relaxed'
p4486
asg14
I0
sg15
(lp4487
sg17
g4484
sg18
I00
sg19
I00
sg20
I0
sg21
g4486
sba(isimile
Simile
p4488
(dp4489
g3
Nsg4
S'as relaxed as a tightrope'
p4490
sg6
(lp4491
S'tightrope'
p4492
asg9
g10
sg11
(lp4493
S'relaxed'
p4494
asg14
I0
sg15
(lp4495
sg17
g4492
sg18
I00
sg19
I00
sg20
I0
sg21
g4494
sba(isimile
Simile
p4496
(dp4497
g3
Nsg4
S'as relaxed as a fist'
p4498
sg6
(lp4499
S'fist'
p4500
asg9
g10
sg11
(lp4501
S'relaxed'
p4502
asg14
I0
sg15
(lp4503
sg17
g4500
sg18
I00
sg19
I00
sg20
I0
sg21
g4502
sba(isimile
Simile
p4504
(dp4505
g3
Nsg4
S'as relaxed as a fight'
p4506
sg6
(lp4507
S'fight'
p4508
asg9
g10
sg11
(lp4509
S'relaxed'
p4510
asg14
I0
sg15
(lp4511
sg17
g4508
sg18
I00
sg19
I00
sg20
I0
sg21
g4510
sba(isimile
Simile
p4512
(dp4513
g3
Nsg4
S'as relaxed as a thriller'
p4514
sg6
(lp4515
S'thriller'
p4516
asg9
g10
sg11
(lp4517
S'relaxed'
p4518
asg14
I0
sg15
(lp4519
sg17
g4516
sg18
I00
sg19
I00
sg20
I0
sg21
g4518
sba(isimile
Simile
p4520
(dp4521
g3
Nsg4
S'as relaxed as a sunday_school'
p4522
sg6
(lp4523
S'sunday_school'
p4524
asg9
g10
sg11
(lp4525
S'relaxed'
p4526
asg14
I0
sg15
(lp4527
sg17
g4524
sg18
I00
sg19
I00
sg20
I0
sg21
g4526
sba(isimile
Simile
p4528
(dp4529
g3
Nsg4
S'as intangible as a statue'
p4530
sg6
(lp4531
S'statue'
p4532
asg9
g10
sg11
(lp4533
S'intangible'
p4534
asg14
I0
sg15
(lp4535
sg17
g4532
sg18
I00
sg19
I00
sg20
I0
sg21
g4534
sba(isimile
Simile
p4536
(dp4537
g3
Nsg4
S'as intangible as a prototype'
p4538
sg6
(lp4539
S'prototype'
p4540
asg9
g10
sg11
(lp4541
S'intangible'
p4542
asg14
I0
sg15
(lp4543
sg17
g4540
sg18
I00
sg19
I00
sg20
I0
sg21
g4542
sba(isimile
Simile
p4544
(dp4545
g3
Nsg4
S'as intangible as a toothache'
p4546
sg6
(lp4547
S'toothache'
p4548
asg9
g10
sg11
(lp4549
S'intangible'
p4550
asg14
I0
sg15
(lp4551
sg17
g4548
sg18
I00
sg19
I00
sg20
I0
sg21
g4550
sba(isimile
Simile
p4552
(dp4553
g3
Nsg4
S'as dull as a tack'
p4554
sg6
(lp4555
S'tack'
p4556
asg9
g10
sg11
(lp4557
S'dull'
p4558
asg14
I0
sg15
(lp4559
sg17
g4556
sg18
I00
sg19
I00
sg20
I0
sg21
g4558
sba(isimile
Simile
p4560
(dp4561
g3
Nsg4
S'as dull as a razor'
p4562
sg6
(lp4563
S'razor'
p4564
asg9
g10
sg11
(lp4565
S'dull'
p4566
asg14
I0
sg15
(lp4567
sg17
g4564
sg18
I00
sg19
I00
sg20
I0
sg21
g4566
sba(isimile
Simile
p4568
(dp4569
g3
Nsg4
S'as dull as a dagger'
p4570
sg6
(lp4571
S'dagger'
p4572
asg9
g10
sg11
(lp4573
S'dull'
p4574
asg14
I0
sg15
(lp4575
sg17
g4572
sg18
I00
sg19
I00
sg20
I0
sg21
g4574
sba(isimile
Simile
p4576
(dp4577
g3
Nsg4
S'as dull as a scalpel'
p4578
sg6
(lp4579
S'scalpel'
p4580
asg9
g10
sg11
(lp4581
S'dull'
p4582
asg14
I0
sg15
(lp4583
sg17
g4580
sg18
I00
sg19
I00
sg20
I0
sg21
g4582
sba(isimile
Simile
p4584
(dp4585
g3
Nsg4
S'as dull as a switchblade'
p4586
sg6
(lp4587
S'switchblade'
p4588
asg9
g10
sg11
(lp4589
S'dull'
p4590
asg14
I0
sg15
(lp4591
sg17
g4588
sg18
I00
sg19
I00
sg20
I0
sg21
g4590
sba(isimile
Simile
p4592
(dp4593
g3
Nsg4
S'as dull as a dart'
p4594
sg6
(lp4595
S'dart'
p4596
asg9
g10
sg11
(lp4597
S'dull'
p4598
asg14
I0
sg15
(lp4599
sg17
g4596
sg18
I00
sg19
I00
sg20
I0
sg21
g4598
sba(isimile
Simile
p4600
(dp4601
g3
Nsg4
S'as dull as a needle'
p4602
sg6
(lp4603
S'needle'
p4604
asg9
g10
sg11
(lp4605
S'dull'
p4606
asg14
I0
sg15
(lp4607
sg17
g4604
sg18
I00
sg19
I00
sg20
I0
sg21
g4606
sba(isimile
Simile
p4608
(dp4609
g3
Nsg4
S'as dull as a stiletto'
p4610
sg6
(lp4611
S'stiletto'
p4612
asg9
g10
sg11
(lp4613
S'dull'
p4614
asg14
I0
sg15
(lp4615
sg17
g4612
sg18
I00
sg19
I00
sg20
I0
sg21
g4614
sba(isimile
Simile
p4616
(dp4617
g3
Nsg4
S'as dull as a knife'
p4618
sg6
(lp4619
S'knife'
p4620
asg9
g10
sg11
(lp4621
S'dull'
p4622
asg14
I0
sg15
(lp4623
sg17
g4620
sg18
I00
sg19
I00
sg20
I0
sg21
g4622
sba(isimile
Simile
p4624
(dp4625
g3
Nsg4
S'as dull as a rapier'
p4626
sg6
(lp4627
S'rapier'
p4628
asg9
g10
sg11
(lp4629
S'dull'
p4630
asg14
I0
sg15
(lp4631
sg17
g4628
sg18
I00
sg19
I00
sg20
I0
sg21
g4630
sba(isimile
Simile
p4632
(dp4633
g3
Nsg4
S'as dull as a stiletto_heel'
p4634
sg6
(lp4635
S'stiletto_heel'
p4636
asg9
g10
sg11
(lp4637
S'dull'
p4638
asg14
I0
sg15
(lp4639
sg17
g4636
sg18
I00
sg19
I00
sg20
I0
sg21
g4638
sba(isimile
Simile
p4640
(dp4641
g3
Nsg4
S'as dull as a spear'
p4642
sg6
(lp4643
S'spear'
p4644
asg9
g10
sg11
(lp4645
S'dull'
p4646
asg14
I0
sg15
(lp4647
sg17
g4644
sg18
I00
sg19
I00
sg20
I0
sg21
g4646
sba(isimile
Simile
p4648
(dp4649
g3
Nsg4
S'as dull as a scythe'
p4650
sg6
(lp4651
S'scythe'
p4652
asg9
g10
sg11
(lp4653
S'dull'
p4654
asg14
I0
sg15
(lp4655
sg17
g4652
sg18
I00
sg19
I00
sg20
I0
sg21
g4654
sba(isimile
Simile
p4656
(dp4657
g3
Nsg4
S'as dull as a sword'
p4658
sg6
(lp4659
S'sword'
p4660
asg9
g10
sg11
(lp4661
S'dull'
p4662
asg14
I0
sg15
(lp4663
sg17
g4660
sg18
I00
sg19
I00
sg20
I0
sg21
g4662
sba(isimile
Simile
p4664
(dp4665
g3
Nsg4
S'as dull as a blade'
p4666
sg6
(lp4667
S'blade'
p4668
asg9
g10
sg11
(lp4669
S'dull'
p4670
asg14
I0
sg15
(lp4671
sg17
g4668
sg18
I00
sg19
I00
sg20
I0
sg21
g4670
sba(isimile
Simile
p4672
(dp4673
g3
Nsg4
S'as dull as a steel_trap'
p4674
sg6
(lp4675
S'steel_trap'
p4676
asg9
g10
sg11
(lp4677
S'dull'
p4678
asg14
I0
sg15
(lp4679
sg17
g4676
sg18
I00
sg19
I00
sg20
I0
sg21
g4678
sba(isimile
Simile
p4680
(dp4681
g3
Nsg4
S'as dull as a carving_knife'
p4682
sg6
(lp4683
S'carving_knife'
p4684
asg9
g10
sg11
(lp4685
S'dull'
p4686
asg14
I0
sg15
(lp4687
sg17
g4684
sg18
I00
sg19
I00
sg20
I0
sg21
g4686
sba(isimile
Simile
p4688
(dp4689
g3
Nsg4
S'as dull as a hawk'
p4690
sg6
(lp4691
S'hawk'
p4692
asg9
g10
sg11
(lp4693
S'dull'
p4694
asg14
I0
sg15
(lp4695
sg17
g4692
sg18
I00
sg19
I00
sg20
I0
sg21
g4694
sba(isimile
Simile
p4696
(dp4697
g3
Nsg4
S'as dull as an axe'
p4698
sg6
(lp4699
S'axe'
p4700
asg9
g67
sg11
(lp4701
S'dull'
p4702
asg14
I0
sg15
(lp4703
sg17
g4700
sg18
I00
sg19
I00
sg20
I0
sg21
g4702
sba(isimile
Simile
p4704
(dp4705
g3
Nsg4
S'as dull as a lens'
p4706
sg6
(lp4707
S'lens'
p4708
asg9
g10
sg11
(lp4709
S'dull'
p4710
asg14
I0
sg15
(lp4711
sg17
g4708
sg18
I00
sg19
I00
sg20
I0
sg21
g4710
sba(isimile
Simile
p4712
(dp4713
g3
Nsg4
S'as dull as an awl'
p4714
sg6
(lp4715
S'awl'
p4716
asg9
g67
sg11
(lp4717
S'dull'
p4718
asg14
I0
sg15
(lp4719
sg17
g4716
sg18
I00
sg19
I00
sg20
I0
sg21
g4718
sba(isimile
Simile
p4720
(dp4721
g3
Nsg4
S'as dull as a razorblade'
p4722
sg6
(lp4723
S'razorblade'
p4724
asg9
g10
sg11
(lp4725
S'dull'
p4726
asg14
I0
sg15
(lp4727
sg17
g4724
sg18
I00
sg19
I00
sg20
I0
sg21
g4726
sba(isimile
Simile
p4728
(dp4729
g3
Nsg4
S'as dull as a pin'
p4730
sg6
(lp4731
S'pin'
p4732
asg9
g10
sg11
(lp4733
S'dull'
p4734
asg14
I0
sg15
(lp4735
sg17
g4732
sg18
I00
sg19
I00
sg20
I0
sg21
g4734
sba(isimile
Simile
p4736
(dp4737
g3
Nsg4
S'as dull as a whip'
p4738
sg6
(lp4739
S'whip'
p4740
asg9
g10
sg11
(lp4741
S'dull'
p4742
asg14
I0
sg15
(lp4743
sg17
g4740
sg18
I00
sg19
I00
sg20
I0
sg21
g4742
sba(isimile
Simile
p4744
(dp4745
g3
Nsg4
S'as dull as a meat_cleaver'
p4746
sg6
(lp4747
S'meat_cleaver'
p4748
asg9
g10
sg11
(lp4749
S'dull'
p4750
asg14
I0
sg15
(lp4751
sg17
g4748
sg18
I00
sg19
I00
sg20
I0
sg21
g4750
sba(isimile
Simile
p4752
(dp4753
g3
Nsg4
S'as dull as a surgeon'
p4754
sg6
(lp4755
S'surgeon'
p4756
asg9
g10
sg11
(lp4757
S'dull'
p4758
asg14
I0
sg15
(lp4759
sg17
g4756
sg18
I00
sg19
I00
sg20
I0
sg21
g4758
sba(isimile
Simile
p4760
(dp4761
g3
Nsg4
S'as dull as a laser'
p4762
sg6
(lp4763
S'laser'
p4764
asg9
g10
sg11
(lp4765
S'dull'
p4766
asg14
I0
sg15
(lp4767
sg17
g4764
sg18
I00
sg19
I00
sg20
I0
sg21
g4766
sba(isimile
Simile
p4768
(dp4769
g3
Nsg4
S'as dull as an icicle'
p4770
sg6
(lp4771
S'icicle'
p4772
asg9
g67
sg11
(lp4773
S'dull'
p4774
asg14
I0
sg15
(lp4775
sg17
g4772
sg18
I00
sg19
I00
sg20
I0
sg21
g4774
sba(isimile
Simile
p4776
(dp4777
g3
Nsg4
S'as dull as a serpent'
p4778
sg6
(lp4779
S'serpent'
p4780
asg9
g10
sg11
(lp4781
S'dull'
p4782
asg14
I0
sg15
(lp4783
sg17
g4780
sg18
I00
sg19
I00
sg20
I0
sg21
g4782
sba(isimile
Simile
p4784
(dp4785
g3
Nsg4
S'as dull as a machete'
p4786
sg6
(lp4787
S'machete'
p4788
asg9
g10
sg11
(lp4789
S'dull'
p4790
asg14
I0
sg15
(lp4791
sg17
g4788
sg18
I00
sg19
I00
sg20
I0
sg21
g4790
sba(isimile
Simile
p4792
(dp4793
g3
Nsg4
S'as dull as a steak_knife'
p4794
sg6
(lp4795
S'steak_knife'
p4796
asg9
g10
sg11
(lp4797
S'dull'
p4798
asg14
I0
sg15
(lp4799
sg17
g4796
sg18
I00
sg19
I00
sg20
I0
sg21
g4798
sba(isimile
Simile
p4800
(dp4801
g3
Nsg4
S'as dull as a scimitar'
p4802
sg6
(lp4803
S'scimitar'
p4804
asg9
g10
sg11
(lp4805
S'dull'
p4806
asg14
I0
sg15
(lp4807
sg17
g4804
sg18
I00
sg19
I00
sg20
I0
sg21
g4806
sba(isimile
Simile
p4808
(dp4809
g3
Nsg4
S'as dull as a pocketknife'
p4810
sg6
(lp4811
S'pocketknife'
p4812
asg9
g10
sg11
(lp4813
S'dull'
p4814
asg14
I0
sg15
(lp4815
sg17
g4812
sg18
I00
sg19
I00
sg20
I0
sg21
g4814
sba(isimile
Simile
p4816
(dp4817
g3
Nsg4
S'as dull as a thorn'
p4818
sg6
(lp4819
S'thorn'
p4820
asg9
g10
sg11
(lp4821
S'dull'
p4822
asg14
I0
sg15
(lp4823
sg17
g4820
sg18
I00
sg19
I00
sg20
I0
sg21
g4822
sba(isimile
Simile
p4824
(dp4825
g3
Nsg4
S'as dull as a wood_chisel'
p4826
sg6
(lp4827
S'wood_chisel'
p4828
asg9
g10
sg11
(lp4829
S'dull'
p4830
asg14
I0
sg15
(lp4831
sg17
g4828
sg18
I00
sg19
I00
sg20
I0
sg21
g4830
sba(isimile
Simile
p4832
(dp4833
g3
Nsg4
S'as dull as a pencil'
p4834
sg6
(lp4835
S'pencil'
p4836
asg9
g10
sg11
(lp4837
S'dull'
p4838
asg14
I0
sg15
(lp4839
sg17
g4836
sg18
I00
sg19
I00
sg20
I0
sg21
g4838
sba(isimile
Simile
p4840
(dp4841
g3
Nsg4
S'as dull as a shark'
p4842
sg6
(lp4843
S'shark'
p4844
asg9
g10
sg11
(lp4845
S'dull'
p4846
asg14
I0
sg15
(lp4847
sg17
g4844
sg18
I00
sg19
I00
sg20
I0
sg21
g4846
sba(isimile
Simile
p4848
(dp4849
g3
Nsg4
S'as dull as a knife_edge'
p4850
sg6
(lp4851
S'knife_edge'
p4852
asg9
g10
sg11
(lp4853
S'dull'
p4854
asg14
I0
sg15
(lp4855
sg17
g4852
sg18
I00
sg19
I00
sg20
I0
sg21
g4854
sba(isimile
Simile
p4856
(dp4857
g3
Nsg4
S'as dull as a cucumber'
p4858
sg6
(lp4859
S'cucumber'
p4860
asg9
g10
sg11
(lp4861
S'dull'
p4862
asg14
I0
sg15
(lp4863
sg17
g4860
sg18
I00
sg19
I00
sg20
I0
sg21
g4862
sba(isimile
Simile
p4864
(dp4865
g3
Nsg4
S'as dull as a hatchet'
p4866
sg6
(lp4867
S'hatchet'
p4868
asg9
g10
sg11
(lp4869
S'dull'
p4870
asg14
I0
sg15
(lp4871
sg17
g4868
sg18
I00
sg19
I00
sg20
I0
sg21
g4870
sba(isimile
Simile
p4872
(dp4873
g3
Nsg4
S'as dull as a lemon'
p4874
sg6
(lp4875
S'lemon'
p4876
asg9
g10
sg11
(lp4877
S'dull'
p4878
asg14
I0
sg15
(lp4879
sg17
g4876
sg18
I00
sg19
I00
sg20
I0
sg21
g4878
sba(isimile
Simile
p4880
(dp4881
g3
Nsg4
S'as dull as a pocket_knife'
p4882
sg6
(lp4883
S'pocket_knife'
p4884
asg9
g10
sg11
(lp4885
S'dull'
p4886
asg14
I0
sg15
(lp4887
sg17
g4884
sg18
I00
sg19
I00
sg20
I0
sg21
g4886
sba(isimile
Simile
p4888
(dp4889
g3
Nsg4
S'as dull as a wasp'
p4890
sg6
(lp4891
S'wasp'
p4892
asg9
g10
sg11
(lp4893
S'dull'
p4894
asg14
I0
sg15
(lp4895
sg17
g4892
sg18
I00
sg19
I00
sg20
I0
sg21
g4894
sba(isimile
Simile
p4896
(dp4897
g3
Nsg4
S'as dull as a bowie_knife'
p4898
sg6
(lp4899
S'bowie_knife'
p4900
asg9
g10
sg11
(lp4901
S'dull'
p4902
asg14
I0
sg15
(lp4903
sg17
g4900
sg18
I00
sg19
I00
sg20
I0
sg21
g4902
sba(isimile
Simile
p4904
(dp4905
g3
Nsg4
S'as dull as a crystal'
p4906
sg6
(lp4907
S'crystal'
p4908
asg9
g10
sg11
(lp4909
S'dull'
p4910
asg14
I0
sg15
(lp4911
sg17
g4908
sg18
I00
sg19
I00
sg20
I0
sg21
g4910
sba(isimile
Simile
p4912
(dp4913
g3
Nsg4
S'as dull as a samurai'
p4914
sg6
(lp4915
S'samurai'
p4916
asg9
g10
sg11
(lp4917
S'dull'
p4918
asg14
I0
sg15
(lp4919
sg17
g4916
sg18
I00
sg19
I00
sg20
I0
sg21
g4918
sba(isimile
Simile
p4920
(dp4921
g3
Nsg4
S'as dull as a laser_printer'
p4922
sg6
(lp4923
S'laser_printer'
p4924
asg9
g10
sg11
(lp4925
S'dull'
p4926
asg14
I0
sg15
(lp4927
sg17
g4924
sg18
I00
sg19
I00
sg20
I0
sg21
g4926
sba(isimile
Simile
p4928
(dp4929
g3
Nsg4
S'as dull as a laser_beam'
p4930
sg6
(lp4931
S'laser_beam'
p4932
asg9
g10
sg11
(lp4933
S'dull'
p4934
asg14
I0
sg15
(lp4935
sg17
g4932
sg18
I00
sg19
I00
sg20
I0
sg21
g4934
sba(isimile
Simile
p4936
(dp4937
g3
Nsg4
S'as dull as a cutlass'
p4938
sg6
(lp4939
S'cutlass'
p4940
asg9
g10
sg11
(lp4941
S'dull'
p4942
asg14
I0
sg15
(lp4943
sg17
g4940
sg18
I00
sg19
I00
sg20
I0
sg21
g4942
sba(isimile
Simile
p4944
(dp4945
g3
Nsg4
S'as dull as a bee_sting'
p4946
sg6
(lp4947
S'bee_sting'
p4948
asg9
g10
sg11
(lp4949
S'dull'
p4950
asg14
I0
sg15
(lp4951
sg17
g4948
sg18
I00
sg19
I00
sg20
I0
sg21
g4950
sba(isimile
Simile
p4952
(dp4953
g3
Nsg4
S'as dull as an electron_microscope'
p4954
sg6
(lp4955
S'electron_microscope'
p4956
asg9
g67
sg11
(lp4957
S'dull'
p4958
asg14
I0
sg15
(lp4959
sg17
g4956
sg18
I00
sg19
I00
sg20
I0
sg21
g4958
sba(isimile
Simile
p4960
(dp4961
g3
Nsg4
S'as dull as a jaguar'
p4962
sg6
(lp4963
S'jaguar'
p4964
asg9
g10
sg11
(lp4965
S'dull'
p4966
asg14
I0
sg15
(lp4967
sg17
g4964
sg18
I00
sg19
I00
sg20
I0
sg21
g4966
sba(isimile
Simile
p4968
(dp4969
g3
Nsg4
S'as dull as a bobby_pin'
p4970
sg6
(lp4971
S'bobby_pin'
p4972
asg9
g10
sg11
(lp4973
S'dull'
p4974
asg14
I0
sg15
(lp4975
sg17
g4972
sg18
I00
sg19
I00
sg20
I0
sg21
g4974
sba(isimile
Simile
p4976
(dp4977
g3
Nsg4
S'as dull as a rifle_shot'
p4978
sg6
(lp4979
S'rifle_shot'
p4980
asg9
g10
sg11
(lp4981
S'dull'
p4982
asg14
I0
sg15
(lp4983
sg17
g4980
sg18
I00
sg19
I00
sg20
I0
sg21
g4982
sba(isimile
Simile
p4984
(dp4985
g3
Nsg4
S"as dull as a queen's_counsel"
p4986
sg6
(lp4987
S"queen's_counsel"
p4988
asg9
g10
sg11
(lp4989
S'dull'
p4990
asg14
I0
sg15
(lp4991
sg17
g4988
sg18
I00
sg19
I00
sg20
I0
sg21
g4990
sba(isimile
Simile
p4992
(dp4993
g3
Nsg4
S'as dull as a lance'
p4994
sg6
(lp4995
S'lance'
p4996
asg9
g10
sg11
(lp4997
S'dull'
p4998
asg14
I0
sg15
(lp4999
sg17
g4996
sg18
I00
sg19
I00
sg20
I0
sg21
g4998
sba(isimile
Simile
p5000
(dp5001
g3
Nsg4
S'as dull as a quill'
p5002
sg6
(lp5003
S'quill'
p5004
asg9
g10
sg11
(lp5005
S'dull'
p5006
asg14
I0
sg15
(lp5007
sg17
g5004
sg18
I00
sg19
I00
sg20
I0
sg21
g5006
sba(isimile
Simile
p5008
(dp5009
g3
Nsg4
S'as dull as a burr'
p5010
sg6
(lp5011
S'burr'
p5012
asg9
g10
sg11
(lp5013
S'dull'
p5014
asg14
I0
sg15
(lp5015
sg17
g5012
sg18
I00
sg19
I00
sg20
I0
sg21
g5014
sba(isimile
Simile
p5016
(dp5017
g3
Nsg4
S'as dull as a vixen'
p5018
sg6
(lp5019
S'vixen'
p5020
asg9
g10
sg11
(lp5021
S'dull'
p5022
asg14
I0
sg15
(lp5023
sg17
g5020
sg18
I00
sg19
I00
sg20
I0
sg21
g5022
sba(isimile
Simile
p5024
(dp5025
g3
Nsg4
S'as dull as an owl'
p5026
sg6
(lp5027
S'owl'
p5028
asg9
g67
sg11
(lp5029
S'dull'
p5030
asg14
I0
sg15
(lp5031
sg17
g5028
sg18
I00
sg19
I00
sg20
I0
sg21
g5030
sba(isimile
Simile
p5032
(dp5033
g3
Nsg4
S'as dull as an edge'
p5034
sg6
(lp5035
S'edge'
p5036
asg9
g67
sg11
(lp5037
S'dull'
p5038
asg14
I0
sg15
(lp5039
sg17
g5036
sg18
I00
sg19
I00
sg20
I0
sg21
g5038
sba(isimile
Simile
p5040
(dp5041
g3
Nsg4
S'as dull as a chisel'
p5042
sg6
(lp5043
S'chisel'
p5044
asg9
g10
sg11
(lp5045
S'dull'
p5046
asg14
I0
sg15
(lp5047
sg17
g5044
sg18
I00
sg19
I00
sg20
I0
sg21
g5046
sba(isimile
Simile
p5048
(dp5049
g3
Nsg4
S'as dull as a bayonet'
p5050
sg6
(lp5051
S'bayonet'
p5052
asg9
g10
sg11
(lp5053
S'dull'
p5054
asg14
I0
sg15
(lp5055
sg17
g5052
sg18
I00
sg19
I00
sg20
I0
sg21
g5054
sba(isimile
Simile
p5056
(dp5057
g3
Nsg4
S'as dull as a tooth'
p5058
sg6
(lp5059
S'tooth'
p5060
asg9
g10
sg11
(lp5061
S'dull'
p5062
asg14
I0
sg15
(lp5063
sg17
g5060
sg18
I00
sg19
I00
sg20
I0
sg21
g5062
sba(isimile
Simile
p5064
(dp5065
g3
Nsg4
S'as dull as a vulture'
p5066
sg6
(lp5067
S'vulture'
p5068
asg9
g10
sg11
(lp5069
S'dull'
p5070
asg14
I0
sg15
(lp5071
sg17
g5068
sg18
I00
sg19
I00
sg20
I0
sg21
g5070
sba(isimile
Simile
p5072
(dp5073
g3
Nsg4
S'as dull as a nail'
p5074
sg6
(lp5075
S'nail'
p5076
asg9
g10
sg11
(lp5077
S'dull'
p5078
asg14
I0
sg15
(lp5079
sg17
g5076
sg18
I00
sg19
I00
sg20
I0
sg21
g5078
sba(isimile
Simile
p5080
(dp5081
g3
Nsg4
S'as dull as a falcon'
p5082
sg6
(lp5083
S'falcon'
p5084
asg9
g10
sg11
(lp5085
S'dull'
p5086
asg14
I0
sg15
(lp5087
sg17
g5084
sg18
I00
sg19
I00
sg20
I0
sg21
g5086
sba(isimile
Simile
p5088
(dp5089
g3
Nsg4
S'as dull as a viper'
p5090
sg6
(lp5091
S'viper'
p5092
asg9
g10
sg11
(lp5093
S'dull'
p5094
asg14
I0
sg15
(lp5095
sg17
g5092
sg18
I00
sg19
I00
sg20
I0
sg21
g5094
sba(isimile
Simile
p5096
(dp5097
g3
Nsg4
S'as dull as a butcher_knife'
p5098
sg6
(lp5099
S'butcher_knife'
p5100
asg9
g10
sg11
(lp5101
S'dull'
p5102
asg14
I0
sg15
(lp5103
sg17
g5100
sg18
I00
sg19
I00
sg20
I0
sg21
g5102
sba(isimile
Simile
p5104
(dp5105
g3
Nsg4
S'as dull as an engraver'
p5106
sg6
(lp5107
S'engraver'
p5108
asg9
g67
sg11
(lp5109
S'dull'
p5110
asg14
I0
sg15
(lp5111
sg17
g5108
sg18
I00
sg19
I00
sg20
I0
sg21
g5110
sba(isimile
Simile
p5112
(dp5113
g3
Nsg4
S'as dull as a diamond'
p5114
sg6
(lp5115
S'diamond'
p5116
asg9
g10
sg11
(lp5117
S'dull'
p5118
asg14
I0
sg15
(lp5119
sg17
g5116
sg18
I00
sg19
I00
sg20
I0
sg21
g5118
sba(isimile
Simile
p5120
(dp5121
g3
Nsg4
S'as dull as a marble'
p5122
sg6
(lp5123
S'marble'
p5124
asg9
g10
sg11
(lp5125
S'dull'
p5126
asg14
I0
sg15
(lp5127
sg17
g5124
sg18
I00
sg19
I00
sg20
I0
sg21
g5126
sba(isimile
Simile
p5128
(dp5129
g3
Nsg4
S'as dull as a spoon'
p5130
sg6
(lp5131
S'spoon'
p5132
asg9
g10
sg11
(lp5133
S'dull'
p5134
asg14
S'5830'
p5135
sg15
(lp5136
sg17
g5132
sg18
I00
sg19
I00
sg20
S'2050'
p5137
sg21
g5134
sba(isimile
Simile
p5138
(dp5139
g3
Nsg4
S'as dull as a butter_knife'
p5140
sg6
(lp5141
S'butter_knife'
p5142
asg9
g10
sg11
(lp5143
S'dull'
p5144
asg14
S'1780'
p5145
sg15
(lp5146
sg17
g5142
sg18
I00
sg19
I00
sg20
S'689'
p5147
sg21
g5144
sba(isimile
Simile
p5148
(dp5149
g3
Nsg4
S'as dull as a mallet'
p5150
sg6
(lp5151
S'mallet'
p5152
asg9
g10
sg11
(lp5153
S'dull'
p5154
asg14
S'2'
p5155
sg15
(lp5156
sg17
g5152
sg18
I00
sg19
I00
sg20
g466
sg21
g5154
sba(isimile
Simile
p5157
(dp5158
g3
Nsg4
S'as dull as a beach_ball'
p5159
sg6
(lp5160
S'beach_ball'
p5161
asg9
g10
sg11
(lp5162
S'dull'
p5163
asg14
I0
sg15
(lp5164
sg17
g5161
sg18
I00
sg19
I00
sg20
I0
sg21
g5163
sba(isimile
Simile
p5165
(dp5166
g3
Nsg4
S'as dull as a bowling_ball'
p5167
sg6
(lp5168
S'bowling_ball'
p5169
asg9
g10
sg11
(lp5170
S'dull'
p5171
asg14
I0
sg15
(lp5172
sg17
g5169
sg18
I00
sg19
I00
sg20
I0
sg21
g5171
sba(isimile
Simile
p5173
(dp5174
g3
Nsg4
S'as dull as a donut'
p5175
sg6
(lp5176
S'donut'
p5177
asg9
g10
sg11
(lp5178
S'dull'
p5179
asg14
I0
sg15
(lp5180
sg17
g5177
sg18
I00
sg19
I00
sg20
I0
sg21
g5179
sba(isimile
Simile
p5181
(dp5182
g3
Nsg4
S'as dull as a pillow'
p5183
sg6
(lp5184
S'pillow'
p5185
asg9
g10
sg11
(lp5186
S'dull'
p5187
asg14
I0
sg15
(lp5188
sg17
g5185
sg18
I00
sg19
I00
sg20
I0
sg21
g5187
sba(isimile
Simile
p5189
(dp5190
g3
Nsg4
S'as dull as a hammer'
p5191
sg6
(lp5192
S'hammer'
p5193
asg9
g10
sg11
(lp5194
S'dull'
p5195
asg14
I0
sg15
(lp5196
sg17
g5193
sg18
I00
sg19
I00
sg20
I0
sg21
g5195
sba(isimile
Simile
p5197
(dp5198
g3
Nsg4
S'as dull as a mud_pie'
p5199
sg6
(lp5200
S'mud_pie'
p5201
asg9
g10
sg11
(lp5202
S'dull'
p5203
asg14
I0
sg15
(lp5204
sg17
g5201
sg18
I00
sg19
I00
sg20
I0
sg21
g5203
sba(isimile
Simile
p5205
(dp5206
g3
Nsg4
S'as dull as a marshmallow'
p5207
sg6
(lp5208
S'marshmallow'
p5209
asg9
g10
sg11
(lp5210
S'dull'
p5211
asg14
I0
sg15
(lp5212
sg17
g5209
sg18
I00
sg19
I00
sg20
I0
sg21
g5211
sba(isimile
Simile
p5213
(dp5214
g3
Nsg4
S'as dull as a spatula'
p5215
sg6
(lp5216
S'spatula'
p5217
asg9
g10
sg11
(lp5218
S'dull'
p5219
asg14
I0
sg15
(lp5220
sg17
g5217
sg18
I00
sg19
I00
sg20
I0
sg21
g5219
sba(isimile
Simile
p5221
(dp5222
g3
Nsg4
S'as dull as a balloon'
p5223
sg6
(lp5224
S'balloon'
p5225
asg9
g10
sg11
(lp5226
S'dull'
p5227
asg14
I0
sg15
(lp5228
sg17
g5225
sg18
I00
sg19
I00
sg20
I0
sg21
g5227
sba(isimile
Simile
p5229
(dp5230
g3
Nsg4
S'as dull as an armpit'
p5231
sg6
(lp5232
S'armpit'
p5233
asg9
g67
sg11
(lp5234
S'dull'
p5235
asg14
I0
sg15
(lp5236
sg17
g5233
sg18
I00
sg19
I00
sg20
I0
sg21
g5235
sba(isimile
Simile
p5237
(dp5238
g3
Nsg4
S'as dull as a zombie'
p5239
sg6
(lp5240
S'zombie'
p5241
asg9
g10
sg11
(lp5242
S'dull'
p5243
asg14
I0
sg15
(lp5244
sg17
g5241
sg18
I00
sg19
I00
sg20
I0
sg21
g5243
sba(isimile
Simile
p5245
(dp5246
g3
Nsg4
S'as dull as a doorknob'
p5247
sg6
(lp5248
S'doorknob'
p5249
asg9
g10
sg11
(lp5250
S'dull'
p5251
asg14
I0
sg15
(lp5252
sg17
g5249
sg18
I00
sg19
I00
sg20
I0
sg21
g5251
sba(isimile
Simile
p5253
(dp5254
g3
Nsg4
S'as dull as a banana'
p5255
sg6
(lp5256
S'banana'
p5257
asg9
g10
sg11
(lp5258
S'dull'
p5259
asg14
I0
sg15
(lp5260
sg17
g5257
sg18
I00
sg19
I00
sg20
I0
sg21
g5259
sba(isimile
Simile
p5261
(dp5262
g3
Nsg4
S'as dull as a potato'
p5263
sg6
(lp5264
S'potato'
p5265
asg9
g10
sg11
(lp5266
S'dull'
p5267
asg14
I0
sg15
(lp5268
sg17
g5265
sg18
I00
sg19
I00
sg20
I0
sg21
g5267
sba(isimile
Simile
p5269
(dp5270
g3
Nsg4
S'as dull as a sponge'
p5271
sg6
(lp5272
S'sponge'
p5273
asg9
g10
sg11
(lp5274
S'dull'
p5275
asg14
I0
sg15
(lp5276
sg17
g5273
sg18
I00
sg19
I00
sg20
I0
sg21
g5275
sba(isimile
Simile
p5277
(dp5278
g3
Nsg4
S'as dull as an automaton'
p5279
sg6
(lp5280
S'automaton'
p5281
asg9
g67
sg11
(lp5282
S'dull'
p5283
asg14
I0
sg15
(lp5284
sg17
g5281
sg18
I00
sg19
I00
sg20
I0
sg21
g5283
sba(isimile
Simile
p5285
(dp5286
g3
Nsg4
S'as dull as a watermelon'
p5287
sg6
(lp5288
S'watermelon'
p5289
asg9
g10
sg11
(lp5290
S'dull'
p5291
asg14
I0
sg15
(lp5292
sg17
g5289
sg18
I00
sg19
I00
sg20
I0
sg21
g5291
sba(isimile
Simile
p5293
(dp5294
g3
Nsg4
S'as dull as a meatball'
p5295
sg6
(lp5296
S'meatball'
p5297
asg9
g10
sg11
(lp5298
S'dull'
p5299
asg14
I0
sg15
(lp5300
sg17
g5297
sg18
I00
sg19
I00
sg20
I0
sg21
g5299
sba(isimile
Simile
p5301
(dp5302
g3
Nsg4
S'as dull as a ball_bearing'
p5303
sg6
(lp5304
S'ball_bearing'
p5305
asg9
g10
sg11
(lp5306
S'dull'
p5307
asg14
I0
sg15
(lp5308
sg17
g5305
sg18
I00
sg19
I00
sg20
I0
sg21
g5307
sba(isimile
Simile
p5309
(dp5310
g3
Nsg4
S'as dull as a meringue'
p5311
sg6
(lp5312
S'meringue'
p5313
asg9
g10
sg11
(lp5314
S'dull'
p5315
asg14
I0
sg15
(lp5316
sg17
g5313
sg18
I00
sg19
I00
sg20
I0
sg21
g5315
sba(isimile
Simile
p5317
(dp5318
g3
Nsg4
S'as dull as a cudgel'
p5319
sg6
(lp5320
S'cudgel'
p5321
asg9
g10
sg11
(lp5322
S'dull'
p5323
asg14
I0
sg15
(lp5324
sg17
g5321
sg18
I00
sg19
I00
sg20
I0
sg21
g5323
sba(isimile
Simile
p5325
(dp5326
g3
Nsg4
S'as dull as a butter'
p5327
sg6
(lp5328
S'butter'
p5329
asg9
g10
sg11
(lp5330
S'dull'
p5331
asg14
I0
sg15
(lp5332
sg17
g5329
sg18
I00
sg19
I00
sg20
I0
sg21
g5331
sba(isimile
Simile
p5333
(dp5334
g3
Nsg4
S'as dull as a teaspoon'
p5335
sg6
(lp5336
S'teaspoon'
p5337
asg9
g10
sg11
(lp5338
S'dull'
p5339
asg14
I0
sg15
(lp5340
sg17
g5337
sg18
I00
sg19
I00
sg20
I0
sg21
g5339
sba(isimile
Simile
p5341
(dp5342
g3
Nsg4
S'as dull as a soup_spoon'
p5343
sg6
(lp5344
S'soup_spoon'
p5345
asg9
g10
sg11
(lp5346
S'dull'
p5347
asg14
I0
sg15
(lp5348
sg17
g5345
sg18
I00
sg19
I00
sg20
I0
sg21
g5347
sba(isimile
Simile
p5349
(dp5350
g3
Nsg4
S'as dull as a brick'
p5351
sg6
(lp5352
S'brick'
p5353
asg9
g10
sg11
(lp5354
S'dull'
p5355
asg14
I0
sg15
(lp5356
sg17
g5353
sg18
I00
sg19
I00
sg20
I0
sg21
g5355
sba(isimile
Simile
p5357
(dp5358
g3
Nsg4
S'as dull as a dog_turd'
p5359
sg6
(lp5360
S'dog_turd'
p5361
asg9
g10
sg11
(lp5362
S'dull'
p5363
asg14
I0
sg15
(lp5364
sg17
g5361
sg18
I00
sg19
I00
sg20
I0
sg21
g5363
sba(isimile
Simile
p5365
(dp5366
g3
Nsg4
S'as juiceless as a melon'
p5367
sg6
(lp5368
S'melon'
p5369
asg9
g10
sg11
(lp5370
S'juiceless'
p5371
asg14
I0
sg15
(lp5372
sg17
g5369
sg18
I00
sg19
I00
sg20
I0
sg21
g5371
sba(isimile
Simile
p5373
(dp5374
g3
Nsg4
S'as juiceless as a porterhouse_steak'
p5375
sg6
(lp5376
S'porterhouse_steak'
p5377
asg9
g10
sg11
(lp5378
S'juiceless'
p5379
asg14
I0
sg15
(lp5380
sg17
g5377
sg18
I00
sg19
I00
sg20
I0
sg21
g5379
sba(isimile
Simile
p5381
(dp5382
g3
Nsg4
S'as juiceless as a watermelon'
p5383
sg6
(lp5384
S'watermelon'
p5385
asg9
g10
sg11
(lp5386
S'juiceless'
p5387
asg14
I0
sg15
(lp5388
sg17
g5385
sg18
I00
sg19
I00
sg20
I0
sg21
g5387
sba(isimile
Simile
p5389
(dp5390
g3
Nsg4
S'as juiceless as a peach'
p5391
sg6
(lp5392
S'peach'
p5393
asg9
g10
sg11
(lp5394
S'juiceless'
p5395
asg14
I0
sg15
(lp5396
sg17
g5393
sg18
I00
sg19
I00
sg20
I0
sg21
g5395
sba(isimile
Simile
p5397
(dp5398
g3
Nsg4
S'as juiceless as a lychee'
p5399
sg6
(lp5400
S'lychee'
p5401
asg9
g10
sg11
(lp5402
S'juiceless'
p5403
asg14
I0
sg15
(lp5404
sg17
g5401
sg18
I00
sg19
I00
sg20
I0
sg21
g5403
sba(isimile
Simile
p5405
(dp5406
g3
Nsg4
S'as juiceless as a plum'
p5407
sg6
(lp5408
S'plum'
p5409
asg9
g10
sg11
(lp5410
S'juiceless'
p5411
asg14
I0
sg15
(lp5412
sg17
g5409
sg18
I00
sg19
I00
sg20
I0
sg21
g5411
sba(isimile
Simile
p5413
(dp5414
g3
Nsg4
S'as juiceless as a tomato'
p5415
sg6
(lp5416
S'tomato'
p5417
asg9
g10
sg11
(lp5418
S'juiceless'
p5419
asg14
I0
sg15
(lp5420
sg17
g5417
sg18
I00
sg19
I00
sg20
I0
sg21
g5419
sba(isimile
Simile
p5421
(dp5422
g3
Nsg4
S'as juiceless as a nectarine'
p5423
sg6
(lp5424
S'nectarine'
p5425
asg9
g10
sg11
(lp5426
S'juiceless'
p5427
asg14
I0
sg15
(lp5428
sg17
g5425
sg18
I00
sg19
I00
sg20
I0
sg21
g5427
sba(isimile
Simile
p5429
(dp5430
g3
Nsg4
S'as juiceless as a filet_mignon'
p5431
sg6
(lp5432
S'filet_mignon'
p5433
asg9
g10
sg11
(lp5434
S'juiceless'
p5435
asg14
I0
sg15
(lp5436
sg17
g5433
sg18
I00
sg19
I00
sg20
I0
sg21
g5435
sba(isimile
Simile
p5437
(dp5438
g3
Nsg4
S'as juiceless as a steak'
p5439
sg6
(lp5440
S'steak'
p5441
asg9
g10
sg11
(lp5442
S'juiceless'
p5443
asg14
I0
sg15
(lp5444
sg17
g5441
sg18
I00
sg19
I00
sg20
I0
sg21
g5443
sba(isimile
Simile
p5445
(dp5446
g3
Nsg4
S'as juiceless as a strawberry'
p5447
sg6
(lp5448
S'strawberry'
p5449
asg9
g10
sg11
(lp5450
S'juiceless'
p5451
asg14
I0
sg15
(lp5452
sg17
g5449
sg18
I00
sg19
I00
sg20
I0
sg21
g5451
sba(isimile
Simile
p5453
(dp5454
g3
Nsg4
S'as juiceless as a grapefruit'
p5455
sg6
(lp5456
S'grapefruit'
p5457
asg9
g10
sg11
(lp5458
S'juiceless'
p5459
asg14
I0
sg15
(lp5460
sg17
g5457
sg18
I00
sg19
I00
sg20
I0
sg21
g5459
sba(isimile
Simile
p5461
(dp5462
g3
Nsg4
S'as juiceless as an apricot'
p5463
sg6
(lp5464
S'apricot'
p5465
asg9
g67
sg11
(lp5466
S'juiceless'
p5467
asg14
I0
sg15
(lp5468
sg17
g5465
sg18
I00
sg19
I00
sg20
I0
sg21
g5467
sba(isimile
Simile
p5469
(dp5470
g3
Nsg4
S'as juiceless as a banana'
p5471
sg6
(lp5472
S'banana'
p5473
asg9
g10
sg11
(lp5474
S'juiceless'
p5475
asg14
I0
sg15
(lp5476
sg17
g5473
sg18
I00
sg19
I00
sg20
I0
sg21
g5475
sba(isimile
Simile
p5477
(dp5478
g3
Nsg4
S'as green as a berry'
p5479
sg6
(lp5480
S'berry'
p5481
asg9
g10
sg11
(lp5482
S'green'
p5483
asg14
I0
sg15
(lp5484
sg17
g5481
sg18
I00
sg19
I00
sg20
I0
sg21
g5483
sba(isimile
Simile
p5485
(dp5486
g3
Nsg4
S'as green as a plum'
p5487
sg6
(lp5488
S'plum'
p5489
asg9
g10
sg11
(lp5490
S'green'
p5491
asg14
I0
sg15
(lp5492
sg17
g5489
sg18
I00
sg19
I00
sg20
I0
sg21
g5491
sba(isimile
Simile
p5493
(dp5494
g3
Nsg4
S'as green as a melon'
p5495
sg6
(lp5496
S'melon'
p5497
asg9
g10
sg11
(lp5498
S'green'
p5499
asg14
I0
sg15
(lp5500
sg17
g5497
sg18
I00
sg19
I00
sg20
I0
sg21
g5499
sba(isimile
Simile
p5501
(dp5502
g3
Nsg4
S'as green as a peach'
p5503
sg6
(lp5504
S'peach'
p5505
asg9
g10
sg11
(lp5506
S'green'
p5507
asg14
I0
sg15
(lp5508
sg17
g5505
sg18
I00
sg19
I00
sg20
I0
sg21
g5507
sba(isimile
Simile
p5509
(dp5510
g3
Nsg4
S'as green as a lover'
p5511
sg6
(lp5512
S'lover'
p5513
asg9
g10
sg11
(lp5514
S'green'
p5515
asg14
I0
sg15
(lp5516
sg17
g5513
sg18
I00
sg19
I00
sg20
I0
sg21
g5515
sba(isimile
Simile
p5517
(dp5518
g3
Nsg4
S'as green as a pumpkin'
p5519
sg6
(lp5520
S'pumpkin'
p5521
asg9
g10
sg11
(lp5522
S'green'
p5523
asg14
I0
sg15
(lp5524
sg17
g5521
sg18
I00
sg19
I00
sg20
I0
sg21
g5523
sba(isimile
Simile
p5525
(dp5526
g3
Nsg4
S'as green as a watermelon'
p5527
sg6
(lp5528
S'watermelon'
p5529
asg9
g10
sg11
(lp5530
S'green'
p5531
asg14
I0
sg15
(lp5532
sg17
g5529
sg18
I00
sg19
I00
sg20
I0
sg21
g5531
sba(isimile
Simile
p5533
(dp5534
g3
Nsg4
S'as green as a cucumber'
p5535
sg6
(lp5536
S'cucumber'
p5537
asg9
g10
sg11
(lp5538
S'green'
p5539
asg14
I0
sg15
(lp5540
sg17
g5537
sg18
I00
sg19
I00
sg20
I0
sg21
g5539
sba(isimile
Simile
p5541
(dp5542
g3
Nsg4
S'as green as a strawberry'
p5543
sg6
(lp5544
S'strawberry'
p5545
asg9
g10
sg11
(lp5546
S'green'
p5547
asg14
I0
sg15
(lp5548
sg17
g5545
sg18
I00
sg19
I00
sg20
I0
sg21
g5547
sba(isimile
Simile
p5549
(dp5550
g3
Nsg4
S'as green as a fruit'
p5551
sg6
(lp5552
S'fruit'
p5553
asg9
g10
sg11
(lp5554
S'green'
p5555
asg14
I0
sg15
(lp5556
sg17
g5553
sg18
I00
sg19
I00
sg20
I0
sg21
g5555
sba(isimile
Simile
p5557
(dp5558
g3
Nsg4
S'as green as a pippin'
p5559
sg6
(lp5560
S'pippin'
p5561
asg9
g10
sg11
(lp5562
S'green'
p5563
asg14
I0
sg15
(lp5564
sg17
g5561
sg18
I00
sg19
I00
sg20
I0
sg21
g5563
sba(isimile
Simile
p5565
(dp5566
g3
Nsg4
S'as green as a grape'
p5567
sg6
(lp5568
S'grape'
p5569
asg9
g10
sg11
(lp5570
S'green'
p5571
asg14
I0
sg15
(lp5572
sg17
g5569
sg18
I00
sg19
I00
sg20
I0
sg21
g5571
sba(isimile
Simile
p5573
(dp5574
g3
Nsg4
S'as green as a kumquat'
p5575
sg6
(lp5576
S'kumquat'
p5577
asg9
g10
sg11
(lp5578
S'green'
p5579
asg14
I0
sg15
(lp5580
sg17
g5577
sg18
I00
sg19
I00
sg20
I0
sg21
g5579
sba(isimile
Simile
p5581
(dp5582
g3
Nsg4
S'as unsexy as a thong'
p5583
sg6
(lp5584
S'thong'
p5585
asg9
g10
sg11
(lp5586
S'unsexy'
p5587
asg14
I0
sg15
(lp5588
sg17
g5585
sg18
I00
sg19
I00
sg20
I0
sg21
g5587
sba(isimile
Simile
p5589
(dp5590
g3
Nsg4
S'as unsexy as a doll'
p5591
sg6
(lp5592
S'doll'
p5593
asg9
g10
sg11
(lp5594
S'unsexy'
p5595
asg14
I0
sg15
(lp5596
sg17
g5593
sg18
I00
sg19
I00
sg20
I0
sg21
g5595
sba(isimile
Simile
p5597
(dp5598
g3
Nsg4
S'as unsexy as a cruise_missile'
p5599
sg6
(lp5600
S'cruise_missile'
p5601
asg9
g10
sg11
(lp5602
S'unsexy'
p5603
asg14
I0
sg15
(lp5604
sg17
g5601
sg18
I00
sg19
I00
sg20
I0
sg21
g5603
sba(isimile
Simile
p5605
(dp5606
g3
Nsg4
S'as unsexy as a striptease'
p5607
sg6
(lp5608
S'striptease'
p5609
asg9
g10
sg11
(lp5610
S'unsexy'
p5611
asg14
I0
sg15
(lp5612
sg17
g5609
sg18
I00
sg19
I00
sg20
I0
sg21
g5611
sba(isimile
Simile
p5613
(dp5614
g3
Nsg4
S'as unsexy as an aircraft_carrier'
p5615
sg6
(lp5616
S'aircraft_carrier'
p5617
asg9
g67
sg11
(lp5618
S'unsexy'
p5619
asg14
I0
sg15
(lp5620
sg17
g5617
sg18
I00
sg19
I00
sg20
I0
sg21
g5619
sba(isimile
Simile
p5621
(dp5622
g3
Nsg4
S'as unsexy as a corvette'
p5623
sg6
(lp5624
S'corvette'
p5625
asg9
g10
sg11
(lp5626
S'unsexy'
p5627
asg14
I0
sg15
(lp5628
sg17
g5625
sg18
I00
sg19
I00
sg20
I0
sg21
g5627
sba(isimile
Simile
p5629
(dp5630
g3
Nsg4
S'as unsexy as a cowboy'
p5631
sg6
(lp5632
S'cowboy'
p5633
asg9
g10
sg11
(lp5634
S'unsexy'
p5635
asg14
I0
sg15
(lp5636
sg17
g5633
sg18
I00
sg19
I00
sg20
I0
sg21
g5635
sba(isimile
Simile
p5637
(dp5638
g3
Nsg4
S'as unsexy as a dancer'
p5639
sg6
(lp5640
S'dancer'
p5641
asg9
g10
sg11
(lp5642
S'unsexy'
p5643
asg14
I0
sg15
(lp5644
sg17
g5641
sg18
I00
sg19
I00
sg20
I0
sg21
g5643
sba(isimile
Simile
p5645
(dp5646
g3
Nsg4
S'as unsexy as a chick'
p5647
sg6
(lp5648
S'chick'
p5649
asg9
g10
sg11
(lp5650
S'unsexy'
p5651
asg14
I0
sg15
(lp5652
sg17
g5649
sg18
I00
sg19
I00
sg20
I0
sg21
g5651
sba(isimile
Simile
p5653
(dp5654
g3
Nsg4
S'as unsexy as a bomber'
p5655
sg6
(lp5656
S'bomber'
p5657
asg9
g10
sg11
(lp5658
S'unsexy'
p5659
asg14
I0
sg15
(lp5660
sg17
g5657
sg18
I00
sg19
I00
sg20
I0
sg21
g5659
sba(isimile
Simile
p5661
(dp5662
g3
Nsg4
S'as unsexy as a peacock'
p5663
sg6
(lp5664
S'peacock'
p5665
asg9
g10
sg11
(lp5666
S'unsexy'
p5667
asg14
I0
sg15
(lp5668
sg17
g5665
sg18
I00
sg19
I00
sg20
I0
sg21
g5667
sba(isimile
Simile
p5669
(dp5670
g3
Nsg4
S'as unsexy as a master_bedroom'
p5671
sg6
(lp5672
S'master_bedroom'
p5673
asg9
g10
sg11
(lp5674
S'unsexy'
p5675
asg14
I0
sg15
(lp5676
sg17
g5673
sg18
I00
sg19
I00
sg20
I0
sg21
g5675
sba(isimile
Simile
p5677
(dp5678
g3
Nsg4
S'as unsexy as a sax'
p5679
sg6
(lp5680
S'sax'
p5681
asg9
g10
sg11
(lp5682
S'unsexy'
p5683
asg14
I0
sg15
(lp5684
sg17
g5681
sg18
I00
sg19
I00
sg20
I0
sg21
g5683
sba(isimile
Simile
p5685
(dp5686
g3
Nsg4
S'as unsexy as a tease'
p5687
sg6
(lp5688
S'tease'
p5689
asg9
g10
sg11
(lp5690
S'unsexy'
p5691
asg14
I0
sg15
(lp5692
sg17
g5689
sg18
I00
sg19
I00
sg20
I0
sg21
g5691
sba(isimile
Simile
p5693
(dp5694
g3
Nsg4
S'as unsexy as a lioness'
p5695
sg6
(lp5696
S'lioness'
p5697
asg9
g10
sg11
(lp5698
S'unsexy'
p5699
asg14
I0
sg15
(lp5700
sg17
g5697
sg18
I00
sg19
I00
sg20
I0
sg21
g5699
sba(isimile
Simile
p5701
(dp5702
g3
Nsg4
S'as unsexy as a hairball'
p5703
sg6
(lp5704
S'hairball'
p5705
asg9
g10
sg11
(lp5706
S'unsexy'
p5707
asg14
I0
sg15
(lp5708
sg17
g5705
sg18
I00
sg19
I00
sg20
I0
sg21
g5707
sba(isimile
Simile
p5709
(dp5710
g3
Nsg4
S'as unsexy as an engine_block'
p5711
sg6
(lp5712
S'engine_block'
p5713
asg9
g67
sg11
(lp5714
S'unsexy'
p5715
asg14
I0
sg15
(lp5716
sg17
g5713
sg18
I00
sg19
I00
sg20
I0
sg21
g5715
sba(isimile
Simile
p5717
(dp5718
g3
Nsg4
S'as unsexy as a file_cabinet'
p5719
sg6
(lp5720
S'file_cabinet'
p5721
asg9
g10
sg11
(lp5722
S'unsexy'
p5723
asg14
I0
sg15
(lp5724
sg17
g5721
sg18
I00
sg19
I00
sg20
I0
sg21
g5723
sba(isimile
Simile
p5725
(dp5726
g3
Nsg4
S'as unsexy as a dictionary'
p5727
sg6
(lp5728
S'dictionary'
p5729
asg9
g10
sg11
(lp5730
S'unsexy'
p5731
asg14
I0
sg15
(lp5732
sg17
g5729
sg18
I00
sg19
I00
sg20
I0
sg21
g5731
sba(isimile
Simile
p5733
(dp5734
g3
Nsg4
S'as unsexy as an oil_change'
p5735
sg6
(lp5736
S'oil_change'
p5737
asg9
g67
sg11
(lp5738
S'unsexy'
p5739
asg14
I0
sg15
(lp5740
sg17
g5737
sg18
I00
sg19
I00
sg20
I0
sg21
g5739
sba(isimile
Simile
p5741
(dp5742
g3
Nsg4
S'as unsexy as a head_cold'
p5743
sg6
(lp5744
S'head_cold'
p5745
asg9
g10
sg11
(lp5746
S'unsexy'
p5747
asg14
I0
sg15
(lp5748
sg17
g5745
sg18
I00
sg19
I00
sg20
I0
sg21
g5747
sba(isimile
Simile
p5749
(dp5750
g3
Nsg4
S'as unsexy as a ball_bearing'
p5751
sg6
(lp5752
S'ball_bearing'
p5753
asg9
g10
sg11
(lp5754
S'unsexy'
p5755
asg14
I0
sg15
(lp5756
sg17
g5753
sg18
I00
sg19
I00
sg20
I0
sg21
g5755
sba(isimile
Simile
p5757
(dp5758
g3
Nsg4
S'as unsexy as a stomach_pump'
p5759
sg6
(lp5760
S'stomach_pump'
p5761
asg9
g10
sg11
(lp5762
S'unsexy'
p5763
asg14
I0
sg15
(lp5764
sg17
g5761
sg18
I00
sg19
I00
sg20
I0
sg21
g5763
sba(isimile
Simile
p5765
(dp5766
g3
Nsg4
S'as unsexy as a ham_sandwich'
p5767
sg6
(lp5768
S'ham_sandwich'
p5769
asg9
g10
sg11
(lp5770
S'unsexy'
p5771
asg14
I0
sg15
(lp5772
sg17
g5769
sg18
I00
sg19
I00
sg20
I0
sg21
g5771
sba(isimile
Simile
p5773
(dp5774
g3
Nsg4
S'as unsexy as a sump_pump'
p5775
sg6
(lp5776
S'sump_pump'
p5777
asg9
g10
sg11
(lp5778
S'unsexy'
p5779
asg14
I0
sg15
(lp5780
sg17
g5777
sg18
I00
sg19
I00
sg20
I0
sg21
g5779
sba(isimile
Simile
p5781
(dp5782
g3
Nsg4
S'as unsexy as a cuckoo_clock'
p5783
sg6
(lp5784
S'cuckoo_clock'
p5785
asg9
g10
sg11
(lp5786
S'unsexy'
p5787
asg14
I0
sg15
(lp5788
sg17
g5785
sg18
I00
sg19
I00
sg20
I0
sg21
g5787
sba(isimile
Simile
p5789
(dp5790
g3
Nsg4
S'as unsexy as a potato'
p5791
sg6
(lp5792
S'potato'
p5793
asg9
g10
sg11
(lp5794
S'unsexy'
p5795
asg14
I0
sg15
(lp5796
sg17
g5793
sg18
I00
sg19
I00
sg20
I0
sg21
g5795
sba(isimile
Simile
p5797
(dp5798
g3
Nsg4
S'as unsexy as a plumber'
p5799
sg6
(lp5800
S'plumber'
p5801
asg9
g10
sg11
(lp5802
S'unsexy'
p5803
asg14
I0
sg15
(lp5804
sg17
g5801
sg18
I00
sg19
I00
sg20
I0
sg21
g5803
sba(isimile
Simile
p5805
(dp5806
g3
Nsg4
S'as unsexy as a date_rape'
p5807
sg6
(lp5808
S'date_rape'
p5809
asg9
g10
sg11
(lp5810
S'unsexy'
p5811
asg14
I0
sg15
(lp5812
sg17
g5809
sg18
I00
sg19
I00
sg20
I0
sg21
g5811
sba(isimile
Simile
p5813
(dp5814
g3
Nsg4
S'as unsexy as a skeleton'
p5815
sg6
(lp5816
S'skeleton'
p5817
asg9
g10
sg11
(lp5818
S'unsexy'
p5819
asg14
I0
sg15
(lp5820
sg17
g5817
sg18
I00
sg19
I00
sg20
I0
sg21
g5819
sba(isimile
Simile
p5821
(dp5822
g3
Nsg4
S'as unsexy as a dinosaur'
p5823
sg6
(lp5824
S'dinosaur'
p5825
asg9
g10
sg11
(lp5826
S'unsexy'
p5827
asg14
I0
sg15
(lp5828
sg17
g5825
sg18
I00
sg19
I00
sg20
I0
sg21
g5827
sba(isimile
Simile
p5829
(dp5830
g3
Nsg4
S'as unsexy as a turnip'
p5831
sg6
(lp5832
S'turnip'
p5833
asg9
g10
sg11
(lp5834
S'unsexy'
p5835
asg14
I0
sg15
(lp5836
sg17
g5833
sg18
I00
sg19
I00
sg20
I0
sg21
g5835
sba(isimile
Simile
p5837
(dp5838
g3
Nsg4
S'as unsexy as a mackerel'
p5839
sg6
(lp5840
S'mackerel'
p5841
asg9
g10
sg11
(lp5842
S'unsexy'
p5843
asg14
I0
sg15
(lp5844
sg17
g5841
sg18
I00
sg19
I00
sg20
I0
sg21
g5843
sba(isimile
Simile
p5845
(dp5846
g3
Nsg4
S'as unsexy as a stump'
p5847
sg6
(lp5848
S'stump'
p5849
asg9
g10
sg11
(lp5850
S'unsexy'
p5851
asg14
I0
sg15
(lp5852
sg17
g5849
sg18
I00
sg19
I00
sg20
I0
sg21
g5851
sba(isimile
Simile
p5853
(dp5854
g3
Nsg4
S'as unsexy as a mullet'
p5855
sg6
(lp5856
S'mullet'
p5857
asg9
g10
sg11
(lp5858
S'unsexy'
p5859
asg14
I0
sg15
(lp5860
sg17
g5857
sg18
I00
sg19
I00
sg20
I0
sg21
g5859
sba(isimile
Simile
p5861
(dp5862
g3
Nsg4
S'as thin as a pig'
p5863
sg6
(lp5864
S'pig'
p5865
asg9
g10
sg11
(lp5866
S'thin'
p5867
asg14
I0
sg15
(lp5868
sg17
g5865
sg18
I00
sg19
I00
sg20
I0
sg21
g5867
sba(isimile
Simile
p5869
(dp5870
g3
Nsg4
S'as thin as a cow'
p5871
sg6
(lp5872
S'cow'
p5873
asg9
g10
sg11
(lp5874
S'thin'
p5875
asg14
I0
sg15
(lp5876
sg17
g5873
sg18
I00
sg19
I00
sg20
I0
sg21
g5875
sba(isimile
Simile
p5877
(dp5878
g3
Nsg4
S'as thin as a hippopotamus'
p5879
sg6
(lp5880
S'hippopotamus'
p5881
asg9
g10
sg11
(lp5882
S'thin'
p5883
asg14
I0
sg15
(lp5884
sg17
g5881
sg18
I00
sg19
I00
sg20
I0
sg21
g5883
sba(isimile
Simile
p5885
(dp5886
g3
Nsg4
S'as thin as a sumo_wrestler'
p5887
sg6
(lp5888
S'sumo_wrestler'
p5889
asg9
g10
sg11
(lp5890
S'thin'
p5891
asg14
I0
sg15
(lp5892
sg17
g5889
sg18
I00
sg19
I00
sg20
I0
sg21
g5891
sba(isimile
Simile
p5893
(dp5894
g3
Nsg4
S'as thin as a sausage'
p5895
sg6
(lp5896
S'sausage'
p5897
asg9
g10
sg11
(lp5898
S'thin'
p5899
asg14
I0
sg15
(lp5900
sg17
g5897
sg18
I00
sg19
I00
sg20
I0
sg21
g5899
sba(isimile
Simile
p5901
(dp5902
g3
Nsg4
S'as thin as an elephant'
p5903
sg6
(lp5904
S'elephant'
p5905
asg9
g67
sg11
(lp5906
S'thin'
p5907
asg14
I0
sg15
(lp5908
sg17
g5905
sg18
I00
sg19
I00
sg20
I0
sg21
g5907
sba(isimile
Simile
p5909
(dp5910
g3
Nsg4
S'as thin as a ham'
p5911
sg6
(lp5912
S'ham'
p5913
asg9
g10
sg11
(lp5914
S'thin'
p5915
asg14
I0
sg15
(lp5916
sg17
g5913
sg18
I00
sg19
I00
sg20
I0
sg21
g5915
sba(isimile
Simile
p5917
(dp5918
g3
Nsg4
S'as thin as a hog'
p5919
sg6
(lp5920
S'hog'
p5921
asg9
g10
sg11
(lp5922
S'thin'
p5923
asg14
I0
sg15
(lp5924
sg17
g5921
sg18
I00
sg19
I00
sg20
I0
sg21
g5923
sba(isimile
Simile
p5925
(dp5926
g3
Nsg4
S'as thin as a panda'
p5927
sg6
(lp5928
S'panda'
p5929
asg9
g10
sg11
(lp5930
S'thin'
p5931
asg14
I0
sg15
(lp5932
sg17
g5929
sg18
I00
sg19
I00
sg20
I0
sg21
g5931
sba(isimile
Simile
p5933
(dp5934
g3
Nsg4
S'as thin as a suet_pudding'
p5935
sg6
(lp5936
S'suet_pudding'
p5937
asg9
g10
sg11
(lp5938
S'thin'
p5939
asg14
I0
sg15
(lp5940
sg17
g5937
sg18
I00
sg19
I00
sg20
I0
sg21
g5939
sba(isimile
Simile
p5941
(dp5942
g3
Nsg4
S'as thin as a monk'
p5943
sg6
(lp5944
S'monk'
p5945
asg9
g10
sg11
(lp5946
S'thin'
p5947
asg14
I0
sg15
(lp5948
sg17
g5945
sg18
I00
sg19
I00
sg20
I0
sg21
g5947
sba(isimile
Simile
p5949
(dp5950
g3
Nsg4
S'as thin as a walrus'
p5951
sg6
(lp5952
S'walrus'
p5953
asg9
g10
sg11
(lp5954
S'thin'
p5955
asg14
I0
sg15
(lp5956
sg17
g5953
sg18
I00
sg19
I00
sg20
I0
sg21
g5955
sba(isimile
Simile
p5957
(dp5958
g3
Nsg4
S'as thin as a barrel'
p5959
sg6
(lp5960
S'barrel'
p5961
asg9
g10
sg11
(lp5962
S'thin'
p5963
asg14
I0
sg15
(lp5964
sg17
g5961
sg18
I00
sg19
I00
sg20
I0
sg21
g5963
sba(isimile
Simile
p5965
(dp5966
g3
Nsg4
S'as thin as a pumpkin'
p5967
sg6
(lp5968
S'pumpkin'
p5969
asg9
g10
sg11
(lp5970
S'thin'
p5971
asg14
I0
sg15
(lp5972
sg17
g5969
sg18
I00
sg19
I00
sg20
I0
sg21
g5971
sba(isimile
Simile
p5973
(dp5974
g3
Nsg4
S'as thin as a suckling_pig'
p5975
sg6
(lp5976
S'suckling_pig'
p5977
asg9
g10
sg11
(lp5978
S'thin'
p5979
asg14
I0
sg15
(lp5980
sg17
g5977
sg18
I00
sg19
I00
sg20
I0
sg21
g5979
sba(isimile
Simile
p5981
(dp5982
g3
Nsg4
S'as thin as a pincushion'
p5983
sg6
(lp5984
S'pincushion'
p5985
asg9
g10
sg11
(lp5986
S'thin'
p5987
asg14
I0
sg15
(lp5988
sg17
g5985
sg18
I00
sg19
I00
sg20
I0
sg21
g5987
sba(isimile
Simile
p5989
(dp5990
g3
Nsg4
S'as thin as a phone_book'
p5991
sg6
(lp5992
S'phone_book'
p5993
asg9
g10
sg11
(lp5994
S'thin'
p5995
asg14
I0
sg15
(lp5996
sg17
g5993
sg18
I00
sg19
I00
sg20
I0
sg21
g5995
sba.