(lp0
(iironet.simile
Simile
p1
(dp2
S'name'
p3
S'as awkward as a swan'
p4
sS'vehicle_synonyms'
p5
(lp6
S'swan'
p7
asS'inverses'
p8
(lp9
sS'an'
p10
S'a '
p11
sS'ground_synonyms'
p12
(lp13
S'awkward'
p14
asS'frequency'
p15
S'4'
p16
sS'antonyms'
p17
(lp18
sS'vehicle'
p19
g7
sS'ironic'
p20
I00
sS'such_as'
p21
I00
sS'about_frequency'
p22
S'1'
p23
sS'ground'
p24
g14
sba(iironet.simile
Simile
p25
(dp26
g3
S'as awkward as a ballerina'
p27
sg5
(lp28
S'ballerina'
p29
asg8
(lp30
sg10
g11
sg12
(lp31
S'awkward'
p32
asg15
S'2'
p33
sg17
(lp34
sg19
g29
sg20
I00
sg21
I00
sg22
S'0'
p35
sg24
g32
sba(iironet.simile
Simile
p36
(dp37
g3
S'as awkward as a gazelle'
p38
sg5
(lp39
S'gazelle'
p40
asg8
(lp41
sg10
g11
sg12
(lp42
S'awkward'
p43
asg15
g16
sg17
(lp44
sg19
g40
sg20
I00
sg21
I00
sg22
g35
sg24
g43
sba(iironet.simile
Simile
p45
(dp46
g3
S'as awkward as a dancer'
p47
sg5
(lp48
S'dancer'
p49
asg8
(lp50
sg10
g11
sg12
(lp51
S'awkward'
p52
asg15
g33
sg17
(lp53
sg19
g49
sg20
I00
sg21
I00
sg22
g35
sg24
g52
sba(iironet.simile
Simile
p54
(dp55
g3
S'as awkward as a butterfly'
p56
sg5
(lp57
S'butterfly'
p58
asg8
(lp59
sg10
g11
sg12
(lp60
S'awkward'
p61
asg15
S'11000000'
p62
sg17
(lp63
sg19
g58
sg20
I00
sg21
I00
sg22
S'908000'
p64
sg24
g61
sba(iironet.simile
Simile
p65
(dp66
g3
S'as awkward as a cat'
p67
sg5
(lp68
S'cat'
p69
asg8
(lp70
sg10
g11
sg12
(lp71
S'awkward'
p72
asg15
S'5'
p73
sg17
(lp74
sg19
g69
sg20
I00
sg21
I00
sg22
g23
sg24
g72
sba(iironet.simile
Simile
p75
(dp76
g3
S'as awkward as a deer'
p77
sg5
(lp78
S'deer'
p79
asg8
(lp80
sg10
g11
sg12
(lp81
S'awkward'
p82
asg15
g23
sg17
(lp83
sg19
g79
sg20
I00
sg21
I00
sg22
g23
sg24
g82
sba(iironet.simile
Simile
p84
(dp85
g3
S'as awkward as a bird'
p86
sg5
(lp87
S'bird'
p88
asg8
(lp89
sg10
g11
sg12
(lp90
S'awkward'
p91
asg15
g23
sg17
(lp92
sg19
g88
sg20
I00
sg21
I00
sg22
g35
sg24
g91
sba(iironet.simile
Simile
p93
(dp94
g3
S'as awkward as a panther'
p95
sg5
(lp96
S'panther'
p97
asg8
(lp98
sg10
g11
sg12
(lp99
S'awkward'
p100
asg15
S'3450000'
p101
sg17
(lp102
sg19
g97
sg20
I00
sg21
I00
sg22
g35
sg24
g100
sba(iironet.simile
Simile
p103
(dp104
g3
S'as awkward as a dolphin'
p105
sg5
(lp106
S'dolphin'
p107
asg8
(lp108
sg10
g11
sg12
(lp109
S'awkward'
p110
asg15
g23
sg17
(lp111
sg19
g107
sg20
I00
sg21
I00
sg22
g35
sg24
g110
sba(iironet.simile
Simile
p112
(dp113
g3
S'as awkward as a ballet_dancer'
p114
sg5
(lp115
S'ballet_dancer'
p116
asg8
(lp117
sg10
g11
sg12
(lp118
S'awkward'
p119
asg15
S'1880000'
p120
sg17
(lp121
sg19
g116
sg20
I00
sg21
I00
sg22
g35
sg24
g119
sba(iironet.simile
Simile
p122
(dp123
g3
S'as awkward as a noel_coward'
p124
sg5
(lp125
S'noel_coward'
p126
asg8
(lp127
sg10
g11
sg12
(lp128
S'awkward'
p129
asg15
S'343000'
p130
sg17
(lp131
sg19
g126
sg20
I00
sg21
I00
sg22
g35
sg24
g129
sba(iironet.simile
Simile
p132
(dp133
g3
S'as awkward as a gymnast'
p134
sg5
(lp135
S'gymnast'
p136
asg8
(lp137
sg10
g11
sg12
(lp138
S'awkward'
p139
asg15
g23
sg17
(lp140
sg19
g136
sg20
I00
sg21
I00
sg22
g35
sg24
g139
sba(iironet.simile
Simile
p141
(dp142
g3
S'as awkward as a tightrope_walker'
p143
sg5
(lp144
S'tightrope_walker'
p145
asg8
(lp146
sg10
g11
sg12
(lp147
S'awkward'
p148
asg15
S'60000'
p149
sg17
(lp150
sg19
g145
sg20
I00
sg21
I00
sg22
S'59900'
p151
sg24
g148
sba(iironet.simile
Simile
p152
(dp153
g3
S'as awkward as an antelope'
p154
sg5
(lp155
S'antelope'
p156
asg8
(lp157
sg10
S'an '
p158
sg12
(lp159
S'awkward'
p160
asg15
S'1180000'
p161
sg17
(lp162
sg19
g156
sg20
I00
sg21
I00
sg22
S'1180000'
p163
sg24
g160
sba(iironet.simile
Simile
p164
(dp165
g3
S'as awkward as a stork'
p166
sg5
(lp167
S'stork'
p168
asg8
(lp169
sg10
g11
sg12
(lp170
S'awkward'
p171
asg15
g73
sg17
(lp172
sg19
g168
sg20
I00
sg21
I00
sg22
g35
sg24
g171
sba(iironet.simile
Simile
p173
(dp174
g3
S'as awkward as a hummingbird'
p175
sg5
(lp176
S'hummingbird'
p177
asg8
(lp178
sg10
g11
sg12
(lp179
S'awkward'
p180
asg15
S'1830000'
p181
sg17
(lp182
sg19
g177
sg20
I00
sg21
I00
sg22
g35
sg24
g180
sba(iironet.simile
Simile
p183
(dp184
g3
S'as awkward as a matador'
p185
sg5
(lp186
S'matador'
p187
asg8
(lp188
sg10
g11
sg12
(lp189
S'awkward'
p190
asg15
S'1380000'
p191
sg17
(lp192
sg19
g187
sg20
I00
sg21
I00
sg22
g35
sg24
g190
sba(iironet.simile
Simile
p193
(dp194
g3
S'as awkward as a leopard'
p195
sg5
(lp196
S'leopard'
p197
asg8
(lp198
sg10
g11
sg12
(lp199
S'awkward'
p200
asg15
S'778000'
p201
sg17
(lp202
sg19
g197
sg20
I00
sg21
I00
sg22
g23
sg24
g200
sba(iironet.simile
Simile
p203
(dp204
g3
S'as awkward as a swallow'
p205
sg5
(lp206
S'swallow'
p207
asg8
(lp208
sg10
g11
sg12
(lp209
S'awkward'
p210
asg15
S'11600000'
p211
sg17
(lp212
sg19
g207
sg20
I00
sg21
I00
sg22
S'11600000'
p213
sg24
g210
sba(iironet.simile
Simile
p214
(dp215
g3
S'as awkward as an eagle'
p216
sg5
(lp217
S'eagle'
p218
asg8
(lp219
sg10
g158
sg12
(lp220
S'awkward'
p221
asg15
g23
sg17
(lp222
sg19
g218
sg20
I00
sg21
I00
sg22
g35
sg24
g221
sba(iironet.simile
Simile
p223
(dp224
g3
S'as awkward as a bride'
p225
sg5
(lp226
S'bride'
p227
asg8
(lp228
sg10
g11
sg12
(lp229
S'awkward'
p230
asg15
g23
sg17
(lp231
sg19
g227
sg20
I00
sg21
I00
sg22
g35
sg24
g230
sba(iironet.simile
Simile
p232
(dp233
g3
S'as awkward as a flower'
p234
sg5
(lp235
S'flower'
p236
asg8
(lp237
sg10
g11
sg12
(lp238
S'awkward'
p239
asg15
S'1780000'
p240
sg17
(lp241
sg19
g236
sg20
I00
sg21
I00
sg22
g35
sg24
g239
sba(iironet.simile
Simile
p242
(dp243
g3
S'as awkward as a surgeon'
p244
sg5
(lp245
S'surgeon'
p246
asg8
(lp247
sg10
g11
sg12
(lp248
S'awkward'
p249
asg15
S'10700000'
p250
sg17
(lp251
sg19
g246
sg20
I00
sg21
I00
sg22
S'9270000'
p252
sg24
g249
sba(iironet.simile
Simile
p253
(dp254
g3
S'as awkward as a cheetah'
p255
sg5
(lp256
S'cheetah'
p257
asg8
(lp258
sg10
g11
sg12
(lp259
S'awkward'
p260
asg15
g23
sg17
(lp261
sg19
g257
sg20
I00
sg21
I00
sg22
g35
sg24
g260
sba(iironet.simile
Simile
p262
(dp263
g3
S'as awkward as a minuet'
p264
sg5
(lp265
S'minuet'
p266
asg8
(lp267
sg10
g11
sg12
(lp268
S'awkward'
p269
asg15
S'275000'
p270
sg17
(lp271
sg19
g266
sg20
I00
sg21
I00
sg22
S'275000'
p272
sg24
g269
sba(iironet.simile
Simile
p273
(dp274
g3
S'as awkward as a swordsman'
p275
sg5
(lp276
S'swordsman'
p277
asg8
(lp278
sg10
g11
sg12
(lp279
S'awkward'
p280
asg15
S'900000'
p281
sg17
(lp282
sg19
g277
sg20
I00
sg21
I00
sg22
S'900000'
p283
sg24
g280
sba(iironet.simile
Simile
p284
(dp285
g3
S'as awkward as a mermaid'
p286
sg5
(lp287
S'mermaid'
p288
asg8
(lp289
sg10
g11
sg12
(lp290
S'awkward'
p291
asg15
S'786000'
p292
sg17
(lp293
sg19
g288
sg20
I00
sg21
I00
sg22
g35
sg24
g291
sba(iironet.simile
Simile
p294
(dp295
g3
S'as awkward as a dove'
p296
sg5
(lp297
S'dove'
p298
asg8
(lp299
sg10
g11
sg12
(lp300
S'awkward'
p301
asg15
S'5180000'
p302
sg17
(lp303
sg19
g298
sg20
I00
sg21
I00
sg22
S'5100000'
p304
sg24
g301
sba(iironet.simile
Simile
p305
(dp306
g3
S'as awkward as a prince'
p307
sg5
(lp308
S'prince'
p309
asg8
(lp310
sg10
g11
sg12
(lp311
S'awkward'
p312
asg15
S'21400000'
p313
sg17
(lp314
sg19
g309
sg20
I00
sg21
I00
sg22
S'17600000'
p315
sg24
g312
sba(iironet.simile
Simile
p316
(dp317
g3
S'as awkward as a giraffe'
p318
sg5
(lp319
S'giraffe'
p320
asg8
(lp321
sg10
g11
sg12
(lp322
S'awkward'
p323
asg15
S'7280'
p324
sg17
(lp325
sg19
g320
sg20
I00
sg21
I00
sg22
S'585'
p326
sg24
g323
sba(iironet.simile
Simile
p327
(dp328
g3
S'as awkward as a colt'
p329
sg5
(lp330
S'colt'
p331
asg8
(lp332
sg10
g11
sg12
(lp333
S'awkward'
p334
asg15
S'7'
p335
sg17
(lp336
sg19
g331
sg20
I00
sg21
I00
sg22
g35
sg24
g334
sba(iironet.simile
Simile
p337
(dp338
g3
S'as awkward as a ninja'
p339
sg5
(lp340
S'ninja'
p341
asg8
(lp342
sg10
g11
sg12
(lp343
S'awkward'
p344
asg15
S'725000'
p345
sg17
(lp346
sg19
g341
sg20
I00
sg21
I00
sg22
g35
sg24
g344
sba(iironet.simile
Simile
p347
(dp348
g3
S'as awkward as a ballet_master'
p349
sg5
(lp350
S'ballet_master'
p351
asg8
(lp352
sg10
g11
sg12
(lp353
S'awkward'
p354
asg15
S'15900000'
p355
sg17
(lp356
sg19
g351
sg20
I00
sg21
I00
sg22
S'15900000'
p357
sg24
g354
sba(iironet.simile
Simile
p358
(dp359
g3
S'as awkward as a charlie_parker'
p360
sg5
(lp361
S'charlie_parker'
p362
asg8
(lp363
sg10
g11
sg12
(lp364
S'awkward'
p365
asg15
S'3370000'
p366
sg17
(lp367
sg19
g362
sg20
I00
sg21
I00
sg22
g35
sg24
g365
sba(iironet.simile
Simile
p368
(dp369
g3
S'as awkward as a poet'
p370
sg5
(lp371
S'poet'
p372
asg8
(lp373
sg10
g11
sg12
(lp374
S'awkward'
p375
asg15
S'804000'
p376
sg17
(lp377
sg19
g372
sg20
I00
sg21
I00
sg22
S'793000'
p378
sg24
g375
sba(iironet.simile
Simile
p379
(dp380
g3
S'as awkward as a cat_burglar'
p381
sg5
(lp382
S'cat_burglar'
p383
asg8
(lp384
sg10
g11
sg12
(lp385
S'awkward'
p386
asg15
S'392000'
p387
sg17
(lp388
sg19
g383
sg20
I00
sg21
I00
sg22
g35
sg24
g386
sba(iironet.simile
Simile
p389
(dp390
g3
S'as awkward as a mountain_lion'
p391
sg5
(lp392
S'mountain_lion'
p393
asg8
(lp394
sg10
g11
sg12
(lp395
S'awkward'
p396
asg15
S'1250000'
p397
sg17
(lp398
sg19
g393
sg20
I00
sg21
I00
sg22
S'617000'
p399
sg24
g396
sba(iironet.simile
Simile
p400
(dp401
g3
S'as awkward as a sparrow'
p402
sg5
(lp403
S'sparrow'
p404
asg8
(lp405
sg10
g11
sg12
(lp406
S'awkward'
p407
asg15
S'4470000'
p408
sg17
(lp409
sg19
g404
sg20
I00
sg21
I00
sg22
S'4470000'
p410
sg24
g407
sba(iironet.simile
Simile
p411
(dp412
g3
S'as awkward as a supermodel'
p413
sg5
(lp414
S'supermodel'
p415
asg8
(lp416
sg10
g11
sg12
(lp417
S'awkward'
p418
asg15
S'3'
p419
sg17
(lp420
sg19
g415
sg20
I00
sg21
I00
sg22
g33
sg24
g418
sba(iironet.simile
Simile
p421
(dp422
g3
S'as awkward as a harp'
p423
sg5
(lp424
S'harp'
p425
asg8
(lp426
sg10
g11
sg12
(lp427
S'awkward'
p428
asg15
S'2290000'
p429
sg17
(lp430
sg19
g425
sg20
I00
sg21
I00
sg22
S'2280000'
p431
sg24
g428
sba(iironet.simile
Simile
p432
(dp433
g3
S'as awkward as an elephant'
p434
sg5
(lp435
S'elephant'
p436
asg8
(lp437
sg10
g158
sg12
(lp438
S'awkward'
p439
asg15
S'4750'
p440
sg17
(lp441
sg19
g436
sg20
I00
sg21
I00
sg22
S'8'
p442
sg24
g439
sba(iironet.simile
Simile
p443
(dp444
g3
S'as awkward as a refrigerator'
p445
sg5
(lp446
S'refrigerator'
p447
asg8
(lp448
sg10
g11
sg12
(lp449
S'awkward'
p450
asg15
S'543000'
p451
sg17
(lp452
sg19
g447
sg20
I00
sg21
I00
sg22
S'480000'
p453
sg24
g450
sba(iironet.simile
Simile
p454
(dp455
g3
S'as awkward as a hippo'
p456
sg5
(lp457
S'hippo'
p458
asg8
(lp459
sg10
g11
sg12
(lp460
S'awkward'
p461
asg15
g419
sg17
(lp462
sg19
g458
sg20
I00
sg21
I00
sg22
g23
sg24
g461
sba(iironet.simile
Simile
p463
(dp464
g3
S'as awkward as a tortoise'
p465
sg5
(lp466
S'tortoise'
p467
asg8
(lp468
sg10
g11
sg12
(lp469
S'awkward'
p470
asg15
g23
sg17
(lp471
sg19
g467
sg20
I00
sg21
I00
sg22
g35
sg24
g470
sba(iironet.simile
Simile
p472
(dp473
g3
S'as awkward as a truck'
p474
sg5
(lp475
S'truck'
p476
asg8
(lp477
sg10
g11
sg12
(lp478
S'awkward'
p479
asg15
g35
sg17
(lp480
sg19
g476
sg20
I00
sg21
I00
sg22
g35
sg24
g479
sba(iironet.simile
Simile
p481
(dp482
g3
S'as awkward as a lame_duck'
p483
sg5
(lp484
S'lame_duck'
p485
asg8
(lp486
sg10
g11
sg12
(lp487
S'awkward'
p488
asg15
S'453000'
p489
sg17
(lp490
sg19
g485
sg20
I00
sg21
I00
sg22
S'448000'
p491
sg24
g488
sba(iironet.simile
Simile
p492
(dp493
g3
S'as awkward as a sheep'
p494
sg5
(lp495
S'sheep'
p496
asg8
(lp497
sg10
g11
sg12
(lp498
S'awkward'
p499
asg15
g23
sg17
(lp500
sg19
g496
sg20
I00
sg21
I00
sg22
g35
sg24
g499
sba(iironet.simile
Simile
p501
(dp502
g3
S'as awkward as a marionette'
p503
sg5
(lp504
S'marionette'
p505
asg8
(lp506
sg10
g11
sg12
(lp507
S'awkward'
p508
asg15
g23
sg17
(lp509
sg19
g505
sg20
I00
sg21
I00
sg22
g35
sg24
g508
sba(iironet.simile
Simile
p510
(dp511
g3
S'as awkward as a dinosaur'
p512
sg5
(lp513
S'dinosaur'
p514
asg8
(lp515
sg10
g11
sg12
(lp516
S'awkward'
p517
asg15
S'619000'
p518
sg17
(lp519
sg19
g514
sg20
I00
sg21
I00
sg22
S'572000'
p520
sg24
g517
sba(iironet.simile
Simile
p521
(dp522
g3
S'as awkward as a rhino'
p523
sg5
(lp524
S'rhino'
p525
asg8
(lp526
sg10
g11
sg12
(lp527
S'awkward'
p528
asg15
g33
sg17
(lp529
sg19
g525
sg20
I00
sg21
I00
sg22
g35
sg24
g528
sba(iironet.simile
Simile
p530
(dp531
g3
S'as awkward as a soap_opera'
p532
sg5
(lp533
S'soap_opera'
p534
asg8
(lp535
sg10
g11
sg12
(lp536
S'awkward'
p537
asg15
S'638000'
p538
sg17
(lp539
sg19
g534
sg20
I00
sg21
I00
sg22
g35
sg24
g537
sba(iironet.simile
Simile
p540
(dp541
g3
S'as awkward as a camel'
p542
sg5
(lp543
S'camel'
p544
asg8
(lp545
sg10
g11
sg12
(lp546
S'awkward'
p547
asg15
S'2460'
p548
sg17
(lp549
sg19
g544
sg20
I00
sg21
I00
sg22
g35
sg24
g547
sba(iironet.simile
Simile
p550
(dp551
g3
S'as awkward as a walrus'
p552
sg5
(lp553
S'walrus'
p554
asg8
(lp555
sg10
g11
sg12
(lp556
S'awkward'
p557
asg15
g419
sg17
(lp558
sg19
g554
sg20
I00
sg21
I00
sg22
g23
sg24
g557
sba(iironet.simile
Simile
p559
(dp560
g3
S'as awkward as a penguin'
p561
sg5
(lp562
S'penguin'
p563
asg8
(lp564
sg10
g11
sg12
(lp565
S'awkward'
p566
asg15
S'4400'
p567
sg17
(lp568
sg19
g563
sg20
I00
sg21
I00
sg22
g23
sg24
g566
sba(iironet.simile
Simile
p569
(dp570
g3
S'as awkward as a brick'
p571
sg5
(lp572
S'brick'
p573
asg8
(lp574
sg10
g11
sg12
(lp575
S'awkward'
p576
asg15
g23
sg17
(lp577
sg19
g573
sg20
I00
sg21
I00
sg22
g35
sg24
g576
sba(iironet.simile
Simile
p578
(dp579
g3
S'as awkward as a hippopotamus'
p580
sg5
(lp581
S'hippopotamus'
p582
asg8
(lp583
sg10
g11
sg12
(lp584
S'awkward'
p585
asg15
g442
sg17
(lp586
sg19
g582
sg20
I00
sg21
I00
sg22
g35
sg24
g585
sba(iironet.simile
Simile
p587
(dp588
g3
S'as awkward as a battering_ram'
p589
sg5
(lp590
S'battering_ram'
p591
asg8
(lp592
sg10
g11
sg12
(lp593
S'awkward'
p594
asg15
S'147000'
p595
sg17
(lp596
sg19
g591
sg20
I00
sg21
I00
sg22
g35
sg24
g594
sba(iironet.simile
Simile
p597
(dp598
g3
S'as awkward as a bulldozer'
p599
sg5
(lp600
S'bulldozer'
p601
asg8
(lp602
sg10
g11
sg12
(lp603
S'awkward'
p604
asg15
S'537000'
p605
sg17
(lp606
sg19
g601
sg20
I00
sg21
I00
sg22
g35
sg24
g604
sba(iironet.simile
Simile
p607
(dp608
g3
S'as awkward as a turkey'
p609
sg5
(lp610
S'turkey'
p611
asg8
(lp612
sg10
g11
sg12
(lp613
S'awkward'
p614
asg15
g33
sg17
(lp615
sg19
g611
sg20
I00
sg21
I00
sg22
g23
sg24
g614
sba(iironet.simile
Simile
p616
(dp617
g3
S'as inactive as a sloth'
p618
sg5
(lp619
S'sloth'
p620
asg8
(lp621
sg10
g11
sg12
(lp622
S'inactive'
p623
asg15
g335
sg17
(lp624
sg19
g620
sg20
I00
sg21
I00
sg22
g35
sg24
g623
sba(iironet.simile
Simile
p625
(dp626
g3
S'as passive as a sloth'
p627
sg5
(lp628
S'sloth'
p629
asg8
(lp630
sg10
g11
sg12
(lp631
S'passive'
p632
asg15
g419
sg17
(lp633
sg19
g629
sg20
I00
sg21
I00
sg22
g35
sg24
g632
sba(iironet.simile
Simile
p634
(dp635
g3
S'as quiet as a sloth'
p636
sg5
(lp637
S'sloth'
p638
asg8
(lp639
sg10
g11
sg12
(lp640
S'quiet'
p641
asg15
g16
sg17
(lp642
sg19
g638
sg20
I00
sg21
I00
sg22
g35
sg24
g641
sba(iironet.simile
Simile
p643
(dp644
g3
S'as stative as a sloth'
p645
sg5
(lp646
S'sloth'
p647
asg8
(lp648
sg10
g11
sg12
(lp649
S'stative'
p650
asg15
S'2910000'
p651
sg17
(lp652
sg19
g647
sg20
I00
sg21
I00
sg22
S'2900000'
p653
sg24
g650
sba(iironet.simile
Simile
p654
(dp655
g3
S'as extinct as a sloth'
p656
sg5
(lp657
S'sloth'
p658
asg8
(lp659
sg10
g11
sg12
(lp660
S'extinct'
p661
asg15
S'398000'
p662
sg17
(lp663
sg19
g658
sg20
I00
sg21
I00
sg22
S'392000'
p664
sg24
g661
sba(iironet.simile
Simile
p665
(dp666
g3
S'as dormant as a sloth'
p667
sg5
(lp668
S'sloth'
p669
asg8
(lp670
sg10
g11
sg12
(lp671
S'dormant'
p672
asg15
S'119000'
p673
sg17
(lp674
sg19
g669
sg20
I00
sg21
I00
sg22
S'118000'
p675
sg24
g672
sba(iironet.simile
Simile
p676
(dp677
g3
S'as inactive as a slug'
p678
sg5
(lp679
S'slug'
p680
asg8
(lp681
sg10
g11
sg12
(lp682
S'inactive'
p683
asg15
g33
sg17
(lp684
sg19
g680
sg20
I00
sg21
I00
sg22
g35
sg24
g683
sba(iironet.simile
Simile
p685
(dp686
g3
S'as passive as a slug'
p687
sg5
(lp688
S'slug'
p689
asg8
(lp690
sg10
g11
sg12
(lp691
S'passive'
p692
asg15
g23
sg17
(lp693
sg19
g689
sg20
I00
sg21
I00
sg22
g35
sg24
g692
sba(iironet.simile
Simile
p694
(dp695
g3
S'as quiet as a slug'
p696
sg5
(lp697
S'slug'
p698
asg8
(lp699
sg10
g11
sg12
(lp700
S'quiet'
p701
asg15
g33
sg17
(lp702
sg19
g698
sg20
I00
sg21
I00
sg22
g35
sg24
g701
sba(iironet.simile
Simile
p703
(dp704
g3
S'as stative as a slug'
p705
sg5
(lp706
S'slug'
p707
asg8
(lp708
sg10
g11
sg12
(lp709
S'stative'
p710
asg15
S'597000'
p711
sg17
(lp712
sg19
g707
sg20
I00
sg21
I00
sg22
S'562000'
p713
sg24
g710
sba(iironet.simile
Simile
p714
(dp715
g3
S'as extinct as a slug'
p716
sg5
(lp717
S'slug'
p718
asg8
(lp719
sg10
g11
sg12
(lp720
S'extinct'
p721
asg15
S'734000'
p722
sg17
(lp723
sg19
g718
sg20
I00
sg21
I00
sg22
S'244000'
p724
sg24
g721
sba(iironet.simile
Simile
p725
(dp726
g3
S'as dormant as a slug'
p727
sg5
(lp728
S'slug'
p729
asg8
(lp730
sg10
g11
sg12
(lp731
S'dormant'
p732
asg15
S'599000'
p733
sg17
(lp734
sg19
g729
sg20
I00
sg21
I00
sg22
g35
sg24
g732
sba(iironet.simile
Simile
p735
(dp736
g3
S'as lethargic as a puppy'
p737
sg5
(lp738
S'puppy'
p739
asg8
(lp740
sg10
g11
sg12
(lp741
S'lethargic'
p742
asg15
g23
sg17
(lp743
sg19
g739
sg20
I00
sg21
I00
sg22
g35
sg24
g742
sba(iironet.simile
Simile
p744
(dp745
g3
S'as lethargic as a pup'
p746
sg5
(lp747
S'pup'
p748
asg8
(lp749
sg10
g11
sg12
(lp750
S'lethargic'
p751
asg15
S'143000'
p752
sg17
(lp753
sg19
g748
sg20
I00
sg21
I00
sg22
S'140000'
p754
sg24
g751
sba(iironet.simile
Simile
p755
(dp756
g3
S'as lethargic as a jaguar'
p757
sg5
(lp758
S'jaguar'
p759
asg8
(lp760
sg10
g11
sg12
(lp761
S'lethargic'
p762
asg15
S'124000'
p763
sg17
(lp764
sg19
g759
sg20
I00
sg21
I00
sg22
g35
sg24
g762
sba(iironet.simile
Simile
p765
(dp766
g3
S'as lethargic as a cheerleader'
p767
sg5
(lp768
S'cheerleader'
p769
asg8
(lp770
sg10
g11
sg12
(lp771
S'lethargic'
p772
asg15
S'200000'
p773
sg17
(lp774
sg19
g769
sg20
I00
sg21
I00
sg22
g35
sg24
g772
sba(iironet.simile
Simile
p775
(dp776
g3
S'as lethargic as a terrier'
p777
sg5
(lp778
S'terrier'
p779
asg8
(lp780
sg10
g11
sg12
(lp781
S'lethargic'
p782
asg15
g23
sg17
(lp783
sg19
g779
sg20
I00
sg21
I00
sg22
g35
sg24
g782
sba(iironet.simile
Simile
p784
(dp785
g3
S'as lethargic as a teenager'
p786
sg5
(lp787
S'teenager'
p788
asg8
(lp789
sg10
g11
sg12
(lp790
S'lethargic'
p791
asg15
g442
sg17
(lp792
sg19
g788
sg20
I00
sg21
I00
sg22
g35
sg24
g791
sba(iironet.simile
Simile
p793
(dp794
g3
S'as lethargic as a tiger'
p795
sg5
(lp796
S'tiger'
p797
asg8
(lp798
sg10
g11
sg12
(lp799
S'lethargic'
p800
asg15
S'212000'
p801
sg17
(lp802
sg19
g797
sg20
I00
sg21
I00
sg22
g35
sg24
g800
sba(iironet.simile
Simile
p803
(dp804
g3
S'as lethargic as a sprite'
p805
sg5
(lp806
S'sprite'
p807
asg8
(lp808
sg10
g11
sg12
(lp809
S'lethargic'
p810
asg15
S'95600'
p811
sg17
(lp812
sg19
g807
sg20
I00
sg21
I00
sg22
g35
sg24
g810
sba(iironet.simile
Simile
p813
(dp814
g3
S'as lethargic as a coffee_bean'
p815
sg5
(lp816
S'coffee_bean'
p817
asg8
(lp818
sg10
g11
sg12
(lp819
S'lethargic'
p820
asg15
S'1240000'
p821
sg17
(lp822
sg19
g817
sg20
I00
sg21
I00
sg22
g35
sg24
g820
sba(iironet.simile
Simile
p823
(dp824
g3
S'as lethargic as a slug'
p825
sg5
(lp826
S'slug'
p827
asg8
(lp828
sg10
g11
sg12
(lp829
S'lethargic'
p830
asg15
g335
sg17
(lp831
sg19
g827
sg20
I00
sg21
I00
sg22
g35
sg24
g830
sba(iironet.simile
Simile
p832
(dp833
g3
S'as lethargic as a snail'
p834
sg5
(lp835
S'snail'
p836
asg8
(lp837
sg10
g11
sg12
(lp838
S'lethargic'
p839
asg15
g442
sg17
(lp840
sg19
g836
sg20
I00
sg21
I00
sg22
g35
sg24
g839
sba(iironet.simile
Simile
p841
(dp842
g3
S'as lethargic as an ant'
p843
sg5
(lp844
S'ant'
p845
asg8
(lp846
sg10
g158
sg12
(lp847
S'lethargic'
p848
asg15
S'346000'
p849
sg17
(lp850
sg19
g845
sg20
I00
sg21
I00
sg22
S'346000'
p851
sg24
g848
sba(iironet.simile
Simile
p852
(dp853
g3
S'as lethargic as a chess_match'
p854
sg5
(lp855
S'chess_match'
p856
asg8
(lp857
sg10
g11
sg12
(lp858
S'lethargic'
p859
asg15
S'191000'
p860
sg17
(lp861
sg19
g856
sg20
I00
sg21
I00
sg22
g35
sg24
g859
sba(iironet.simile
Simile
p862
(dp863
g3
S'as lethargic as a dishrag'
p864
sg5
(lp865
S'dishrag'
p866
asg8
(lp867
sg10
g11
sg12
(lp868
S'lethargic'
p869
asg15
S'18400'
p870
sg17
(lp871
sg19
g866
sg20
I00
sg21
I00
sg22
g35
sg24
g869
sba(iironet.simile
Simile
p872
(dp873
g3
S'as lethargic as a rag_doll'
p874
sg5
(lp875
S'rag_doll'
p876
asg8
(lp877
sg10
g11
sg12
(lp878
S'lethargic'
p879
asg15
g419
sg17
(lp880
sg19
g876
sg20
I00
sg21
I00
sg22
g35
sg24
g879
sba(iironet.simile
Simile
p881
(dp882
g3
S'as lethargic as a tortoise'
p883
sg5
(lp884
S'tortoise'
p885
asg8
(lp886
sg10
g11
sg12
(lp887
S'lethargic'
p888
asg15
g23
sg17
(lp889
sg19
g885
sg20
I00
sg21
I00
sg22
g35
sg24
g888
sba(iironet.simile
Simile
p890
(dp891
g3
S'as lethargic as a centipede'
p892
sg5
(lp893
S'centipede'
p894
asg8
(lp895
sg10
g11
sg12
(lp896
S'lethargic'
p897
asg15
S'88700'
p898
sg17
(lp899
sg19
g894
sg20
I00
sg21
I00
sg22
g35
sg24
g897
sba(iironet.simile
Simile
p900
(dp901
g3
S'as immobile as a watch'
p902
sg5
(lp903
S'watch'
p904
asg8
(lp905
sg10
g11
sg12
(lp906
S'immobile'
p907
asg15
S'680000'
p908
sg17
(lp909
sg19
g904
sg20
I00
sg21
I00
sg22
g35
sg24
g907
sba(iironet.simile
Simile
p910
(dp911
g3
S'as immobile as a laptop'
p912
sg5
(lp913
S'laptop'
p914
asg8
(lp915
sg10
g11
sg12
(lp916
S'immobile'
p917
asg15
g23
sg17
(lp918
sg19
g914
sg20
I00
sg21
I00
sg22
g35
sg24
g917
sba(iironet.simile
Simile
p919
(dp920
g3
S'as immobile as a mustang'
p921
sg5
(lp922
S'mustang'
p923
asg8
(lp924
sg10
g11
sg12
(lp925
S'immobile'
p926
asg15
S'345000'
p927
sg17
(lp928
sg19
g923
sg20
I00
sg21
I00
sg22
g35
sg24
g926
sba(iironet.simile
Simile
p929
(dp930
g3
S'as immobile as a car'
p931
sg5
(lp932
S'car'
p933
asg8
(lp934
sg10
g11
sg12
(lp935
S'immobile'
p936
asg15
g23
sg17
(lp937
sg19
g933
sg20
I00
sg21
I00
sg22
g35
sg24
g936
sba(iironet.simile
Simile
p938
(dp939
g3
S'as immobile as a horse'
p940
sg5
(lp941
S'horse'
p942
asg8
(lp943
sg10
g11
sg12
(lp944
S'immobile'
p945
asg15
g35
sg17
(lp946
sg19
g942
sg20
I00
sg21
I00
sg22
g35
sg24
g945
sba(iironet.simile
Simile
p947
(dp948
g3
S'as immobile as a vehicle'
p949
sg5
(lp950
S'vehicle'
p951
asg8
(lp952
sg10
g11
sg12
(lp953
S'immobile'
p954
asg15
g33
sg17
(lp955
sg19
g951
sg20
I00
sg21
I00
sg22
g35
sg24
g954
sba(iironet.simile
Simile
p956
(dp957
g3
S'as immobile as a mountie'
p958
sg5
(lp959
S'mountie'
p960
asg8
(lp961
sg10
g11
sg12
(lp962
S'immobile'
p963
asg15
S'45400'
p964
sg17
(lp965
sg19
g960
sg20
I00
sg21
I00
sg22
g35
sg24
g963
sba(iironet.simile
Simile
p966
(dp967
g3
S'as immobile as a hare'
p968
sg5
(lp969
S'hare'
p970
asg8
(lp971
sg10
g11
sg12
(lp972
S'immobile'
p973
asg15
g23
sg17
(lp974
sg19
g970
sg20
I00
sg21
I00
sg22
g35
sg24
g973
sba(iironet.simile
Simile
p975
(dp976
g3
S'as immobile as a statue'
p977
sg5
(lp978
S'statue'
p979
asg8
(lp980
sg10
g11
sg12
(lp981
S'immobile'
p982
asg15
S'3560'
p983
sg17
(lp984
sg19
g979
sg20
I00
sg21
I00
sg22
g33
sg24
g982
sba(iironet.simile
Simile
p985
(dp986
g3
S'as immobile as a glacier'
p987
sg5
(lp988
S'glacier'
p989
asg8
(lp990
sg10
g11
sg12
(lp991
S'immobile'
p992
asg15
g419
sg17
(lp993
sg19
g989
sg20
I00
sg21
I00
sg22
g35
sg24
g992
sba(iironet.simile
Simile
p994
(dp995
g3
S'as immobile as a slug'
p996
sg5
(lp997
S'slug'
p998
asg8
(lp999
sg10
g11
sg12
(lp1000
S'immobile'
p1001
asg15
g23
sg17
(lp1002
sg19
g998
sg20
I00
sg21
I00
sg22
g35
sg24
g1001
sba(iironet.simile
Simile
p1003
(dp1004
g3
S'as immobile as a boulder'
p1005
sg5
(lp1006
S'boulder'
p1007
asg8
(lp1008
sg10
g11
sg12
(lp1009
S'immobile'
p1010
asg15
S'505'
p1011
sg17
(lp1012
sg19
g1007
sg20
I00
sg21
I00
sg22
g33
sg24
g1010
sba(iironet.simile
Simile
p1013
(dp1014
g3
S'as immobile as a rock'
p1015
sg5
(lp1016
S'rock'
p1017
asg8
(lp1018
sg10
g11
sg12
(lp1019
S'immobile'
p1020
asg15
S'2610'
p1021
sg17
(lp1022
sg19
g1017
sg20
I00
sg21
I00
sg22
g33
sg24
g1020
sba(iironet.simile
Simile
p1023
(dp1024
g3
S'as immobile as an oak_tree'
p1025
sg5
(lp1026
S'oak_tree'
p1027
asg8
(lp1028
sg10
g158
sg12
(lp1029
S'immobile'
p1030
asg15
g33
sg17
(lp1031
sg19
g1027
sg20
I00
sg21
I00
sg22
g23
sg24
g1030
sba(iironet.simile
Simile
p1032
(dp1033
g3
S'as immobile as a sumo_wrestler'
p1034
sg5
(lp1035
S'sumo_wrestler'
p1036
asg8
(lp1037
sg10
g11
sg12
(lp1038
S'immobile'
p1039
asg15
S'13500'
p1040
sg17
(lp1041
sg19
g1036
sg20
I00
sg21
I00
sg22
S'13500'
p1042
sg24
g1039
sba(iironet.simile
Simile
p1043
(dp1044
g3
S'as immobile as a tree_trunk'
p1045
sg5
(lp1046
S'tree_trunk'
p1047
asg8
(lp1048
sg10
g11
sg12
(lp1049
S'immobile'
p1050
asg15
g33
sg17
(lp1051
sg19
g1047
sg20
I00
sg21
I00
sg22
g35
sg24
g1050
sba(iironet.simile
Simile
p1052
(dp1053
g3
S'as immobile as a dinner_table'
p1054
sg5
(lp1055
S'dinner_table'
p1056
asg8
(lp1057
sg10
g11
sg12
(lp1058
S'immobile'
p1059
asg15
S'83000'
p1060
sg17
(lp1061
sg19
g1056
sg20
I00
sg21
I00
sg22
S'80100'
p1062
sg24
g1059
sba(iironet.simile
Simile
p1063
(dp1064
g3
S'as dead as a soul'
p1065
sg5
(lp1066
S'soul'
p1067
asg8
(lp1068
sg10
g11
sg12
(lp1069
S'dead'
p1070
asg15
g23
sg17
(lp1071
sg19
g1067
sg20
I00
sg21
I00
sg22
g35
sg24
g1070
sba(iironet.simile
Simile
p1072
(dp1073
g3
S'as unanimated as a soul'
p1074
sg5
(lp1075
S'soul'
p1076
asg8
(lp1077
sg10
g11
sg12
(lp1078
S'unanimated'
p1079
asg15
S'228000'
p1080
sg17
(lp1081
sg19
g1076
sg20
I00
sg21
I00
sg22
g35
sg24
g1079
sba(iironet.simile
Simile
p1082
(dp1083
g3
S'as dead as a heartbeat'
p1084
sg5
(lp1085
S'heartbeat'
p1086
asg8
(lp1087
sg10
g11
sg12
(lp1088
S'dead'
p1089
asg15
S'1280000'
p1090
sg17
(lp1091
sg19
g1086
sg20
I00
sg21
I00
sg22
S'1260000'
p1092
sg24
g1089
sba(iironet.simile
Simile
p1093
(dp1094
g3
S'as unanimated as a heartbeat'
p1095
sg5
(lp1096
S'heartbeat'
p1097
asg8
(lp1098
sg10
g11
sg12
(lp1099
S'unanimated'
p1100
asg15
S'30100'
p1101
sg17
(lp1102
sg19
g1097
sg20
I00
sg21
I00
sg22
g35
sg24
g1100
sba(iironet.simile
Simile
p1103
(dp1104
g3
S'as dead as a forest'
p1105
sg5
(lp1106
S'forest'
p1107
asg8
(lp1108
sg10
g11
sg12
(lp1109
S'dead'
p1110
asg15
g35
sg17
(lp1111
sg19
g1107
sg20
I00
sg21
I00
sg22
g35
sg24
g1110
sba(iironet.simile
Simile
p1112
(dp1113
g3
S'as unanimated as a forest'
p1114
sg5
(lp1115
S'forest'
p1116
asg8
(lp1117
sg10
g11
sg12
(lp1118
S'unanimated'
p1119
asg15
S'50300'
p1120
sg17
(lp1121
sg19
g1116
sg20
I00
sg21
I00
sg22
g35
sg24
g1119
sba(iironet.simile
Simile
p1122
(dp1123
g3
S'as dead as a jungle'
p1124
sg5
(lp1125
S'jungle'
p1126
asg8
(lp1127
sg10
g11
sg12
(lp1128
S'dead'
p1129
asg15
S'198000000'
p1130
sg17
(lp1131
sg19
g1126
sg20
I00
sg21
I00
sg22
S'29000000'
p1132
sg24
g1129
sba(iironet.simile
Simile
p1133
(dp1134
g3
S'as unanimated as a jungle'
p1135
sg5
(lp1136
S'jungle'
p1137
asg8
(lp1138
sg10
g11
sg12
(lp1139
S'unanimated'
p1140
asg15
g33
sg17
(lp1141
sg19
g1137
sg20
I00
sg21
I00
sg22
g35
sg24
g1140
sba(iironet.simile
Simile
p1142
(dp1143
g3
S'as beautiful as a wart'
p1144
sg5
(lp1145
S'wart'
p1146
asg8
(lp1147
sg10
g11
sg12
(lp1148
S'beautiful'
p1149
asg15
g16
sg17
(lp1150
sg19
g1146
sg20
I00
sg21
I00
sg22
g419
sg24
g1149
sba(iironet.simile
Simile
p1151
(dp1152
g3
S'as beautiful as a beast'
p1153
sg5
(lp1154
S'beast'
p1155
asg8
(lp1156
sg10
g11
sg12
(lp1157
S'beautiful'
p1158
asg15
g23
sg17
(lp1159
sg19
g1155
sg20
I00
sg21
I00
sg22
g35
sg24
g1158
sba(iironet.simile
Simile
p1160
(dp1161
g3
S'as beautiful as a crocodile'
p1162
sg5
(lp1163
S'crocodile'
p1164
asg8
(lp1165
sg10
g11
sg12
(lp1166
S'beautiful'
p1167
asg15
g23
sg17
(lp1168
sg19
g1164
sg20
I00
sg21
I00
sg22
g23
sg24
g1167
sba(iironet.simile
Simile
p1169
(dp1170
g3
S'as beautiful as a war_zone'
p1171
sg5
(lp1172
S'war_zone'
p1173
asg8
(lp1174
sg10
g11
sg12
(lp1175
S'beautiful'
p1176
asg15
S'6890000'
p1177
sg17
(lp1178
sg19
g1173
sg20
I00
sg21
I00
sg22
S'6810000'
p1179
sg24
g1176
sba(iironet.simile
Simile
p1180
(dp1181
g3
S'as beautiful as a cactus'
p1182
sg5
(lp1183
S'cactus'
p1184
asg8
(lp1185
sg10
g11
sg12
(lp1186
S'beautiful'
p1187
asg15
g73
sg17
(lp1188
sg19
g1184
sg20
I00
sg21
I00
sg22
g23
sg24
g1187
sba(iironet.simile
Simile
p1189
(dp1190
g3
S'as beautiful as a scarecrow'
p1191
sg5
(lp1192
S'scarecrow'
p1193
asg8
(lp1194
sg10
g11
sg12
(lp1195
S'beautiful'
p1196
asg15
S'577000'
p1197
sg17
(lp1198
sg19
g1193
sg20
I00
sg21
I00
sg22
S'564000'
p1199
sg24
g1196
sba(iironet.simile
Simile
p1200
(dp1201
g3
S'as beautiful as a harp_seal'
p1202
sg5
(lp1203
S'harp_seal'
p1204
asg8
(lp1205
sg10
g11
sg12
(lp1206
S'beautiful'
p1207
asg15
S'2930000'
p1208
sg17
(lp1209
sg19
g1204
sg20
I00
sg21
I00
sg22
g35
sg24
g1207
sba(iironet.simile
Simile
p1210
(dp1211
g3
S'as beautiful as a cow'
p1212
sg5
(lp1213
S'cow'
p1214
asg8
(lp1215
sg10
g11
sg12
(lp1216
S'beautiful'
p1217
asg15
S'147000'
p1218
sg17
(lp1219
sg19
g1214
sg20
I00
sg21
I00
sg22
g35
sg24
g1217
sba(iironet.simile
Simile
p1220
(dp1221
g3
S'as beautiful as a caterpillar'
p1222
sg5
(lp1223
S'caterpillar'
p1224
asg8
(lp1225
sg10
g11
sg12
(lp1226
S'beautiful'
p1227
asg15
S'6'
p1228
sg17
(lp1229
sg19
g1224
sg20
I00
sg21
I00
sg22
g35
sg24
g1227
sba(iironet.simile
Simile
p1230
(dp1231
g3
S'as beautiful as a flea'
p1232
sg5
(lp1233
S'flea'
p1234
asg8
(lp1235
sg10
g11
sg12
(lp1236
S'beautiful'
p1237
asg15
S'18600000'
p1238
sg17
(lp1239
sg19
g1234
sg20
I00
sg21
I00
sg22
S'18600000'
p1240
sg24
g1237
sba(iironet.simile
Simile
p1241
(dp1242
g3
S'as beautiful as a stump'
p1243
sg5
(lp1244
S'stump'
p1245
asg8
(lp1246
sg10
g11
sg12
(lp1247
S'beautiful'
p1248
asg15
S'1460000'
p1249
sg17
(lp1250
sg19
g1245
sg20
I00
sg21
I00
sg22
g35
sg24
g1248
sba(iironet.simile
Simile
p1251
(dp1252
g3
S'as beautiful as a sun'
p1253
sg5
(lp1254
S'sun'
p1255
asg8
(lp1256
sg10
g11
sg12
(lp1257
S'beautiful'
p1258
asg15
S'91900'
p1259
sg17
(lp1260
sg19
g1255
sg20
I00
sg21
I00
sg22
g35
sg24
g1258
sba(iironet.simile
Simile
p1261
(dp1262
g3
S'as sudden as a trickle'
p1263
sg5
(lp1264
S'trickle'
p1265
asg8
(lp1266
sg10
g11
sg12
(lp1267
S'sudden'
p1268
asg15
S'6100000'
p1269
sg17
(lp1270
sg19
g1265
sg20
I00
sg21
I00
sg22
S'5990000'
p1271
sg24
g1268
sba(iironet.simile
Simile
p1272
(dp1273
g3
S'as steep as a trickle'
p1274
sg5
(lp1275
S'trickle'
p1276
asg8
(lp1277
sg10
g11
sg12
(lp1278
S'steep'
p1279
asg15
S'1370000'
p1280
sg17
(lp1281
sg19
g1276
sg20
I00
sg21
I00
sg22
S'1360000'
p1282
sg24
g1279
sba(iironet.simile
Simile
p1283
(dp1284
g3
S'as sudden as a glacier'
p1285
sg5
(lp1286
S'glacier'
p1287
asg8
(lp1288
sg10
g11
sg12
(lp1289
S'sudden'
p1290
asg15
g23
sg17
(lp1291
sg19
g1287
sg20
I00
sg21
I00
sg22
g23
sg24
g1290
sba(iironet.simile
Simile
p1292
(dp1293
g3
S'as steep as a glacier'
p1294
sg5
(lp1295
S'glacier'
p1296
asg8
(lp1297
sg10
g11
sg12
(lp1298
S'steep'
p1299
asg15
g23
sg17
(lp1300
sg19
g1296
sg20
I00
sg21
I00
sg22
g35
sg24
g1299
sba(iironet.simile
Simile
p1301
(dp1302
g3
S'as slow as a cheetah'
p1303
sg5
(lp1304
S'cheetah'
p1305
asg8
(lp1306
sg10
g11
sg12
(lp1307
S'slow'
p1308
asg15
g16
sg17
(lp1309
sg19
g1305
sg20
I00
sg21
I00
sg22
g33
sg24
g1308
sba(iironet.simile
Simile
p1310
(dp1311
g3
S'as slow as a racehorse'
p1312
sg5
(lp1313
S'racehorse'
p1314
asg8
(lp1315
sg10
g11
sg12
(lp1316
S'slow'
p1317
asg15
g23
sg17
(lp1318
sg19
g1314
sg20
I00
sg21
I00
sg22
g35
sg24
g1317
sba(iironet.simile
Simile
p1319
(dp1320
g3
S'as slow as a leopard'
p1321
sg5
(lp1322
S'leopard'
p1323
asg8
(lp1324
sg10
g11
sg12
(lp1325
S'slow'
p1326
asg15
g23
sg17
(lp1327
sg19
g1323
sg20
I00
sg21
I00
sg22
g35
sg24
g1326
sba(iironet.simile
Simile
p1328
(dp1329
g3
S'as slow as a raptor'
p1330
sg5
(lp1331
S'raptor'
p1332
asg8
(lp1333
sg10
g11
sg12
(lp1334
S'slow'
p1335
asg15
g23
sg17
(lp1336
sg19
g1332
sg20
I00
sg21
I00
sg22
g35
sg24
g1335
sba(iironet.simile
Simile
p1337
(dp1338
g3
S'as slow as a meteor'
p1339
sg5
(lp1340
S'meteor'
p1341
asg8
(lp1342
sg10
g11
sg12
(lp1343
S'slow'
p1344
asg15
g1228
sg17
(lp1345
sg19
g1341
sg20
I00
sg21
I00
sg22
g419
sg24
g1344
sba(iironet.simile
Simile
p1346
(dp1347
g3
S'as slow as a hare'
p1348
sg5
(lp1349
S'hare'
p1350
asg8
(lp1351
sg10
g11
sg12
(lp1352
S'slow'
p1353
asg15
g35
sg17
(lp1354
sg19
g1350
sg20
I00
sg21
I00
sg22
g35
sg24
g1353
sba(iironet.simile
Simile
p1355
(dp1356
g3
S'as slow as a hummingbird'
p1357
sg5
(lp1358
S'hummingbird'
p1359
asg8
(lp1360
sg10
g11
sg12
(lp1361
S'slow'
p1362
asg15
S'409000'
p1363
sg17
(lp1364
sg19
g1359
sg20
I00
sg21
I00
sg22
g35
sg24
g1362
sba(iironet.simile
Simile
p1365
(dp1366
g3
S'as slow as a greyhound'
p1367
sg5
(lp1368
S'greyhound'
p1369
asg8
(lp1370
sg10
g11
sg12
(lp1371
S'slow'
p1372
asg15
g73
sg17
(lp1373
sg19
g1369
sg20
I00
sg21
I00
sg22
g35
sg24
g1372
sba(iironet.simile
Simile
p1374
(dp1375
g3
S'as slow as a microwave'
p1376
sg5
(lp1377
S'microwave'
p1378
asg8
(lp1379
sg10
g11
sg12
(lp1380
S'slow'
p1381
asg15
g16
sg17
(lp1382
sg19
g1378
sg20
I00
sg21
I00
sg22
g35
sg24
g1381
sba(iironet.simile
Simile
p1383
(dp1384
g3
S'as slow as an ostrich'
p1385
sg5
(lp1386
S'ostrich'
p1387
asg8
(lp1388
sg10
g158
sg12
(lp1389
S'slow'
p1390
asg15
S'5060000'
p1391
sg17
(lp1392
sg19
g1387
sg20
I00
sg21
I00
sg22
S'5020000'
p1393
sg24
g1390
sba(iironet.simile
Simile
p1394
(dp1395
g3
S'as slow as a roadrunner'
p1396
sg5
(lp1397
S'roadrunner'
p1398
asg8
(lp1399
sg10
g11
sg12
(lp1400
S'slow'
p1401
asg15
g23
sg17
(lp1402
sg19
g1398
sg20
I00
sg21
I00
sg22
g35
sg24
g1401
sba(iironet.simile
Simile
p1403
(dp1404
g3
S'as slow as a missile'
p1405
sg5
(lp1406
S'missile'
p1407
asg8
(lp1408
sg10
g11
sg12
(lp1409
S'slow'
p1410
asg15
g23
sg17
(lp1411
sg19
g1407
sg20
I00
sg21
I00
sg22
g35
sg24
g1410
sba(iironet.simile
Simile
p1412
(dp1413
g3
S'as slow as a rabbit'
p1414
sg5
(lp1415
S'rabbit'
p1416
asg8
(lp1417
sg10
g11
sg12
(lp1418
S'slow'
p1419
asg15
g16
sg17
(lp1420
sg19
g1416
sg20
I00
sg21
I00
sg22
g33
sg24
g1419
sba(iironet.simile
Simile
p1421
(dp1422
g3
S'as slow as a whip'
p1423
sg5
(lp1424
S'whip'
p1425
asg8
(lp1426
sg10
g11
sg12
(lp1427
S'slow'
p1428
asg15
g419
sg17
(lp1429
sg19
g1425
sg20
I00
sg21
I00
sg22
g33
sg24
g1428
sba(iironet.simile
Simile
p1430
(dp1431
g3
S'as slow as a gazelle'
p1432
sg5
(lp1433
S'gazelle'
p1434
asg8
(lp1435
sg10
g11
sg12
(lp1436
S'slow'
p1437
asg15
g23
sg17
(lp1438
sg19
g1434
sg20
I00
sg21
I00
sg22
g35
sg24
g1437
sba(iironet.simile
Simile
p1439
(dp1440
g3
S'as slow as a mustang'
p1441
sg5
(lp1442
S'mustang'
p1443
asg8
(lp1444
sg10
g11
sg12
(lp1445
S'slow'
p1446
asg15
g16
sg17
(lp1447
sg19
g1443
sg20
I00
sg21
I00
sg22
g35
sg24
g1446
sba(iironet.simile
Simile
p1448
(dp1449
g3
S'as slow as a blink'
p1450
sg5
(lp1451
S'blink'
p1452
asg8
(lp1453
sg10
g11
sg12
(lp1454
S'slow'
p1455
asg15
g23
sg17
(lp1456
sg19
g1452
sg20
I00
sg21
I00
sg22
g35
sg24
g1455
sba(iironet.simile
Simile
p1457
(dp1458
g3
S'as slow as a jaguar'
p1459
sg5
(lp1460
S'jaguar'
p1461
asg8
(lp1462
sg10
g11
sg12
(lp1463
S'slow'
p1464
asg15
S'519000'
p1465
sg17
(lp1466
sg19
g1461
sg20
I00
sg21
I00
sg22
S'518000'
p1467
sg24
g1464
sba(iironet.simile
Simile
p1468
(dp1469
g3
S'as slow as a rhinoceros'
p1470
sg5
(lp1471
S'rhinoceros'
p1472
asg8
(lp1473
sg10
g11
sg12
(lp1474
S'slow'
p1475
asg15
g23
sg17
(lp1476
sg19
g1472
sg20
I00
sg21
I00
sg22
g35
sg24
g1475
sba(iironet.simile
Simile
p1477
(dp1478
g3
S'as slow as a comet'
p1479
sg5
(lp1480
S'comet'
p1481
asg8
(lp1482
sg10
g11
sg12
(lp1483
S'slow'
p1484
asg15
g419
sg17
(lp1485
sg19
g1481
sg20
I00
sg21
I00
sg22
g35
sg24
g1484
sba(iironet.simile
Simile
p1486
(dp1487
g3
S'as slow as a microwave_oven'
p1488
sg5
(lp1489
S'microwave_oven'
p1490
asg8
(lp1491
sg10
g11
sg12
(lp1492
S'slow'
p1493
asg15
S'1020000'
p1494
sg17
(lp1495
sg19
g1490
sg20
I00
sg21
I00
sg22
g35
sg24
g1493
sba(iironet.simile
Simile
p1496
(dp1497
g3
S'as slow as a sprinter'
p1498
sg5
(lp1499
S'sprinter'
p1500
asg8
(lp1501
sg10
g11
sg12
(lp1502
S'slow'
p1503
asg15
S'462000'
p1504
sg17
(lp1505
sg19
g1500
sg20
I00
sg21
I00
sg22
g35
sg24
g1503
sba(iironet.simile
Simile
p1506
(dp1507
g3
S'as slow as a jetliner'
p1508
sg5
(lp1509
S'jetliner'
p1510
asg8
(lp1511
sg10
g11
sg12
(lp1512
S'slow'
p1513
asg15
g419
sg17
(lp1514
sg19
g1510
sg20
I00
sg21
I00
sg22
g35
sg24
g1513
sba(iironet.simile
Simile
p1515
(dp1516
g3
S'as slow as a whippet'
p1517
sg5
(lp1518
S'whippet'
p1519
asg8
(lp1520
sg10
g11
sg12
(lp1521
S'slow'
p1522
asg15
S'457000'
p1523
sg17
(lp1524
sg19
g1519
sg20
I00
sg21
I00
sg22
S'442000'
p1525
sg24
g1522
sba(iironet.simile
Simile
p1526
(dp1527
g3
S'as slow as a cobra'
p1528
sg5
(lp1529
S'cobra'
p1530
asg8
(lp1531
sg10
g11
sg12
(lp1532
S'slow'
p1533
asg15
S'482000'
p1534
sg17
(lp1535
sg19
g1530
sg20
I00
sg21
I00
sg22
S'482000'
p1536
sg24
g1533
sba(iironet.simile
Simile
p1537
(dp1538
g3
S'as slow as a polecat'
p1539
sg5
(lp1540
S'polecat'
p1541
asg8
(lp1542
sg10
g11
sg12
(lp1543
S'slow'
p1544
asg15
S'671000'
p1545
sg17
(lp1546
sg19
g1541
sg20
I00
sg21
I00
sg22
S'667000'
p1547
sg24
g1544
sba(iironet.simile
Simile
p1548
(dp1549
g3
S'as slow as a panther'
p1550
sg5
(lp1551
S'panther'
p1552
asg8
(lp1553
sg10
g11
sg12
(lp1554
S'slow'
p1555
asg15
g33
sg17
(lp1556
sg19
g1552
sg20
I00
sg21
I00
sg22
g35
sg24
g1555
sba(iironet.simile
Simile
p1557
(dp1558
g3
S'as slow as a dolphin'
p1559
sg5
(lp1560
S'dolphin'
p1561
asg8
(lp1562
sg10
g11
sg12
(lp1563
S'slow'
p1564
asg15
S'5230000'
p1565
sg17
(lp1566
sg19
g1561
sg20
I00
sg21
I00
sg22
S'5200000'
p1567
sg24
g1564
sba(iironet.simile
Simile
p1568
(dp1569
g3
S'as slow as a cannonball'
p1570
sg5
(lp1571
S'cannonball'
p1572
asg8
(lp1573
sg10
g11
sg12
(lp1574
S'slow'
p1575
asg15
S'444000'
p1576
sg17
(lp1577
sg19
g1572
sg20
I00
sg21
I00
sg22
g35
sg24
g1575
sba(iironet.simile
Simile
p1578
(dp1579
g3
S'as slow as a puma'
p1580
sg5
(lp1581
S'puma'
p1582
asg8
(lp1583
sg10
g11
sg12
(lp1584
S'slow'
p1585
asg15
S'9170000'
p1586
sg17
(lp1587
sg19
g1582
sg20
I00
sg21
I00
sg22
g35
sg24
g1585
sba(iironet.simile
Simile
p1588
(dp1589
g3
S'as slow as a cyclone'
p1590
sg5
(lp1591
S'cyclone'
p1592
asg8
(lp1593
sg10
g11
sg12
(lp1594
S'slow'
p1595
asg15
S'503000'
p1596
sg17
(lp1597
sg19
g1592
sg20
I00
sg21
I00
sg22
g35
sg24
g1595
sba(iironet.simile
Simile
p1598
(dp1599
g3
S'as slow as a horse'
p1600
sg5
(lp1601
S'horse'
p1602
asg8
(lp1603
sg10
g11
sg12
(lp1604
S'slow'
p1605
asg15
S'96800'
p1606
sg17
(lp1607
sg19
g1602
sg20
I00
sg21
I00
sg22
g23
sg24
g1605
sba(iironet.simile
Simile
p1608
(dp1609
g3
S'as slow as an eagle'
p1610
sg5
(lp1611
S'eagle'
p1612
asg8
(lp1613
sg10
g158
sg12
(lp1614
S'slow'
p1615
asg15
g33
sg17
(lp1616
sg19
g1612
sg20
I00
sg21
I00
sg22
g35
sg24
g1615
sba(iironet.simile
Simile
p1617
(dp1618
g3
S'as slow as an athlete'
p1619
sg5
(lp1620
S'athlete'
p1621
asg8
(lp1622
sg10
g158
sg12
(lp1623
S'slow'
p1624
asg15
g23
sg17
(lp1625
sg19
g1621
sg20
I00
sg21
I00
sg22
g35
sg24
g1624
sba(iironet.simile
Simile
p1626
(dp1627
g3
S'as slow as a tiger'
p1628
sg5
(lp1629
S'tiger'
p1630
asg8
(lp1631
sg10
g11
sg12
(lp1632
S'slow'
p1633
asg15
g1228
sg17
(lp1634
sg19
g1630
sg20
I00
sg21
I00
sg22
g23
sg24
g1633
sba(iironet.simile
Simile
p1635
(dp1636
g3
S'as slow as a bobsled'
p1637
sg5
(lp1638
S'bobsled'
p1639
asg8
(lp1640
sg10
g11
sg12
(lp1641
S'slow'
p1642
asg15
g23
sg17
(lp1643
sg19
g1639
sg20
I00
sg21
I00
sg22
g23
sg24
g1642
sba(iironet.simile
Simile
p1644
(dp1645
g3
S'as slow as a bullet_train'
p1646
sg5
(lp1647
S'bullet_train'
p1648
asg8
(lp1649
sg10
g11
sg12
(lp1650
S'slow'
p1651
asg15
g23
sg17
(lp1652
sg19
g1648
sg20
I00
sg21
I00
sg22
g23
sg24
g1651
sba(iironet.simile
Simile
p1653
(dp1654
g3
S'as slow as a falcon'
p1655
sg5
(lp1656
S'falcon'
p1657
asg8
(lp1658
sg10
g11
sg12
(lp1659
S'slow'
p1660
asg15
g33
sg17
(lp1661
sg19
g1657
sg20
I00
sg21
I00
sg22
g33
sg24
g1660
sba(iironet.simile
Simile
p1662
(dp1663
g3
S'as slow as a race_car'
p1664
sg5
(lp1665
S'race_car'
p1666
asg8
(lp1667
sg10
g11
sg12
(lp1668
S'slow'
p1669
asg15
S'52200000'
p1670
sg17
(lp1671
sg19
g1666
sg20
I00
sg21
I00
sg22
S'37900000'
p1672
sg24
g1669
sba(iironet.simile
Simile
p1673
(dp1674
g3
S'as slow as a prairie_fire'
p1675
sg5
(lp1676
S'prairie_fire'
p1677
asg8
(lp1678
sg10
g11
sg12
(lp1679
S'slow'
p1680
asg15
S'1300000'
p1681
sg17
(lp1682
sg19
g1677
sg20
I00
sg21
I00
sg22
S'771000'
p1683
sg24
g1680
sba(iironet.simile
Simile
p1684
(dp1685
g3
S'as slow as a supernova'
p1686
sg5
(lp1687
S'supernova'
p1688
asg8
(lp1689
sg10
g11
sg12
(lp1690
S'slow'
p1691
asg15
S'440000'
p1692
sg17
(lp1693
sg19
g1688
sg20
I00
sg21
I00
sg22
g35
sg24
g1691
sba(isimile
Simile
p1694
(dp1695
g3
S'as awkward as a ballerina'
p1696
sg5
(lp1697
S'ballerina'
p1698
aS'danseuse'
p1699
aS'prima_ballerina'
p1700
asg8
(lp1701
sg10
S'a '
p1702
sg12
(lp1703
S'awkward'
p1704
aS'inconvenient'
p1705
aS'gawky'
p1706
aS'clumsy'
p1707
aS'clunky'
p1708
aS'ungainly'
p1709
aS'unwieldy'
p1710
aS'graceless'
p1711
aS'ungraceful'
p1712
aS'labored'
p1713
aS'laboured'
p1714
aS'strained'
p1715
aS'wooden'
p1716
aS'bunglesome'
p1717
aS'unmanageable'
p1718
aS'cumbersome'
p1719
aS'inapt'
p1720
aS'inept'
p1721
aS'ill-chosen'
p1722
aS'infelicitous'
p1723
aS'embarrassing'
p1724
aS'sticky'
p1725
aS'unenviable'
p1726
aS'difficult'
p1727
aS'hard'
p1728
aS'ill_at_ease'
p1729
aS'uneasy'
p1730
aS'uncomfortable'
p1731
asg15
I2
sg17
(lp1732
S'graceful'
p1733
asg19
g1698
sg20
I00
sg21
I00
sg22
I0
sg24
g1704
sba(isimile
Simile
p1734
(dp1735
g3
S'as awkward as a cat'
p1736
sg5
(lp1737
S'cat'
p1738
aS'true_cat'
p1739
aS'domestic_cat'
p1740
aS'house_cat'
p1741
aS'Felis_domesticus'
p1742
aS'Felis_catus'
p1743
aS'wildcat'
p1744
aS'guy'
p1745
aS'hombre'
p1746
aS'bozo'
p1747
aS'sod'
p1748
aS'kat'
p1749
aS'khat'
p1750
aS'qat'
p1751
aS'quat'
p1752
aS'Arabian_tea'
p1753
aS'African_tea'
p1754
aS"cat-o'-nine-tails"
p1755
aS'Caterpillar'
p1756
aS'big_cat'
p1757
aS'cheetah'
p1758
aS'chetah'
p1759
aS'Acinonyx_jubatus'
p1760
aS'jaguar'
p1761
aS'panther'
p1762
aS'Panthera_onca'
p1763
aS'Felis_onca'
p1764
aS'leopard'
p1765
aS'Panthera_pardus'
p1766
aS'liger'
p1767
aS'lion'
p1768
aS'king_of_beasts'
p1769
aS'Panthera_leo'
p1770
aS'saber-toothed_tiger'
p1771
aS'sabertooth'
p1772
aS'snow_leopard'
p1773
aS'ounce'
p1774
aS'Panthera_uncia'
p1775
aS'tiger'
p1776
aS'Panthera_tigris'
p1777
aS'tiglon'
p1778
aS'tigon'
p1779
aS'computerized_tomography'
p1780
aS'computed_tomography'
p1781
aS'CT'
p1782
aS'computerized_axial_tomography'
p1783
aS'computed_axial_tomography'
p1784
aS'CAT'
p1785
asg8
(lp1786
sg10
g1702
sg12
(lp1787
S'awkward'
p1788
aS'inconvenient'
p1789
aS'gawky'
p1790
aS'clumsy'
p1791
aS'clunky'
p1792
aS'ungainly'
p1793
aS'unwieldy'
p1794
aS'graceless'
p1795
aS'ungraceful'
p1796
aS'labored'
p1797
aS'laboured'
p1798
aS'strained'
p1799
aS'wooden'
p1800
aS'bunglesome'
p1801
aS'unmanageable'
p1802
aS'cumbersome'
p1803
aS'inapt'
p1804
aS'inept'
p1805
aS'ill-chosen'
p1806
aS'infelicitous'
p1807
aS'embarrassing'
p1808
aS'sticky'
p1809
aS'unenviable'
p1810
aS'difficult'
p1811
aS'hard'
p1812
aS'ill_at_ease'
p1813
aS'uneasy'
p1814
aS'uncomfortable'
p1815
asg15
I7
sg17
(lp1816
S'graceful'
p1817
asg19
g1738
sg20
I00
sg21
I00
sg22
I1
sg24
g1788
sba(isimile
Simile
p1818
(dp1819
g3
S'as awkward as a dolphin'
p1820
sg5
(lp1821
S'dolphin'
p1822
aS'dolphinfish'
p1823
aS'mahimahi'
p1824
aS'Coryphaena_equisetis'
p1825
aS'Coryphaena_hippurus'
p1826
aS'bottlenose_dolphin'
p1827
aS'bottle-nosed_dolphin'
p1828
aS'bottlenose'
p1829
aS'common_dolphin'
p1830
aS'Delphinus_delphis'
p1831
aS'grampus'
p1832
aS'Grampus_griseus'
p1833
aS'killer_whale'
p1834
aS'killer'
p1835
aS'orca'
p1836
aS'sea_wolf'
p1837
aS'Orcinus_orca'
p1838
aS'pilot_whale'
p1839
aS'black_whale'
p1840
aS'common_blackfish'
p1841
aS'blackfish'
p1842
aS'Globicephala_melaena'
p1843
aS'porpoise'
p1844
aS'river_dolphin'
p1845
aS'white_whale'
p1846
aS'beluga'
p1847
aS'Delphinapterus_leucas'
p1848
asg8
(lp1849
sg10
g1702
sg12
(lp1850
S'awkward'
p1851
aS'inconvenient'
p1852
aS'gawky'
p1853
aS'clumsy'
p1854
aS'clunky'
p1855
aS'ungainly'
p1856
aS'unwieldy'
p1857
aS'graceless'
p1858
aS'ungraceful'
p1859
aS'labored'
p1860
aS'laboured'
p1861
aS'strained'
p1862
aS'wooden'
p1863
aS'bunglesome'
p1864
aS'unmanageable'
p1865
aS'cumbersome'
p1866
aS'inapt'
p1867
aS'inept'
p1868
aS'ill-chosen'
p1869
aS'infelicitous'
p1870
aS'embarrassing'
p1871
aS'sticky'
p1872
aS'unenviable'
p1873
aS'difficult'
p1874
aS'hard'
p1875
aS'ill_at_ease'
p1876
aS'uneasy'
p1877
aS'uncomfortable'
p1878
asg15
I1
sg17
(lp1879
S'graceful'
p1880
asg19
g1822
sg20
I00
sg21
I00
sg22
I0
sg24
g1851
sba(isimile
Simile
p1881
(dp1882
g3
S'as awkward as a tightrope_walker'
p1883
sg5
(lp1884
S'tightrope_walker'
p1885
aS'funambulist'
p1886
asg8
(lp1887
sg10
g1702
sg12
(lp1888
S'awkward'
p1889
aS'inconvenient'
p1890
aS'gawky'
p1891
aS'clumsy'
p1892
aS'clunky'
p1893
aS'ungainly'
p1894
aS'unwieldy'
p1895
aS'graceless'
p1896
aS'ungraceful'
p1897
aS'labored'
p1898
aS'laboured'
p1899
aS'strained'
p1900
aS'wooden'
p1901
aS'bunglesome'
p1902
aS'unmanageable'
p1903
aS'cumbersome'
p1904
aS'inapt'
p1905
aS'inept'
p1906
aS'ill-chosen'
p1907
aS'infelicitous'
p1908
aS'embarrassing'
p1909
aS'sticky'
p1910
aS'unenviable'
p1911
aS'difficult'
p1912
aS'hard'
p1913
aS'ill_at_ease'
p1914
aS'uneasy'
p1915
aS'uncomfortable'
p1916
asg15
I64000
sg17
(lp1917
S'graceful'
p1918
asg19
g1885
sg20
I00
sg21
I00
sg22
I63700
sg24
g1889
sba(isimile
Simile
p1919
(dp1920
g3
S'as awkward as a matador'
p1921
sg5
(lp1922
S'matador'
p1923
asg8
(lp1924
sg10
g1702
sg12
(lp1925
S'awkward'
p1926
aS'inconvenient'
p1927
aS'gawky'
p1928
aS'clumsy'
p1929
aS'clunky'
p1930
aS'ungainly'
p1931
aS'unwieldy'
p1932
aS'graceless'
p1933
aS'ungraceful'
p1934
aS'labored'
p1935
aS'laboured'
p1936
aS'strained'
p1937
aS'wooden'
p1938
aS'bunglesome'
p1939
aS'unmanageable'
p1940
aS'cumbersome'
p1941
aS'inapt'
p1942
aS'inept'
p1943
aS'ill-chosen'
p1944
aS'infelicitous'
p1945
aS'embarrassing'
p1946
aS'sticky'
p1947
aS'unenviable'
p1948
aS'difficult'
p1949
aS'hard'
p1950
aS'ill_at_ease'
p1951
aS'uneasy'
p1952
aS'uncomfortable'
p1953
asg15
I1380000
sg17
(lp1954
S'graceful'
p1955
asg19
g1923
sg20
I00
sg21
I00
sg22
I1380000
sg24
g1926
sba(isimile
Simile
p1956
(dp1957
g3
S'as awkward as a bride'
p1958
sg5
(lp1959
S'bride'
p1960
aS'war_bride'
p1961
aS'Bridget'
p1962
aS'Saint_Bridget'
p1963
aS'St._Bridget'
p1964
aS'Brigid'
p1965
aS'Saint_Brigid'
p1966
aS'St._Brigid'
p1967
aS'Bride'
p1968
aS'Saint_Bride'
p1969
aS'St._Bride'
p1970
asg8
(lp1971
sg10
g1702
sg12
(lp1972
S'awkward'
p1973
aS'inconvenient'
p1974
aS'gawky'
p1975
aS'clumsy'
p1976
aS'clunky'
p1977
aS'ungainly'
p1978
aS'unwieldy'
p1979
aS'graceless'
p1980
aS'ungraceful'
p1981
aS'labored'
p1982
aS'laboured'
p1983
aS'strained'
p1984
aS'wooden'
p1985
aS'bunglesome'
p1986
aS'unmanageable'
p1987
aS'cumbersome'
p1988
aS'inapt'
p1989
aS'inept'
p1990
aS'ill-chosen'
p1991
aS'infelicitous'
p1992
aS'embarrassing'
p1993
aS'sticky'
p1994
aS'unenviable'
p1995
aS'difficult'
p1996
aS'hard'
p1997
aS'ill_at_ease'
p1998
aS'uneasy'
p1999
aS'uncomfortable'
p2000
asg15
I1
sg17
(lp2001
S'graceful'
p2002
asg19
g1960
sg20
I00
sg21
I00
sg22
I0
sg24
g1973
sba(isimile
Simile
p2003
(dp2004
g3
S'as awkward as a minuet'
p2005
sg5
(lp2006
S'minuet'
p2007
asg8
(lp2008
sg10
g1702
sg12
(lp2009
S'awkward'
p2010
aS'inconvenient'
p2011
aS'gawky'
p2012
aS'clumsy'
p2013
aS'clunky'
p2014
aS'ungainly'
p2015
aS'unwieldy'
p2016
aS'graceless'
p2017
aS'ungraceful'
p2018
aS'labored'
p2019
aS'laboured'
p2020
aS'strained'
p2021
aS'wooden'
p2022
aS'bunglesome'
p2023
aS'unmanageable'
p2024
aS'cumbersome'
p2025
aS'inapt'
p2026
aS'inept'
p2027
aS'ill-chosen'
p2028
aS'infelicitous'
p2029
aS'embarrassing'
p2030
aS'sticky'
p2031
aS'unenviable'
p2032
aS'difficult'
p2033
aS'hard'
p2034
aS'ill_at_ease'
p2035
aS'uneasy'
p2036
aS'uncomfortable'
p2037
asg15
I909000
sg17
(lp2038
S'graceful'
p2039
asg19
g2007
sg20
I00
sg21
I00
sg22
I904000
sg24
g2010
sba(isimile
Simile
p2040
(dp2041
g3
S'as awkward as a prince'
p2042
sg5
(lp2043
S'prince'
p2044
aS'archduke'
p2045
aS'crown_prince'
p2046
aS'dauphin'
p2047
aS'Elector'
p2048
aS'grand_duke'
p2049
aS'maharaja'
p2050
aS'maharajah'
p2051
aS'prince_consort'
p2052
aS'Prince_of_Wales'
p2053
aS'princeling'
p2054
asg8
(lp2055
sg10
g1702
sg12
(lp2056
S'awkward'
p2057
aS'inconvenient'
p2058
aS'gawky'
p2059
aS'clumsy'
p2060
aS'clunky'
p2061
aS'ungainly'
p2062
aS'unwieldy'
p2063
aS'graceless'
p2064
aS'ungraceful'
p2065
aS'labored'
p2066
aS'laboured'
p2067
aS'strained'
p2068
aS'wooden'
p2069
aS'bunglesome'
p2070
aS'unmanageable'
p2071
aS'cumbersome'
p2072
aS'inapt'
p2073
aS'inept'
p2074
aS'ill-chosen'
p2075
aS'infelicitous'
p2076
aS'embarrassing'
p2077
aS'sticky'
p2078
aS'unenviable'
p2079
aS'difficult'
p2080
aS'hard'
p2081
aS'ill_at_ease'
p2082
aS'uneasy'
p2083
aS'uncomfortable'
p2084
asg15
I28200000
sg17
(lp2085
S'graceful'
p2086
asg19
g2044
sg20
I00
sg21
I00
sg22
I27600000
sg24
g2057
sba(isimile
Simile
p2087
(dp2088
g3
S'as awkward as a ballet_master'
p2089
sg5
(lp2090
S'ballet_master'
p2091
asg8
(lp2092
sg10
g1702
sg12
(lp2093
S'awkward'
p2094
aS'inconvenient'
p2095
aS'gawky'
p2096
aS'clumsy'
p2097
aS'clunky'
p2098
aS'ungainly'
p2099
aS'unwieldy'
p2100
aS'graceless'
p2101
aS'ungraceful'
p2102
aS'labored'
p2103
aS'laboured'
p2104
aS'strained'
p2105
aS'wooden'
p2106
aS'bunglesome'
p2107
aS'unmanageable'
p2108
aS'cumbersome'
p2109
aS'inapt'
p2110
aS'inept'
p2111
aS'ill-chosen'
p2112
aS'infelicitous'
p2113
aS'embarrassing'
p2114
aS'sticky'
p2115
aS'unenviable'
p2116
aS'difficult'
p2117
aS'hard'
p2118
aS'ill_at_ease'
p2119
aS'uneasy'
p2120
aS'uncomfortable'
p2121
asg15
I497000
sg17
(lp2122
S'graceful'
p2123
asg19
g2091
sg20
I00
sg21
I00
sg22
I0
sg24
g2094
sba(isimile
Simile
p2124
(dp2125
g3
S'as awkward as a mountain_lion'
p2126
sg5
(lp2127
S'mountain_lion'
p2128
aS'cougar'
p2129
aS'puma'
p2130
aS'catamount'
p2131
aS'painter'
p2132
aS'panther'
p2133
aS'Felis_concolor'
p2134
asg8
(lp2135
sg10
g1702
sg12
(lp2136
S'awkward'
p2137
aS'inconvenient'
p2138
aS'gawky'
p2139
aS'clumsy'
p2140
aS'clunky'
p2141
aS'ungainly'
p2142
aS'unwieldy'
p2143
aS'graceless'
p2144
aS'ungraceful'
p2145
aS'labored'
p2146
aS'laboured'
p2147
aS'strained'
p2148
aS'wooden'
p2149
aS'bunglesome'
p2150
aS'unmanageable'
p2151
aS'cumbersome'
p2152
aS'inapt'
p2153
aS'inept'
p2154
aS'ill-chosen'
p2155
aS'infelicitous'
p2156
aS'embarrassing'
p2157
aS'sticky'
p2158
aS'unenviable'
p2159
aS'difficult'
p2160
aS'hard'
p2161
aS'ill_at_ease'
p2162
aS'uneasy'
p2163
aS'uncomfortable'
p2164
asg15
I1180000
sg17
(lp2165
S'graceful'
p2166
asg19
g2128
sg20
I00
sg21
I00
sg22
I615000
sg24
g2137
sba(isimile
Simile
p2167
(dp2168
g3
S'as awkward as an elephant'
p2169
sg5
(lp2170
S'elephant'
p2171
aS'African_elephant'
p2172
aS'Loxodonta_africana'
p2173
aS'gomphothere'
p2174
aS'Indian_elephant'
p2175
aS'Elephas_maximus'
p2176
aS'mammoth'
p2177
aS'rogue_elephant'
p2178
asg8
(lp2179
sg10
S'an '
p2180
sg12
(lp2181
S'awkward'
p2182
aS'inconvenient'
p2183
aS'gawky'
p2184
aS'clumsy'
p2185
aS'clunky'
p2186
aS'ungainly'
p2187
aS'unwieldy'
p2188
aS'graceless'
p2189
aS'ungraceful'
p2190
aS'labored'
p2191
aS'laboured'
p2192
aS'strained'
p2193
aS'wooden'
p2194
aS'bunglesome'
p2195
aS'unmanageable'
p2196
aS'cumbersome'
p2197
aS'inapt'
p2198
aS'inept'
p2199
aS'ill-chosen'
p2200
aS'infelicitous'
p2201
aS'embarrassing'
p2202
aS'sticky'
p2203
aS'unenviable'
p2204
aS'difficult'
p2205
aS'hard'
p2206
aS'ill_at_ease'
p2207
aS'uneasy'
p2208
aS'uncomfortable'
p2209
asg15
S'4750'
p2210
sg17
(lp2211
S'graceful'
p2212
asg19
g2171
sg20
I00
sg21
I00
sg22
S'8'
p2213
sg24
g2182
sba(isimile
Simile
p2214
(dp2215
g3
S'as awkward as a truck'
p2216
sg5
(lp2217
S'truck'
p2218
aS'motortruck'
p2219
aS'dump_truck'
p2220
aS'dumper'
p2221
aS'tipper_truck'
p2222
aS'tipper_lorry'
p2223
aS'tip_truck'
p2224
aS'tipper'
p2225
aS'fire_engine'
p2226
aS'fire_truck'
p2227
aS'garbage_truck'
p2228
aS'dustcart'
p2229
aS'lorry'
p2230
aS'camion'
p2231
aS'pickup'
p2232
aS'pickup_truck'
p2233
aS'sound_truck'
p2234
aS'tow_truck'
p2235
aS'tow_car'
p2236
aS'wrecker'
p2237
aS'tractor'
p2238
aS'trailer_truck'
p2239
aS'tractor_trailer'
p2240
aS'trucking_rig'
p2241
aS'rig'
p2242
aS'articulated_lorry'
p2243
aS'semi'
p2244
aS'transporter'
p2245
aS'car_transporter'
p2246
aS'van'
p2247
aS'hand_truck'
p2248
asg8
(lp2249
sg10
g1702
sg12
(lp2250
S'awkward'
p2251
aS'inconvenient'
p2252
aS'gawky'
p2253
aS'clumsy'
p2254
aS'clunky'
p2255
aS'ungainly'
p2256
aS'unwieldy'
p2257
aS'graceless'
p2258
aS'ungraceful'
p2259
aS'labored'
p2260
aS'laboured'
p2261
aS'strained'
p2262
aS'wooden'
p2263
aS'bunglesome'
p2264
aS'unmanageable'
p2265
aS'cumbersome'
p2266
aS'inapt'
p2267
aS'inept'
p2268
aS'ill-chosen'
p2269
aS'infelicitous'
p2270
aS'embarrassing'
p2271
aS'sticky'
p2272
aS'unenviable'
p2273
aS'difficult'
p2274
aS'hard'
p2275
aS'ill_at_ease'
p2276
aS'uneasy'
p2277
aS'uncomfortable'
p2278
asg15
I0
sg17
(lp2279
S'graceful'
p2280
asg19
g2218
sg20
I00
sg21
I00
sg22
I0
sg24
g2251
sba(isimile
Simile
p2281
(dp2282
g3
S'as awkward as a dinosaur'
p2283
sg5
(lp2284
S'dinosaur'
p2285
aS'argentinosaur'
p2286
aS'diplodocus'
p2287
aS'ground-shaker'
p2288
aS'seismosaur'
p2289
aS'iguanodon'
p2290
aS'ornithischian'
p2291
aS'ornithischian_dinosaur'
p2292
aS'saurischian'
p2293
aS'saurischian_dinosaur'
p2294
aS'titanosaur'
p2295
aS'titanosaurian'
p2296
asg8
(lp2297
sg10
g1702
sg12
(lp2298
S'awkward'
p2299
aS'inconvenient'
p2300
aS'gawky'
p2301
aS'clumsy'
p2302
aS'clunky'
p2303
aS'ungainly'
p2304
aS'unwieldy'
p2305
aS'graceless'
p2306
aS'ungraceful'
p2307
aS'labored'
p2308
aS'laboured'
p2309
aS'strained'
p2310
aS'wooden'
p2311
aS'bunglesome'
p2312
aS'unmanageable'
p2313
aS'cumbersome'
p2314
aS'inapt'
p2315
aS'inept'
p2316
aS'ill-chosen'
p2317
aS'infelicitous'
p2318
aS'embarrassing'
p2319
aS'sticky'
p2320
aS'unenviable'
p2321
aS'difficult'
p2322
aS'hard'
p2323
aS'ill_at_ease'
p2324
aS'uneasy'
p2325
aS'uncomfortable'
p2326
asg15
I584000
sg17
(lp2327
S'graceful'
p2328
asg19
g2285
sg20
I00
sg21
I00
sg22
I429000
sg24
g2299
sba(isimile
Simile
p2329
(dp2330
g3
S'as awkward as a walrus'
p2331
sg5
(lp2332
S'walrus'
p2333
aS'seahorse'
p2334
aS'sea_horse'
p2335
aS'Atlantic_walrus'
p2336
aS'Odobenus_rosmarus'
p2337
aS'Pacific_walrus'
p2338
aS'Odobenus_divergens'
p2339
asg8
(lp2340
sg10
g1702
sg12
(lp2341
S'awkward'
p2342
aS'inconvenient'
p2343
aS'gawky'
p2344
aS'clumsy'
p2345
aS'clunky'
p2346
aS'ungainly'
p2347
aS'unwieldy'
p2348
aS'graceless'
p2349
aS'ungraceful'
p2350
aS'labored'
p2351
aS'laboured'
p2352
aS'strained'
p2353
aS'wooden'
p2354
aS'bunglesome'
p2355
aS'unmanageable'
p2356
aS'cumbersome'
p2357
aS'inapt'
p2358
aS'inept'
p2359
aS'ill-chosen'
p2360
aS'infelicitous'
p2361
aS'embarrassing'
p2362
aS'sticky'
p2363
aS'unenviable'
p2364
aS'difficult'
p2365
aS'hard'
p2366
aS'ill_at_ease'
p2367
aS'uneasy'
p2368
aS'uncomfortable'
p2369
asg15
I3
sg17
(lp2370
S'graceful'
p2371
asg19
g2333
sg20
I00
sg21
I00
sg22
I1
sg24
g2342
sba(isimile
Simile
p2372
(dp2373
g3
S'as awkward as a battering_ram'
p2374
sg5
(lp2375
S'battering_ram'
p2376
asg8
(lp2377
sg10
g1702
sg12
(lp2378
S'awkward'
p2379
aS'inconvenient'
p2380
aS'gawky'
p2381
aS'clumsy'
p2382
aS'clunky'
p2383
aS'ungainly'
p2384
aS'unwieldy'
p2385
aS'graceless'
p2386
aS'ungraceful'
p2387
aS'labored'
p2388
aS'laboured'
p2389
aS'strained'
p2390
aS'wooden'
p2391
aS'bunglesome'
p2392
aS'unmanageable'
p2393
aS'cumbersome'
p2394
aS'inapt'
p2395
aS'inept'
p2396
aS'ill-chosen'
p2397
aS'infelicitous'
p2398
aS'embarrassing'
p2399
aS'sticky'
p2400
aS'unenviable'
p2401
aS'difficult'
p2402
aS'hard'
p2403
aS'ill_at_ease'
p2404
aS'uneasy'
p2405
aS'uncomfortable'
p2406
asg15
I203000
sg17
(lp2407
S'graceful'
p2408
asg19
g2376
sg20
I00
sg21
I00
sg22
I0
sg24
g2379
sba(isimile
Simile
p2409
(dp2410
g3
S'as inactive as a beehive'
p2411
sg5
(lp2412
S'beehive'
p2413
aS'hive'
p2414
aS'skep'
p2415
asg8
(lp2416
sg10
g1702
sg12
(lp2417
S'inactive'
p2418
aS'unreactive'
p2419
aS'dead-end'
p2420
aS'flat'
p2421
aS'indolent'
p2422
aS'latent'
p2423
aS'quiescent'
p2424
aS'nonoperational'
p2425
aS'dormant'
p2426
aS'passive'
p2427
aS'hands-off'
p2428
aS'resistless'
p2429
aS'supine'
p2430
aS'unresisting'
p2431
aS'dark'
p2432
aS'dead'
p2433
aS'dull'
p2434
aS'slow'
p2435
aS'sluggish'
p2436
aS'idle'
p2437
aS'unused'
p2438
aS'strikebound'
p2439
aS'off'
p2440
aS'retired'
p2441
aS'abeyant'
p2442
aS'desk-bound'
p2443
aS'deskbound'
p2444
aS'hypoactive'
p2445
aS'underactive'
p2446
aS'inert'
p2447
aS'soggy'
p2448
aS'torpid'
p2449
aS'sedentary'
p2450
aS'motionless'
p2451
aS'static'
p2452
aS'still'
p2453
aS'nonmoving'
p2454
aS'unmoving'
p2455
asg15
I238000
sg17
(lp2456
S'active'
p2457
aS'operational'
p2458
asg19
g2413
sg20
I00
sg21
I00
sg22
I237000
sg24
g2418
sba(isimile
Simile
p2459
(dp2460
g3
S'as quiet as a beehive'
p2461
sg5
(lp2462
g2413
aS'hive'
p2463
aS'skep'
p2464
asg8
(lp2465
sg10
g1702
sg12
(lp2466
S'quiet'
p2467
aS'quiescent'
p2468
aS'untroubled'
p2469
aS'noiseless'
p2470
aS'silent'
p2471
aS'soundless'
p2472
aS'still'
p2473
aS'stilly'
p2474
aS'tiptoe'
p2475
aS'restrained'
p2476
aS'unostentatious'
p2477
aS'unpretentious'
p2478
aS'unpretending'
p2479
aS'hushed'
p2480
aS'muted'
p2481
aS'subdued'
p2482
aS'soft'
p2483
aS'placid'
p2484
aS'tranquil'
p2485
aS'smooth'
p2486
aS'unruffled'
p2487
aS'calm'
p2488
asg15
I3440000
sg17
(lp2489
S'unquiet'
p2490
aS'noisy'
p2491
aS'active'
p2492
asg19
g2413
sg20
I00
sg21
I00
sg22
I472000
sg24
g2467
sba(isimile
Simile
p2493
(dp2494
g3
S'as extinct as a beehive'
p2495
sg5
(lp2496
g2413
aS'hive'
p2497
aS'skep'
p2498
asg8
(lp2499
sg10
g1702
sg12
(lp2500
S'extinct'
p2501
aS'nonextant'
p2502
aS'dead'
p2503
aS'out'
p2504
asg15
I512000
sg17
(lp2505
S'extant'
p2506
aS'active'
p2507
asg19
g2413
sg20
I00
sg21
I00
sg22
I512000
sg24
g2501
sba(isimile
Simile
p2508
(dp2509
g3
S'as inactive as a bee'
p2510
sg5
(lp2511
S'bee'
p2512
aS'andrena'
p2513
aS'andrenid'
p2514
aS'mining_bee'
p2515
aS'bumblebee'
p2516
aS'humblebee'
p2517
aS'carpenter_bee'
p2518
aS'cuckoo-bumblebee'
p2519
aS'drone'
p2520
aS'honeybee'
p2521
aS'Apis_mellifera'
p2522
aS'leaf-cutting_bee'
p2523
aS'leaf-cutter'
p2524
aS'leaf-cutter_bee'
p2525
aS'mason_bee'
p2526
aS'Nomia_melanderi'
p2527
aS'alkali_bee'
p2528
aS'potter_bee'
p2529
aS'husking_bee'
p2530
aS'cornhusking'
p2531
aS'quilting_bee'
p2532
asg8
(lp2533
sg10
g1702
sg12
(lp2534
S'inactive'
p2535
aS'unreactive'
p2536
aS'dead-end'
p2537
aS'flat'
p2538
aS'indolent'
p2539
aS'latent'
p2540
aS'quiescent'
p2541
aS'nonoperational'
p2542
aS'dormant'
p2543
aS'passive'
p2544
aS'hands-off'
p2545
aS'resistless'
p2546
aS'supine'
p2547
aS'unresisting'
p2548
aS'dark'
p2549
aS'dead'
p2550
aS'dull'
p2551
aS'slow'
p2552
aS'sluggish'
p2553
aS'idle'
p2554
aS'unused'
p2555
aS'strikebound'
p2556
aS'off'
p2557
aS'retired'
p2558
aS'abeyant'
p2559
aS'desk-bound'
p2560
aS'deskbound'
p2561
aS'hypoactive'
p2562
aS'underactive'
p2563
aS'inert'
p2564
aS'soggy'
p2565
aS'torpid'
p2566
aS'sedentary'
p2567
aS'motionless'
p2568
aS'static'
p2569
aS'still'
p2570
aS'nonmoving'
p2571
aS'unmoving'
p2572
asg15
I9030000
sg17
(lp2573
S'active'
p2574
aS'operational'
p2575
asg19
g2512
sg20
I00
sg21
I00
sg22
I0
sg24
g2535
sba(isimile
Simile
p2576
(dp2577
g3
S'as quiet as a bee'
p2578
sg5
(lp2579
g2512
aS'andrena'
p2580
aS'andrenid'
p2581
aS'mining_bee'
p2582
aS'bumblebee'
p2583
aS'humblebee'
p2584
aS'carpenter_bee'
p2585
aS'cuckoo-bumblebee'
p2586
aS'drone'
p2587
aS'honeybee'
p2588
aS'Apis_mellifera'
p2589
aS'leaf-cutting_bee'
p2590
aS'leaf-cutter'
p2591
aS'leaf-cutter_bee'
p2592
aS'mason_bee'
p2593
aS'Nomia_melanderi'
p2594
aS'alkali_bee'
p2595
aS'potter_bee'
p2596
aS'husking_bee'
p2597
aS'cornhusking'
p2598
aS'quilting_bee'
p2599
asg8
(lp2600
sg10
g1702
sg12
(lp2601
S'quiet'
p2602
aS'quiescent'
p2603
aS'untroubled'
p2604
aS'noiseless'
p2605
aS'silent'
p2606
aS'soundless'
p2607
aS'still'
p2608
aS'stilly'
p2609
aS'tiptoe'
p2610
aS'restrained'
p2611
aS'unostentatious'
p2612
aS'unpretentious'
p2613
aS'unpretending'
p2614
aS'hushed'
p2615
aS'muted'
p2616
aS'subdued'
p2617
aS'soft'
p2618
aS'placid'
p2619
aS'tranquil'
p2620
aS'smooth'
p2621
aS'unruffled'
p2622
aS'calm'
p2623
asg15
I46900
sg17
(lp2624
S'unquiet'
p2625
aS'noisy'
p2626
aS'active'
p2627
asg19
g2512
sg20
I00
sg21
I00
sg22
I0
sg24
g2602
sba(isimile
Simile
p2628
(dp2629
g3
S'as extinct as a bee'
p2630
sg5
(lp2631
g2512
aS'andrena'
p2632
aS'andrenid'
p2633
aS'mining_bee'
p2634
aS'bumblebee'
p2635
aS'humblebee'
p2636
aS'carpenter_bee'
p2637
aS'cuckoo-bumblebee'
p2638
aS'drone'
p2639
aS'honeybee'
p2640
aS'Apis_mellifera'
p2641
aS'leaf-cutting_bee'
p2642
aS'leaf-cutter'
p2643
aS'leaf-cutter_bee'
p2644
aS'mason_bee'
p2645
aS'Nomia_melanderi'
p2646
aS'alkali_bee'
p2647
aS'potter_bee'
p2648
aS'husking_bee'
p2649
aS'cornhusking'
p2650
aS'quilting_bee'
p2651
asg8
(lp2652
sg10
g1702
sg12
(lp2653
S'extinct'
p2654
aS'nonextant'
p2655
aS'dead'
p2656
aS'out'
p2657
asg15
I558000
sg17
(lp2658
S'extant'
p2659
aS'active'
p2660
asg19
g2512
sg20
I00
sg21
I00
sg22
I537000
sg24
g2654
sba(isimile
Simile
p2661
(dp2662
g3
S'as inactive as a squirrel'
p2663
sg5
(lp2664
S'squirrel'
p2665
aS'American_flying_squirrel'
p2666
aS'Asiatic_flying_squirrel'
p2667
aS'baronduki'
p2668
aS'baranduki'
p2669
aS'barunduki'
p2670
aS'burunduki'
p2671
aS'Eutamius_asiaticus'
p2672
aS'Eutamius_sibiricus'
p2673
aS'chipmunk'
p2674
aS'eastern_chipmunk'
p2675
aS'hackee'
p2676
aS'striped_squirrel'
p2677
aS'ground_squirrel'
p2678
aS'Tamias_striatus'
p2679
aS'gopher'
p2680
aS'spermophile'
p2681
aS'tree_squirrel'
p2682
asg8
(lp2683
sg10
g1702
sg12
(lp2684
S'inactive'
p2685
aS'unreactive'
p2686
aS'dead-end'
p2687
aS'flat'
p2688
aS'indolent'
p2689
aS'latent'
p2690
aS'quiescent'
p2691
aS'nonoperational'
p2692
aS'dormant'
p2693
aS'passive'
p2694
aS'hands-off'
p2695
aS'resistless'
p2696
aS'supine'
p2697
aS'unresisting'
p2698
aS'dark'
p2699
aS'dead'
p2700
aS'dull'
p2701
aS'slow'
p2702
aS'sluggish'
p2703
aS'idle'
p2704
aS'unused'
p2705
aS'strikebound'
p2706
aS'off'
p2707
aS'retired'
p2708
aS'abeyant'
p2709
aS'desk-bound'
p2710
aS'deskbound'
p2711
aS'hypoactive'
p2712
aS'underactive'
p2713
aS'inert'
p2714
aS'soggy'
p2715
aS'torpid'
p2716
aS'sedentary'
p2717
aS'motionless'
p2718
aS'static'
p2719
aS'still'
p2720
aS'nonmoving'
p2721
aS'unmoving'
p2722
asg15
I1170000
sg17
(lp2723
S'active'
p2724
aS'operational'
p2725
asg19
g2665
sg20
I00
sg21
I00
sg22
I1170000
sg24
g2685
sba(isimile
Simile
p2726
(dp2727
g3
S'as quiet as a squirrel'
p2728
sg5
(lp2729
g2665
aS'American_flying_squirrel'
p2730
aS'Asiatic_flying_squirrel'
p2731
aS'baronduki'
p2732
aS'baranduki'
p2733
aS'barunduki'
p2734
aS'burunduki'
p2735
aS'Eutamius_asiaticus'
p2736
aS'Eutamius_sibiricus'
p2737
aS'chipmunk'
p2738
aS'eastern_chipmunk'
p2739
aS'hackee'
p2740
aS'striped_squirrel'
p2741
aS'ground_squirrel'
p2742
aS'Tamias_striatus'
p2743
aS'gopher'
p2744
aS'spermophile'
p2745
aS'tree_squirrel'
p2746
asg8
(lp2747
sg10
g1702
sg12
(lp2748
S'quiet'
p2749
aS'quiescent'
p2750
aS'untroubled'
p2751
aS'noiseless'
p2752
aS'silent'
p2753
aS'soundless'
p2754
aS'still'
p2755
aS'stilly'
p2756
aS'tiptoe'
p2757
aS'restrained'
p2758
aS'unostentatious'
p2759
aS'unpretentious'
p2760
aS'unpretending'
p2761
aS'hushed'
p2762
aS'muted'
p2763
aS'subdued'
p2764
aS'soft'
p2765
aS'placid'
p2766
aS'tranquil'
p2767
aS'smooth'
p2768
aS'unruffled'
p2769
aS'calm'
p2770
asg15
I5
sg17
(lp2771
S'unquiet'
p2772
aS'noisy'
p2773
aS'active'
p2774
asg19
g2665
sg20
I00
sg21
I00
sg22
I0
sg24
g2749
sba(isimile
Simile
p2775
(dp2776
g3
S'as extinct as a squirrel'
p2777
sg5
(lp2778
g2665
aS'American_flying_squirrel'
p2779
aS'Asiatic_flying_squirrel'
p2780
aS'baronduki'
p2781
aS'baranduki'
p2782
aS'barunduki'
p2783
aS'burunduki'
p2784
aS'Eutamius_asiaticus'
p2785
aS'Eutamius_sibiricus'
p2786
aS'chipmunk'
p2787
aS'eastern_chipmunk'
p2788
aS'hackee'
p2789
aS'striped_squirrel'
p2790
aS'ground_squirrel'
p2791
aS'Tamias_striatus'
p2792
aS'gopher'
p2793
aS'spermophile'
p2794
aS'tree_squirrel'
p2795
asg8
(lp2796
sg10
g1702
sg12
(lp2797
S'extinct'
p2798
aS'nonextant'
p2799
aS'dead'
p2800
aS'out'
p2801
asg15
I434000
sg17
(lp2802
S'extant'
p2803
aS'active'
p2804
asg19
g2665
sg20
I00
sg21
I00
sg22
I0
sg24
g2798
sba(isimile
Simile
p2805
(dp2806
g3
S'as inactive as an anthill'
p2807
sg5
(lp2808
S'anthill'
p2809
aS'formicary'
p2810
asg8
(lp2811
sg10
g2180
sg12
(lp2812
S'inactive'
p2813
aS'unreactive'
p2814
aS'dead-end'
p2815
aS'flat'
p2816
aS'indolent'
p2817
aS'latent'
p2818
aS'quiescent'
p2819
aS'nonoperational'
p2820
aS'dormant'
p2821
aS'passive'
p2822
aS'hands-off'
p2823
aS'resistless'
p2824
aS'supine'
p2825
aS'unresisting'
p2826
aS'dark'
p2827
aS'dead'
p2828
aS'dull'
p2829
aS'slow'
p2830
aS'sluggish'
p2831
aS'idle'
p2832
aS'unused'
p2833
aS'strikebound'
p2834
aS'off'
p2835
aS'retired'
p2836
aS'abeyant'
p2837
aS'desk-bound'
p2838
aS'deskbound'
p2839
aS'hypoactive'
p2840
aS'underactive'
p2841
aS'inert'
p2842
aS'soggy'
p2843
aS'torpid'
p2844
aS'sedentary'
p2845
aS'motionless'
p2846
aS'static'
p2847
aS'still'
p2848
aS'nonmoving'
p2849
aS'unmoving'
p2850
asg15
I72900
sg17
(lp2851
S'active'
p2852
aS'operational'
p2853
asg19
g2809
sg20
I00
sg21
I00
sg22
I0
sg24
g2813
sba(isimile
Simile
p2854
(dp2855
g3
S'as quiet as an anthill'
p2856
sg5
(lp2857
g2809
aS'formicary'
p2858
asg8
(lp2859
sg10
g2180
sg12
(lp2860
S'quiet'
p2861
aS'quiescent'
p2862
aS'untroubled'
p2863
aS'noiseless'
p2864
aS'silent'
p2865
aS'soundless'
p2866
aS'still'
p2867
aS'stilly'
p2868
aS'tiptoe'
p2869
aS'restrained'
p2870
aS'unostentatious'
p2871
aS'unpretentious'
p2872
aS'unpretending'
p2873
aS'hushed'
p2874
aS'muted'
p2875
aS'subdued'
p2876
aS'soft'
p2877
aS'placid'
p2878
aS'tranquil'
p2879
aS'smooth'
p2880
aS'unruffled'
p2881
aS'calm'
p2882
asg15
I1
sg17
(lp2883
S'unquiet'
p2884
aS'noisy'
p2885
aS'active'
p2886
asg19
g2809
sg20
I00
sg21
I00
sg22
I0
sg24
g2861
sba(isimile
Simile
p2887
(dp2888
g3
S'as extinct as an anthill'
p2889
sg5
(lp2890
g2809
aS'formicary'
p2891
asg8
(lp2892
sg10
g2180
sg12
(lp2893
S'extinct'
p2894
aS'nonextant'
p2895
aS'dead'
p2896
aS'out'
p2897
asg15
I209000
sg17
(lp2898
S'extant'
p2899
aS'active'
p2900
asg19
g2809
sg20
I00
sg21
I00
sg22
I209000
sg24
g2894
sba(isimile
Simile
p2901
(dp2902
g3
S'as inactive as an adventure'
p2903
sg5
(lp2904
S'adventure'
p2905
aS'escapade'
p2906
aS'risky_venture'
p2907
aS'dangerous_undertaking'
p2908
asg8
(lp2909
sg10
g2180
sg12
(lp2910
S'inactive'
p2911
aS'unreactive'
p2912
aS'dead-end'
p2913
aS'flat'
p2914
aS'indolent'
p2915
aS'latent'
p2916
aS'quiescent'
p2917
aS'nonoperational'
p2918
aS'dormant'
p2919
aS'passive'
p2920
aS'hands-off'
p2921
aS'resistless'
p2922
aS'supine'
p2923
aS'unresisting'
p2924
aS'dark'
p2925
aS'dead'
p2926
aS'dull'
p2927
aS'slow'
p2928
aS'sluggish'
p2929
aS'idle'
p2930
aS'unused'
p2931
aS'strikebound'
p2932
aS'off'
p2933
aS'retired'
p2934
aS'abeyant'
p2935
aS'desk-bound'
p2936
aS'deskbound'
p2937
aS'hypoactive'
p2938
aS'underactive'
p2939
aS'inert'
p2940
aS'soggy'
p2941
aS'torpid'
p2942
aS'sedentary'
p2943
aS'motionless'
p2944
aS'static'
p2945
aS'still'
p2946
aS'nonmoving'
p2947
aS'unmoving'
p2948
asg15
I39500000
sg17
(lp2949
S'active'
p2950
aS'operational'
p2951
asg19
g2905
sg20
I00
sg21
I00
sg22
I0
sg24
g2911
sba(isimile
Simile
p2952
(dp2953
g3
S'as quiet as an adventure'
p2954
sg5
(lp2955
g2905
aS'escapade'
p2956
aS'risky_venture'
p2957
aS'dangerous_undertaking'
p2958
asg8
(lp2959
sg10
g2180
sg12
(lp2960
S'quiet'
p2961
aS'quiescent'
p2962
aS'untroubled'
p2963
aS'noiseless'
p2964
aS'silent'
p2965
aS'soundless'
p2966
aS'still'
p2967
aS'stilly'
p2968
aS'tiptoe'
p2969
aS'restrained'
p2970
aS'unostentatious'
p2971
aS'unpretentious'
p2972
aS'unpretending'
p2973
aS'hushed'
p2974
aS'muted'
p2975
aS'subdued'
p2976
aS'soft'
p2977
aS'placid'
p2978
aS'tranquil'
p2979
aS'smooth'
p2980
aS'unruffled'
p2981
aS'calm'
p2982
asg15
I1
sg17
(lp2983
S'unquiet'
p2984
aS'noisy'
p2985
aS'active'
p2986
asg19
g2905
sg20
I00
sg21
I00
sg22
I0
sg24
g2961
sba(isimile
Simile
p2987
(dp2988
g3
S'as extinct as an adventure'
p2989
sg5
(lp2990
g2905
aS'escapade'
p2991
aS'risky_venture'
p2992
aS'dangerous_undertaking'
p2993
asg8
(lp2994
sg10
g2180
sg12
(lp2995
S'extinct'
p2996
aS'nonextant'
p2997
aS'dead'
p2998
aS'out'
p2999
asg15
I643000
sg17
(lp3000
S'extant'
p3001
aS'active'
p3002
asg19
g2905
sg20
I00
sg21
I00
sg22
I635000
sg24
g2996
sba(isimile
Simile
p3003
(dp3004
g3
S'as inactive as a brain'
p3005
sg5
(lp3006
S'brain'
p3007
aS'encephalon'
p3008
aS'brainpower'
p3009
aS'learning_ability'
p3010
aS'mental_capacity'
p3011
aS'mentality'
p3012
aS'wit'
p3013
aS'mind'
p3014
aS'head'
p3015
aS'psyche'
p3016
aS'nous'
p3017
aS'ego'
p3018
aS'noddle'
p3019
aS'subconscious_mind'
p3020
aS'subconscious'
p3021
aS'tabula_rasa'
p3022
aS'unconscious_mind'
p3023
aS'unconscious'
p3024
aS'genius'
p3025
aS'mastermind'
p3026
aS'brainiac'
p3027
aS'Einstein'
p3028
aS'prodigy'
p3029
aS"calf's_brain"
p3030
asg8
(lp3031
sg10
g1702
sg12
(lp3032
S'inactive'
p3033
aS'unreactive'
p3034
aS'dead-end'
p3035
aS'flat'
p3036
aS'indolent'
p3037
aS'latent'
p3038
aS'quiescent'
p3039
aS'nonoperational'
p3040
aS'dormant'
p3041
aS'passive'
p3042
aS'hands-off'
p3043
aS'resistless'
p3044
aS'supine'
p3045
aS'unresisting'
p3046
aS'dark'
p3047
aS'dead'
p3048
aS'dull'
p3049
aS'slow'
p3050
aS'sluggish'
p3051
aS'idle'
p3052
aS'unused'
p3053
aS'strikebound'
p3054
aS'off'
p3055
aS'retired'
p3056
aS'abeyant'
p3057
aS'desk-bound'
p3058
aS'deskbound'
p3059
aS'hypoactive'
p3060
aS'underactive'
p3061
aS'inert'
p3062
aS'soggy'
p3063
aS'torpid'
p3064
aS'sedentary'
p3065
aS'motionless'
p3066
aS'static'
p3067
aS'still'
p3068
aS'nonmoving'
p3069
aS'unmoving'
p3070
asg15
I27300000
sg17
(lp3071
S'active'
p3072
aS'operational'
p3073
asg19
g3007
sg20
I00
sg21
I00
sg22
I25700000
sg24
g3033
sba(isimile
Simile
p3074
(dp3075
g3
S'as quiet as a brain'
p3076
sg5
(lp3077
g3007
aS'encephalon'
p3078
aS'brainpower'
p3079
aS'learning_ability'
p3080
aS'mental_capacity'
p3081
aS'mentality'
p3082
aS'wit'
p3083
aS'mind'
p3084
aS'head'
p3085
aS'psyche'
p3086
aS'nous'
p3087
aS'ego'
p3088
aS'noddle'
p3089
aS'subconscious_mind'
p3090
aS'subconscious'
p3091
aS'tabula_rasa'
p3092
aS'unconscious_mind'
p3093
aS'unconscious'
p3094
aS'genius'
p3095
aS'mastermind'
p3096
aS'brainiac'
p3097
aS'Einstein'
p3098
aS'prodigy'
p3099
aS"calf's_brain"
p3100
asg8
(lp3101
sg10
g1702
sg12
(lp3102
S'quiet'
p3103
aS'quiescent'
p3104
aS'untroubled'
p3105
aS'noiseless'
p3106
aS'silent'
p3107
aS'soundless'
p3108
aS'still'
p3109
aS'stilly'
p3110
aS'tiptoe'
p3111
aS'restrained'
p3112
aS'unostentatious'
p3113
aS'unpretentious'
p3114
aS'unpretending'
p3115
aS'hushed'
p3116
aS'muted'
p3117
aS'subdued'
p3118
aS'soft'
p3119
aS'placid'
p3120
aS'tranquil'
p3121
aS'smooth'
p3122
aS'unruffled'
p3123
aS'calm'
p3124
asg15
I1990000
sg17
(lp3125
S'unquiet'
p3126
aS'noisy'
p3127
aS'active'
p3128
asg19
g3007
sg20
I00
sg21
I00
sg22
I0
sg24
g3103
sba(isimile
Simile
p3129
(dp3130
g3
S'as awkward as a dancer'
p3131
sg5
(lp3132
S'dancer'
p3133
aS'professional_dancer'
p3134
aS'terpsichorean'
p3135
aS'ballet_dancer'
p3136
aS'ballet_master'
p3137
aS'ballet_mistress'
p3138
aS'belly_dancer'
p3139
aS'exotic_belly_dancer'
p3140
aS'exotic_dancer'
p3141
aS'chorus_girl'
p3142
aS'showgirl'
p3143
aS'chorine'
p3144
aS'dancing-master'
p3145
aS'dance_master'
p3146
aS'hoofer'
p3147
aS'stepper'
p3148
aS'kachina'
p3149
aS'nautch_girl'
p3150
aS'tap_dancer'
p3151
aS'tapper'
p3152
aS'taxi_dancer'
p3153
aS'social_dancer'
p3154
aS'clog_dancer'
p3155
aS'dancing_partner'
p3156
aS'folk_dancer'
p3157
aS'raver'
p3158
aS'waltzer'
p3159
asg8
(lp3160
sg10
S'a '
p3161
sg12
(lp3162
S'awkward'
p3163
aS'inconvenient'
p3164
aS'gawky'
p3165
aS'clumsy'
p3166
aS'clunky'
p3167
aS'ungainly'
p3168
aS'unwieldy'
p3169
aS'graceless'
p3170
aS'ungraceful'
p3171
aS'labored'
p3172
aS'laboured'
p3173
aS'strained'
p3174
aS'wooden'
p3175
aS'bunglesome'
p3176
aS'unmanageable'
p3177
aS'cumbersome'
p3178
aS'inapt'
p3179
aS'inept'
p3180
aS'ill-chosen'
p3181
aS'infelicitous'
p3182
aS'embarrassing'
p3183
aS'sticky'
p3184
aS'unenviable'
p3185
aS'difficult'
p3186
aS'hard'
p3187
aS'ill_at_ease'
p3188
aS'uneasy'
p3189
aS'uncomfortable'
p3190
asg15
I2
sg17
(lp3191
S'graceful'
p3192
asg19
g3133
sg20
I00
sg21
I00
sg22
I0
sg24
g3163
sba(isimile
Simile
p3193
(dp3194
g3
S'as awkward as a noel_coward'
p3195
sg5
(lp3196
S'noel_coward'
p3197
aS'Coward'
p3198
aS'Noel_Coward'
p3199
aS'Sir_Noel_Pierce_Coward'
p3200
asg8
(lp3201
sg10
g3161
sg12
(lp3202
S'awkward'
p3203
aS'inconvenient'
p3204
aS'gawky'
p3205
aS'clumsy'
p3206
aS'clunky'
p3207
aS'ungainly'
p3208
aS'unwieldy'
p3209
aS'graceless'
p3210
aS'ungraceful'
p3211
aS'labored'
p3212
aS'laboured'
p3213
aS'strained'
p3214
aS'wooden'
p3215
aS'bunglesome'
p3216
aS'unmanageable'
p3217
aS'cumbersome'
p3218
aS'inapt'
p3219
aS'inept'
p3220
aS'ill-chosen'
p3221
aS'infelicitous'
p3222
aS'embarrassing'
p3223
aS'sticky'
p3224
aS'unenviable'
p3225
aS'difficult'
p3226
aS'hard'
p3227
aS'ill_at_ease'
p3228
aS'uneasy'
p3229
aS'uncomfortable'
p3230
asg15
I401000
sg17
(lp3231
S'graceful'
p3232
asg19
g3197
sg20
I00
sg21
I00
sg22
I0
sg24
g3203
sba(isimile
Simile
p3233
(dp3234
g3
S'as awkward as a swallow'
p3235
sg5
(lp3236
S'swallow'
p3237
aS'sup'
p3238
aS'drink'
p3239
aS'deglutition'
p3240
aS'aerophagia'
p3241
aS'gulp'
p3242
aS'draft'
p3243
aS'draught'
p3244
aS'swig'
p3245
aS'sip'
p3246
aS'barn_swallow'
p3247
aS'chimney_swallow'
p3248
aS'Hirundo_rustica'
p3249
aS'cliff_swallow'
p3250
aS'Hirundo_pyrrhonota'
p3251
aS'martin'
p3252
aS'tree_swallow'
p3253
aS'tree_martin'
p3254
aS'Hirundo_nigricans'
p3255
aS'white-bellied_swallow'
p3256
aS'Iridoprocne_bicolor'
p3257
asg8
(lp3258
sg10
g3161
sg12
(lp3259
S'awkward'
p3260
aS'inconvenient'
p3261
aS'gawky'
p3262
aS'clumsy'
p3263
aS'clunky'
p3264
aS'ungainly'
p3265
aS'unwieldy'
p3266
aS'graceless'
p3267
aS'ungraceful'
p3268
aS'labored'
p3269
aS'laboured'
p3270
aS'strained'
p3271
aS'wooden'
p3272
aS'bunglesome'
p3273
aS'unmanageable'
p3274
aS'cumbersome'
p3275
aS'inapt'
p3276
aS'inept'
p3277
aS'ill-chosen'
p3278
aS'infelicitous'
p3279
aS'embarrassing'
p3280
aS'sticky'
p3281
aS'unenviable'
p3282
aS'difficult'
p3283
aS'hard'
p3284
aS'ill_at_ease'
p3285
aS'uneasy'
p3286
aS'uncomfortable'
p3287
asg15
I11700000
sg17
(lp3288
S'graceful'
p3289
asg19
g3237
sg20
I00
sg21
I00
sg22
I467000
sg24
g3260
sba(isimile
Simile
p3290
(dp3291
g3
S'as awkward as a mermaid'
p3292
sg5
(lp3293
S'mermaid'
p3294
asg8
(lp3295
sg10
g3161
sg12
(lp3296
S'awkward'
p3297
aS'inconvenient'
p3298
aS'gawky'
p3299
aS'clumsy'
p3300
aS'clunky'
p3301
aS'ungainly'
p3302
aS'unwieldy'
p3303
aS'graceless'
p3304
aS'ungraceful'
p3305
aS'labored'
p3306
aS'laboured'
p3307
aS'strained'
p3308
aS'wooden'
p3309
aS'bunglesome'
p3310
aS'unmanageable'
p3311
aS'cumbersome'
p3312
aS'inapt'
p3313
aS'inept'
p3314
aS'ill-chosen'
p3315
aS'infelicitous'
p3316
aS'embarrassing'
p3317
aS'sticky'
p3318
aS'unenviable'
p3319
aS'difficult'
p3320
aS'hard'
p3321
aS'ill_at_ease'
p3322
aS'uneasy'
p3323
aS'uncomfortable'
p3324
asg15
I911000
sg17
(lp3325
S'graceful'
p3326
asg19
g3294
sg20
I00
sg21
I00
sg22
I0
sg24
g3297
sba(isimile
Simile
p3327
(dp3328
g3
S'as awkward as a poet'
p3329
sg5
(lp3330
S'poet'
p3331
aS'bard'
p3332
aS'elegist'
p3333
aS'odist'
p3334
aS'poet_laureate'
p3335
aS'poetess'
p3336
aS'sonneteer'
p3337
asg8
(lp3338
sg10
g3161
sg12
(lp3339
S'awkward'
p3340
aS'inconvenient'
p3341
aS'gawky'
p3342
aS'clumsy'
p3343
aS'clunky'
p3344
aS'ungainly'
p3345
aS'unwieldy'
p3346
aS'graceless'
p3347
aS'ungraceful'
p3348
aS'labored'
p3349
aS'laboured'
p3350
aS'strained'
p3351
aS'wooden'
p3352
aS'bunglesome'
p3353
aS'unmanageable'
p3354
aS'cumbersome'
p3355
aS'inapt'
p3356
aS'inept'
p3357
aS'ill-chosen'
p3358
aS'infelicitous'
p3359
aS'embarrassing'
p3360
aS'sticky'
p3361
aS'unenviable'
p3362
aS'difficult'
p3363
aS'hard'
p3364
aS'ill_at_ease'
p3365
aS'uneasy'
p3366
aS'uncomfortable'
p3367
asg15
I7390000
sg17
(lp3368
S'graceful'
p3369
asg19
g3331
sg20
I00
sg21
I00
sg22
I819000
sg24
g3340
sba(isimile
Simile
p3370
(dp3371
g3
S'as awkward as a hippo'
p3372
sg5
(lp3373
S'hippo'
p3374
aS'Hippo'
p3375
aS'Hippo_Regius'
p3376
aS'hippopotamus'
p3377
aS'river_horse'
p3378
aS'Hippopotamus_amphibius'
p3379
asg8
(lp3380
sg10
g3161
sg12
(lp3381
S'awkward'
p3382
aS'inconvenient'
p3383
aS'gawky'
p3384
aS'clumsy'
p3385
aS'clunky'
p3386
aS'ungainly'
p3387
aS'unwieldy'
p3388
aS'graceless'
p3389
aS'ungraceful'
p3390
aS'labored'
p3391
aS'laboured'
p3392
aS'strained'
p3393
aS'wooden'
p3394
aS'bunglesome'
p3395
aS'unmanageable'
p3396
aS'cumbersome'
p3397
aS'inapt'
p3398
aS'inept'
p3399
aS'ill-chosen'
p3400
aS'infelicitous'
p3401
aS'embarrassing'
p3402
aS'sticky'
p3403
aS'unenviable'
p3404
aS'difficult'
p3405
aS'hard'
p3406
aS'ill_at_ease'
p3407
aS'uneasy'
p3408
aS'uncomfortable'
p3409
asg15
I3
sg17
(lp3410
S'graceful'
p3411
asg19
g3374
sg20
I00
sg21
I00
sg22
I1
sg24
g3382
sba(isimile
Simile
p3412
(dp3413
g3
S'as awkward as a soap_opera'
p3414
sg5
(lp3415
S'soap_opera'
p3416
asg8
(lp3417
sg10
g3161
sg12
(lp3418
S'awkward'
p3419
aS'inconvenient'
p3420
aS'gawky'
p3421
aS'clumsy'
p3422
aS'clunky'
p3423
aS'ungainly'
p3424
aS'unwieldy'
p3425
aS'graceless'
p3426
aS'ungraceful'
p3427
aS'labored'
p3428
aS'laboured'
p3429
aS'strained'
p3430
aS'wooden'
p3431
aS'bunglesome'
p3432
aS'unmanageable'
p3433
aS'cumbersome'
p3434
aS'inapt'
p3435
aS'inept'
p3436
aS'ill-chosen'
p3437
aS'infelicitous'
p3438
aS'embarrassing'
p3439
aS'sticky'
p3440
aS'unenviable'
p3441
aS'difficult'
p3442
aS'hard'
p3443
aS'ill_at_ease'
p3444
aS'uneasy'
p3445
aS'uncomfortable'
p3446
asg15
I658000
sg17
(lp3447
S'graceful'
p3448
asg19
g3416
sg20
I00
sg21
I00
sg22
I559000
sg24
g3419
sba(isimile
Simile
p3449
(dp3450
g3
S'as awkward as a turkey'
p3451
sg5
(lp3452
S'turkey'
p3453
aS'Meleagris_gallopavo'
p3454
aS'turkey_cock'
p3455
aS'gobbler'
p3456
aS'tom'
p3457
aS'tom_turkey'
p3458
aS'Turkey'
p3459
aS'Republic_of_Turkey'
p3460
aS'joker'
p3461
aS'bomb'
p3462
aS'dud'
p3463
asg8
(lp3464
sg10
g3161
sg12
(lp3465
S'awkward'
p3466
aS'inconvenient'
p3467
aS'gawky'
p3468
aS'clumsy'
p3469
aS'clunky'
p3470
aS'ungainly'
p3471
aS'unwieldy'
p3472
aS'graceless'
p3473
aS'ungraceful'
p3474
aS'labored'
p3475
aS'laboured'
p3476
aS'strained'
p3477
aS'wooden'
p3478
aS'bunglesome'
p3479
aS'unmanageable'
p3480
aS'cumbersome'
p3481
aS'inapt'
p3482
aS'inept'
p3483
aS'ill-chosen'
p3484
aS'infelicitous'
p3485
aS'embarrassing'
p3486
aS'sticky'
p3487
aS'unenviable'
p3488
aS'difficult'
p3489
aS'hard'
p3490
aS'ill_at_ease'
p3491
aS'uneasy'
p3492
aS'uncomfortable'
p3493
asg15
I2
sg17
(lp3494
S'graceful'
p3495
asg19
g3453
sg20
I00
sg21
I00
sg22
I1
sg24
g3466
sba(isimile
Simile
p3496
(dp3497
g3
S'as stative as a beehive'
p3498
sg5
(lp3499
S'beehive'
p3500
aS'hive'
p3501
aS'skep'
p3502
asg8
(lp3503
sg10
g3161
sg12
(lp3504
S'stative'
p3505
asg15
I701000
sg17
(lp3506
S'active'
p3507
asg19
g3500
sg20
I00
sg21
I00
sg22
I0
sg24
g3505
sba(isimile
Simile
p3508
(dp3509
g3
S'as passive as a bee'
p3510
sg5
(lp3511
S'bee'
p3512
aS'andrena'
p3513
aS'andrenid'
p3514
aS'mining_bee'
p3515
aS'bumblebee'
p3516
aS'humblebee'
p3517
aS'carpenter_bee'
p3518
aS'cuckoo-bumblebee'
p3519
aS'drone'
p3520
aS'honeybee'
p3521
aS'Apis_mellifera'
p3522
aS'leaf-cutting_bee'
p3523
aS'leaf-cutter'
p3524
aS'leaf-cutter_bee'
p3525
aS'mason_bee'
p3526
aS'Nomia_melanderi'
p3527
aS'alkali_bee'
p3528
aS'potter_bee'
p3529
aS'husking_bee'
p3530
aS'cornhusking'
p3531
aS'quilting_bee'
p3532
asg8
(lp3533
sg10
g3161
sg12
(lp3534
S'passive'
p3535
aS'inactive'
p3536
aS'hands-off'
p3537
aS'resistless'
p3538
aS'supine'
p3539
aS'unresisting'
p3540
aS'peaceful'
p3541
aS'nonviolent'
p3542
asg15
I1
sg17
(lp3543
S'active'
p3544
asg19
g3512
sg20
I00
sg21
I00
sg22
I0
sg24
g3535
sba(isimile
Simile
p3545
(dp3546
g3
S'as dormant as a bee'
p3547
sg5
(lp3548
g3512
aS'andrena'
p3549
aS'andrenid'
p3550
aS'mining_bee'
p3551
aS'bumblebee'
p3552
aS'humblebee'
p3553
aS'carpenter_bee'
p3554
aS'cuckoo-bumblebee'
p3555
aS'drone'
p3556
aS'honeybee'
p3557
aS'Apis_mellifera'
p3558
aS'leaf-cutting_bee'
p3559
aS'leaf-cutter'
p3560
aS'leaf-cutter_bee'
p3561
aS'mason_bee'
p3562
aS'Nomia_melanderi'
p3563
aS'alkali_bee'
p3564
aS'potter_bee'
p3565
aS'husking_bee'
p3566
aS'cornhusking'
p3567
aS'quilting_bee'
p3568
asg8
(lp3569
sg10
g3161
sg12
(lp3570
S'dormant'
p3571
aS'hibernating'
p3572
aS'torpid'
p3573
aS'asleep'
p3574
aS'inactive'
p3575
aS'quiescent'
p3576
aS'sleeping'
p3577
aS'unerect'
p3578
aS'abeyant'
p3579
asg15
I1
sg17
(lp3580
S'active'
p3581
asg19
g3512
sg20
I00
sg21
I00
sg22
I0
sg24
g3571
sba(isimile
Simile
p3582
(dp3583
g3
S'as stative as a squirrel'
p3584
sg5
(lp3585
S'squirrel'
p3586
aS'American_flying_squirrel'
p3587
aS'Asiatic_flying_squirrel'
p3588
aS'baronduki'
p3589
aS'baranduki'
p3590
aS'barunduki'
p3591
aS'burunduki'
p3592
aS'Eutamius_asiaticus'
p3593
aS'Eutamius_sibiricus'
p3594
aS'chipmunk'
p3595
aS'eastern_chipmunk'
p3596
aS'hackee'
p3597
aS'striped_squirrel'
p3598
aS'ground_squirrel'
p3599
aS'Tamias_striatus'
p3600
aS'gopher'
p3601
aS'spermophile'
p3602
aS'tree_squirrel'
p3603
asg8
(lp3604
sg10
g3161
sg12
(lp3605
S'stative'
p3606
asg15
I12800000
sg17
(lp3607
S'active'
p3608
asg19
g3586
sg20
I00
sg21
I00
sg22
I12800000
sg24
g3606
sba(isimile
Simile
p3609
(dp3610
g3
S'as passive as an anthill'
p3611
sg5
(lp3612
S'anthill'
p3613
aS'formicary'
p3614
asg8
(lp3615
sg10
S'an '
p3616
sg12
(lp3617
S'passive'
p3618
aS'inactive'
p3619
aS'hands-off'
p3620
aS'resistless'
p3621
aS'supine'
p3622
aS'unresisting'
p3623
aS'peaceful'
p3624
aS'nonviolent'
p3625
asg15
I89200
sg17
(lp3626
S'active'
p3627
asg19
g3613
sg20
I00
sg21
I00
sg22
I89000
sg24
g3618
sba(isimile
Simile
p3628
(dp3629
g3
S'as dormant as an anthill'
p3630
sg5
(lp3631
g3613
aS'formicary'
p3632
asg8
(lp3633
sg10
g3616
sg12
(lp3634
S'dormant'
p3635
aS'hibernating'
p3636
aS'torpid'
p3637
aS'asleep'
p3638
aS'inactive'
p3639
aS'quiescent'
p3640
aS'sleeping'
p3641
aS'unerect'
p3642
aS'abeyant'
p3643
asg15
I57700
sg17
(lp3644
S'active'
p3645
asg19
g3613
sg20
I00
sg21
I00
sg22
I57700
sg24
g3635
sba(isimile
Simile
p3646
(dp3647
g3
S'as stative as an adventure'
p3648
sg5
(lp3649
S'adventure'
p3650
aS'escapade'
p3651
aS'risky_venture'
p3652
aS'dangerous_undertaking'
p3653
asg8
(lp3654
sg10
g3616
sg12
(lp3655
S'stative'
p3656
asg15
I160000
sg17
(lp3657
S'active'
p3658
asg19
g3650
sg20
I00
sg21
I00
sg22
I159000
sg24
g3656
sba(isimile
Simile
p3659
(dp3660
g3
S'as passive as a brain'
p3661
sg5
(lp3662
S'brain'
p3663
aS'encephalon'
p3664
aS'brainpower'
p3665
aS'learning_ability'
p3666
aS'mental_capacity'
p3667
aS'mentality'
p3668
aS'wit'
p3669
aS'mind'
p3670
aS'head'
p3671
aS'psyche'
p3672
aS'nous'
p3673
aS'ego'
p3674
aS'noddle'
p3675
aS'subconscious_mind'
p3676
aS'subconscious'
p3677
aS'tabula_rasa'
p3678
aS'unconscious_mind'
p3679
aS'unconscious'
p3680
aS'genius'
p3681
aS'mastermind'
p3682
aS'brainiac'
p3683
aS'Einstein'
p3684
aS'prodigy'
p3685
aS"calf's_brain"
p3686
asg8
(lp3687
sg10
g3161
sg12
(lp3688
S'passive'
p3689
aS'inactive'
p3690
aS'hands-off'
p3691
aS'resistless'
p3692
aS'supine'
p3693
aS'unresisting'
p3694
aS'peaceful'
p3695
aS'nonviolent'
p3696
asg15
I45500000
sg17
(lp3697
S'active'
p3698
asg19
g3663
sg20
I00
sg21
I00
sg22
I44700000
sg24
g3689
sba(isimile
Simile
p3699
(dp3700
g3
S'as extinct as a brain'
p3701
sg5
(lp3702
g3663
aS'encephalon'
p3703
aS'brainpower'
p3704
aS'learning_ability'
p3705
aS'mental_capacity'
p3706
aS'mentality'
p3707
aS'wit'
p3708
aS'mind'
p3709
aS'head'
p3710
aS'psyche'
p3711
aS'nous'
p3712
aS'ego'
p3713
aS'noddle'
p3714
aS'subconscious_mind'
p3715
aS'subconscious'
p3716
aS'tabula_rasa'
p3717
aS'unconscious_mind'
p3718
aS'unconscious'
p3719
aS'genius'
p3720
aS'mastermind'
p3721
aS'brainiac'
p3722
aS'Einstein'
p3723
aS'prodigy'
p3724
aS"calf's_brain"
p3725
asg8
(lp3726
sg10
g3161
sg12
(lp3727
S'extinct'
p3728
aS'nonextant'
p3729
aS'dead'
p3730
aS'out'
p3731
asg15
I540000
sg17
(lp3732
S'extant'
p3733
aS'active'
p3734
asg19
g3663
sg20
I00
sg21
I00
sg22
I0
sg24
g3728
sba(isimile
Simile
p3735
(dp3736
g3
S'as inactive as a monkey'
p3737
sg5
(lp3738
S'monkey'
p3739
aS'New_World_monkey'
p3740
aS'platyrrhine'
p3741
aS'platyrrhinian'
p3742
aS'Old_World_monkey'
p3743
aS'catarrhine'
p3744
aS'imp'
p3745
aS'scamp'
p3746
aS'rascal'
p3747
aS'rapscallion'
p3748
aS'scalawag'
p3749
aS'scallywag'
p3750
aS'terror'
p3751
aS'brat'
p3752
aS'little_terror'
p3753
aS'holy_terror'
p3754
asg8
(lp3755
sg10
g3161
sg12
(lp3756
S'inactive'
p3757
aS'unreactive'
p3758
aS'dead-end'
p3759
aS'flat'
p3760
aS'indolent'
p3761
aS'latent'
p3762
aS'quiescent'
p3763
aS'nonoperational'
p3764
aS'dormant'
p3765
aS'passive'
p3766
aS'hands-off'
p3767
aS'resistless'
p3768
aS'supine'
p3769
aS'unresisting'
p3770
aS'dark'
p3771
aS'dead'
p3772
aS'dull'
p3773
aS'slow'
p3774
aS'sluggish'
p3775
aS'idle'
p3776
aS'unused'
p3777
aS'strikebound'
p3778
aS'off'
p3779
aS'retired'
p3780
aS'abeyant'
p3781
aS'desk-bound'
p3782
aS'deskbound'
p3783
aS'hypoactive'
p3784
aS'underactive'
p3785
aS'inert'
p3786
aS'soggy'
p3787
aS'torpid'
p3788
aS'sedentary'
p3789
aS'motionless'
p3790
aS'static'
p3791
aS'still'
p3792
aS'nonmoving'
p3793
aS'unmoving'
p3794
asg15
I4720000
sg17
(lp3795
S'active'
p3796
aS'operational'
p3797
asg19
g3739
sg20
I00
sg21
I00
sg22
I4700000
sg24
g3757
sba(isimile
Simile
p3798
(dp3799
g3
S'as quiet as a monkey'
p3800
sg5
(lp3801
g3739
aS'New_World_monkey'
p3802
aS'platyrrhine'
p3803
aS'platyrrhinian'
p3804
aS'Old_World_monkey'
p3805
aS'catarrhine'
p3806
aS'imp'
p3807
aS'scamp'
p3808
aS'rascal'
p3809
aS'rapscallion'
p3810
aS'scalawag'
p3811
aS'scallywag'
p3812
aS'terror'
p3813
aS'brat'
p3814
aS'little_terror'
p3815
aS'holy_terror'
p3816
asg8
(lp3817
sg10
g3161
sg12
(lp3818
S'quiet'
p3819
aS'quiescent'
p3820
aS'untroubled'
p3821
aS'noiseless'
p3822
aS'silent'
p3823
aS'soundless'
p3824
aS'still'
p3825
aS'stilly'
p3826
aS'tiptoe'
p3827
aS'restrained'
p3828
aS'unostentatious'
p3829
aS'unpretentious'
p3830
aS'unpretending'
p3831
aS'hushed'
p3832
aS'muted'
p3833
aS'subdued'
p3834
aS'soft'
p3835
aS'placid'
p3836
aS'tranquil'
p3837
aS'smooth'
p3838
aS'unruffled'
p3839
aS'calm'
p3840
asg15
I12600000
sg17
(lp3841
S'unquiet'
p3842
aS'noisy'
p3843
aS'active'
p3844
asg19
g3739
sg20
I00
sg21
I00
sg22
I1
sg24
g3819
sba(isimile
Simile
p3845
(dp3846
g3
S'as extinct as a monkey'
p3847
sg5
(lp3848
g3739
aS'New_World_monkey'
p3849
aS'platyrrhine'
p3850
aS'platyrrhinian'
p3851
aS'Old_World_monkey'
p3852
aS'catarrhine'
p3853
aS'imp'
p3854
aS'scamp'
p3855
aS'rascal'
p3856
aS'rapscallion'
p3857
aS'scalawag'
p3858
aS'scallywag'
p3859
aS'terror'
p3860
aS'brat'
p3861
aS'little_terror'
p3862
aS'holy_terror'
p3863
asg8
(lp3864
sg10
g3161
sg12
(lp3865
S'extinct'
p3866
aS'nonextant'
p3867
aS'dead'
p3868
aS'out'
p3869
asg15
I541000
sg17
(lp3870
S'extant'
p3871
aS'active'
p3872
asg19
g3739
sg20
I00
sg21
I00
sg22
I0
sg24
g3866
sba(isimile
Simile
p3873
(dp3874
g3
S'as inactive as a toddler'
p3875
sg5
(lp3876
S'toddler'
p3877
aS'yearling'
p3878
aS'tot'
p3879
aS'bambino'
p3880
asg8
(lp3881
sg10
g3161
sg12
(lp3882
S'inactive'
p3883
aS'unreactive'
p3884
aS'dead-end'
p3885
aS'flat'
p3886
aS'indolent'
p3887
aS'latent'
p3888
aS'quiescent'
p3889
aS'nonoperational'
p3890
aS'dormant'
p3891
aS'passive'
p3892
aS'hands-off'
p3893
aS'resistless'
p3894
aS'supine'
p3895
aS'unresisting'
p3896
aS'dark'
p3897
aS'dead'
p3898
aS'dull'
p3899
aS'slow'
p3900
aS'sluggish'
p3901
aS'idle'
p3902
aS'unused'
p3903
aS'strikebound'
p3904
aS'off'
p3905
aS'retired'
p3906
aS'abeyant'
p3907
aS'desk-bound'
p3908
aS'deskbound'
p3909
aS'hypoactive'
p3910
aS'underactive'
p3911
aS'inert'
p3912
aS'soggy'
p3913
aS'torpid'
p3914
aS'sedentary'
p3915
aS'motionless'
p3916
aS'static'
p3917
aS'still'
p3918
aS'nonmoving'
p3919
aS'unmoving'
p3920
asg15
I11200000
sg17
(lp3921
S'active'
p3922
aS'operational'
p3923
asg19
g3877
sg20
I00
sg21
I00
sg22
I0
sg24
g3883
sba(isimile
Simile
p3924
(dp3925
g3
S'as quiet as a toddler'
p3926
sg5
(lp3927
g3877
aS'yearling'
p3928
aS'tot'
p3929
aS'bambino'
p3930
asg8
(lp3931
sg10
g3161
sg12
(lp3932
S'quiet'
p3933
aS'quiescent'
p3934
aS'untroubled'
p3935
aS'noiseless'
p3936
aS'silent'
p3937
aS'soundless'
p3938
aS'still'
p3939
aS'stilly'
p3940
aS'tiptoe'
p3941
aS'restrained'
p3942
aS'unostentatious'
p3943
aS'unpretentious'
p3944
aS'unpretending'
p3945
aS'hushed'
p3946
aS'muted'
p3947
aS'subdued'
p3948
aS'soft'
p3949
aS'placid'
p3950
aS'tranquil'
p3951
aS'smooth'
p3952
aS'unruffled'
p3953
aS'calm'
p3954
asg15
I5
sg17
(lp3955
S'unquiet'
p3956
aS'noisy'
p3957
aS'active'
p3958
asg19
g3877
sg20
I00
sg21
I00
sg22
I0
sg24
g3933
sba(isimile
Simile
p3959
(dp3960
g3
S'as extinct as a toddler'
p3961
sg5
(lp3962
g3877
aS'yearling'
p3963
aS'tot'
p3964
aS'bambino'
p3965
asg8
(lp3966
sg10
g3161
sg12
(lp3967
S'extinct'
p3968
aS'nonextant'
p3969
aS'dead'
p3970
aS'out'
p3971
asg15
I530000
sg17
(lp3972
S'extant'
p3973
aS'active'
p3974
asg19
g3877
sg20
I00
sg21
I00
sg22
I530000
sg24
g3968
sba(isimile
Simile
p3975
(dp3976
g3
S'as inactive as a shark'
p3977
sg5
(lp3978
S'shark'
p3979
aS'angel_shark'
p3980
aS'angelfish'
p3981
aS'Squatina_squatina'
p3982
aS'monkfish'
p3983
aS'carpet_shark'
p3984
aS'Orectolobus_barbatus'
p3985
aS'cat_shark'
p3986
aS'cow_shark'
p3987
aS'six-gilled_shark'
p3988
aS'Hexanchus_griseus'
p3989
aS'dogfish'
p3990
aS'hammerhead'
p3991
aS'hammerhead_shark'
p3992
aS'mackerel_shark'
p3993
aS'nurse_shark'
p3994
aS'Ginglymostoma_cirratum'
p3995
aS'requiem_shark'
p3996
aS'sand_tiger'
p3997
aS'sand_shark'
p3998
aS'Carcharias_taurus'
p3999
aS'Odontaspis_taurus'
p4000
aS'thresher'
p4001
aS'thrasher'
p4002
aS'thresher_shark'
p4003
aS'fox_shark'
p4004
aS'Alopius_vulpinus'
p4005
aS'whale_shark'
p4006
aS'Rhincodon_typus'
p4007
aS'usurer'
p4008
aS'loan_shark'
p4009
aS'moneylender'
p4010
aS'shylock'
p4011
asg8
(lp4012
sg10
g3161
sg12
(lp4013
S'inactive'
p4014
aS'unreactive'
p4015
aS'dead-end'
p4016
aS'flat'
p4017
aS'indolent'
p4018
aS'latent'
p4019
aS'quiescent'
p4020
aS'nonoperational'
p4021
aS'dormant'
p4022
aS'passive'
p4023
aS'hands-off'
p4024
aS'resistless'
p4025
aS'supine'
p4026
aS'unresisting'
p4027
aS'dark'
p4028
aS'dead'
p4029
aS'dull'
p4030
aS'slow'
p4031
aS'sluggish'
p4032
aS'idle'
p4033
aS'unused'
p4034
aS'strikebound'
p4035
aS'off'
p4036
aS'retired'
p4037
aS'abeyant'
p4038
aS'desk-bound'
p4039
aS'deskbound'
p4040
aS'hypoactive'
p4041
aS'underactive'
p4042
aS'inert'
p4043
aS'soggy'
p4044
aS'torpid'
p4045
aS'sedentary'
p4046
aS'motionless'
p4047
aS'static'
p4048
aS'still'
p4049
aS'nonmoving'
p4050
aS'unmoving'
p4051
asg15
I415000
sg17
(lp4052
S'active'
p4053
aS'operational'
p4054
asg19
g3979
sg20
I00
sg21
I00
sg22
I0
sg24
g4014
sba(isimile
Simile
p4055
(dp4056
g3
S'as quiet as a shark'
p4057
sg5
(lp4058
g3979
aS'angel_shark'
p4059
aS'angelfish'
p4060
aS'Squatina_squatina'
p4061
aS'monkfish'
p4062
aS'carpet_shark'
p4063
aS'Orectolobus_barbatus'
p4064
aS'cat_shark'
p4065
aS'cow_shark'
p4066
aS'six-gilled_shark'
p4067
aS'Hexanchus_griseus'
p4068
aS'dogfish'
p4069
aS'hammerhead'
p4070
aS'hammerhead_shark'
p4071
aS'mackerel_shark'
p4072
aS'nurse_shark'
p4073
aS'Ginglymostoma_cirratum'
p4074
aS'requiem_shark'
p4075
aS'sand_tiger'
p4076
aS'sand_shark'
p4077
aS'Carcharias_taurus'
p4078
aS'Odontaspis_taurus'
p4079
aS'thresher'
p4080
aS'thrasher'
p4081
aS'thresher_shark'
p4082
aS'fox_shark'
p4083
aS'Alopius_vulpinus'
p4084
aS'whale_shark'
p4085
aS'Rhincodon_typus'
p4086
aS'usurer'
p4087
aS'loan_shark'
p4088
aS'moneylender'
p4089
aS'shylock'
p4090
asg8
(lp4091
sg10
g3161
sg12
(lp4092
S'quiet'
p4093
aS'quiescent'
p4094
aS'untroubled'
p4095
aS'noiseless'
p4096
aS'silent'
p4097
aS'soundless'
p4098
aS'still'
p4099
aS'stilly'
p4100
aS'tiptoe'
p4101
aS'restrained'
p4102
aS'unostentatious'
p4103
aS'unpretentious'
p4104
aS'unpretending'
p4105
aS'hushed'
p4106
aS'muted'
p4107
aS'subdued'
p4108
aS'soft'
p4109
aS'placid'
p4110
aS'tranquil'
p4111
aS'smooth'
p4112
aS'unruffled'
p4113
aS'calm'
p4114
asg15
I1
sg17
(lp4115
S'unquiet'
p4116
aS'noisy'
p4117
aS'active'
p4118
asg19
g3979
sg20
I00
sg21
I00
sg22
I0
sg24
g4093
sba(isimile
Simile
p4119
(dp4120
g3
S'as extinct as a shark'
p4121
sg5
(lp4122
g3979
aS'angel_shark'
p4123
aS'angelfish'
p4124
aS'Squatina_squatina'
p4125
aS'monkfish'
p4126
aS'carpet_shark'
p4127
aS'Orectolobus_barbatus'
p4128
aS'cat_shark'
p4129
aS'cow_shark'
p4130
aS'six-gilled_shark'
p4131
aS'Hexanchus_griseus'
p4132
aS'dogfish'
p4133
aS'hammerhead'
p4134
aS'hammerhead_shark'
p4135
aS'mackerel_shark'
p4136
aS'nurse_shark'
p4137
aS'Ginglymostoma_cirratum'
p4138
aS'requiem_shark'
p4139
aS'sand_tiger'
p4140
aS'sand_shark'
p4141
aS'Carcharias_taurus'
p4142
aS'Odontaspis_taurus'
p4143
aS'thresher'
p4144
aS'thrasher'
p4145
aS'thresher_shark'
p4146
aS'fox_shark'
p4147
aS'Alopius_vulpinus'
p4148
aS'whale_shark'
p4149
aS'Rhincodon_typus'
p4150
aS'usurer'
p4151
aS'loan_shark'
p4152
aS'moneylender'
p4153
aS'shylock'
p4154
asg8
(lp4155
sg10
g3161
sg12
(lp4156
S'extinct'
p4157
aS'nonextant'
p4158
aS'dead'
p4159
aS'out'
p4160
asg15
I446000
sg17
(lp4161
S'extant'
p4162
aS'active'
p4163
asg19
g3979
sg20
I00
sg21
I00
sg22
I445000
sg24
g4157
sba(isimile
Simile
p4164
(dp4165
g3
S'as inactive as a catalyst'
p4166
sg5
(lp4167
S'catalyst'
p4168
aS'accelerator'
p4169
aS'biocatalyst'
p4170
aS'enzyme'
p4171
aS'platinum_black'
p4172
asg8
(lp4173
sg10
g3161
sg12
(lp4174
S'inactive'
p4175
aS'unreactive'
p4176
aS'dead-end'
p4177
aS'flat'
p4178
aS'indolent'
p4179
aS'latent'
p4180
aS'quiescent'
p4181
aS'nonoperational'
p4182
aS'dormant'
p4183
aS'passive'
p4184
aS'hands-off'
p4185
aS'resistless'
p4186
aS'supine'
p4187
aS'unresisting'
p4188
aS'dark'
p4189
aS'dead'
p4190
aS'dull'
p4191
aS'slow'
p4192
aS'sluggish'
p4193
aS'idle'
p4194
aS'unused'
p4195
aS'strikebound'
p4196
aS'off'
p4197
aS'retired'
p4198
aS'abeyant'
p4199
aS'desk-bound'
p4200
aS'deskbound'
p4201
aS'hypoactive'
p4202
aS'underactive'
p4203
aS'inert'
p4204
aS'soggy'
p4205
aS'torpid'
p4206
aS'sedentary'
p4207
aS'motionless'
p4208
aS'static'
p4209
aS'still'
p4210
aS'nonmoving'
p4211
aS'unmoving'
p4212
asg15
S'4860000'
p4213
sg17
(lp4214
S'active'
p4215
aS'operational'
p4216
asg19
g4168
sg20
I00
sg21
I00
sg22
S'4860000'
p4217
sg24
g4175
sba(isimile
Simile
p4218
(dp4219
g3
S'as quiet as a catalyst'
p4220
sg5
(lp4221
g4168
aS'accelerator'
p4222
aS'biocatalyst'
p4223
aS'enzyme'
p4224
aS'platinum_black'
p4225
asg8
(lp4226
sg10
g3161
sg12
(lp4227
S'quiet'
p4228
aS'quiescent'
p4229
aS'untroubled'
p4230
aS'noiseless'
p4231
aS'silent'
p4232
aS'soundless'
p4233
aS'still'
p4234
aS'stilly'
p4235
aS'tiptoe'
p4236
aS'restrained'
p4237
aS'unostentatious'
p4238
aS'unpretentious'
p4239
aS'unpretending'
p4240
aS'hushed'
p4241
aS'muted'
p4242
aS'subdued'
p4243
aS'soft'
p4244
aS'placid'
p4245
aS'tranquil'
p4246
aS'smooth'
p4247
aS'unruffled'
p4248
aS'calm'
p4249
asg15
I3790000
sg17
(lp4250
S'unquiet'
p4251
aS'noisy'
p4252
aS'active'
p4253
asg19
g4168
sg20
I00
sg21
I00
sg22
I3770000
sg24
g4228
sba(isimile
Simile
p4254
(dp4255
g3
S'as extinct as a catalyst'
p4256
sg5
(lp4257
g4168
aS'accelerator'
p4258
aS'biocatalyst'
p4259
aS'enzyme'
p4260
aS'platinum_black'
p4261
asg8
(lp4262
sg10
g3161
sg12
(lp4263
S'extinct'
p4264
aS'nonextant'
p4265
aS'dead'
p4266
aS'out'
p4267
asg15
I917000
sg17
(lp4268
S'extant'
p4269
aS'active'
p4270
asg19
g4168
sg20
I00
sg21
I00
sg22
I905000
sg24
g4264
sba(isimile
Simile
p4271
(dp4272
g3
S'as passive as a sloth'
p4273
sg5
(lp4274
S'sloth'
p4275
aS'slothfulness'
p4276
aS'tree_sloth'
p4277
aS'three-toed_sloth'
p4278
aS'ai'
p4279
aS'Bradypus_tridactylus'
p4280
aS'two-toed_sloth'
p4281
aS'unau'
p4282
aS'unai'
p4283
aS'Choloepus_hoffmanni'
p4284
aS'Choloepus_didactylus'
p4285
aS'laziness'
p4286
aS'acedia'
p4287
asg8
(lp4288
sg10
g3161
sg12
(lp4289
S'passive'
p4290
aS'inactive'
p4291
aS'hands-off'
p4292
aS'resistless'
p4293
aS'supine'
p4294
aS'unresisting'
p4295
aS'peaceful'
p4296
aS'nonviolent'
p4297
asg15
I3
sg17
(lp4298
S'active'
p4299
asg19
g4275
sg20
I00
sg21
I00
sg22
I0
sg24
g4290
sba(isimile
Simile
p4300
(dp4301
g3
S'as dormant as a sloth'
p4302
sg5
(lp4303
g4275
aS'slothfulness'
p4304
aS'tree_sloth'
p4305
aS'three-toed_sloth'
p4306
aS'ai'
p4307
aS'Bradypus_tridactylus'
p4308
aS'two-toed_sloth'
p4309
aS'unau'
p4310
aS'unai'
p4311
aS'Choloepus_hoffmanni'
p4312
aS'Choloepus_didactylus'
p4313
aS'laziness'
p4314
aS'acedia'
p4315
asg8
(lp4316
sg10
g3161
sg12
(lp4317
S'dormant'
p4318
aS'hibernating'
p4319
aS'torpid'
p4320
aS'asleep'
p4321
aS'inactive'
p4322
aS'quiescent'
p4323
aS'sleeping'
p4324
aS'unerect'
p4325
aS'abeyant'
p4326
asg15
I121000
sg17
(lp4327
S'active'
p4328
asg19
g4275
sg20
I00
sg21
I00
sg22
I119000
sg24
g4318
sba(isimile
Simile
p4329
(dp4330
g3
S'as stative as a slug'
p4331
sg5
(lp4332
S'slug'
p4333
aS'bullet'
p4334
aS'dumdum'
p4335
aS'dumdum_bullet'
p4336
aS'full_metal_jacket'
p4337
aS'rifle_ball'
p4338
aS'rubber_bullet'
p4339
aS'sluggard'
p4340
aS'type_slug'
p4341
aS'punch'
p4342
aS'clout'
p4343
aS'poke'
p4344
aS'lick'
p4345
aS'biff'
p4346
aS'counterpunch'
p4347
aS'parry'
p4348
aS'counter'
p4349
aS'haymaker'
p4350
aS'knockout_punch'
p4351
aS'KO_punch'
p4352
aS'Sunday_punch'
p4353
aS'hook'
p4354
aS'jab'
p4355
aS'rabbit_punch'
p4356
aS'sucker_punch'
p4357
asg8
(lp4358
sg10
g3161
sg12
(lp4359
S'stative'
p4360
asg15
I709000
sg17
(lp4361
S'active'
p4362
asg19
g4333
sg20
I00
sg21
I00
sg22
I579000
sg24
g4360
sba(isimile
Simile
p4363
(dp4364
g3
S'as lethargic as a pup'
p4365
sg5
(lp4366
S'pup'
p4367
aS'whelp'
p4368
aS'puppy'
p4369
asg8
(lp4370
sg10
g3161
sg12
(lp4371
S'lethargic'
p4372
aS'unenrgetic'
p4373
aS'dazed'
p4374
aS'foggy'
p4375
aS'groggy'
p4376
aS'logy'
p4377
aS'stuporous'
p4378
aS'dreamy'
p4379
aS'lackadaisical'
p4380
aS'languid'
p4381
aS'languorous'
p4382
aS'listless'
p4383
asg15
I142000
sg17
(lp4384
S'energetic'
p4385
asg19
g4367
sg20
I00
sg21
I00
sg22
I0
sg24
g4372
sba(isimile
Simile
p4386
(dp4387
g3
S'as lethargic as a teenager'
p4388
sg5
(lp4389
S'teenager'
p4390
aS'adolescent'
p4391
aS'stripling'
p4392
aS'teen'
p4393
aS'chebab'
p4394
aS'mod'
p4395
aS'pachuco'
p4396
aS'punk_rocker'
p4397
aS'punk'
p4398
aS'rocker'
p4399
aS'young_buck'
p4400
aS'young_man'
p4401
asg8
(lp4402
sg10
g3161
sg12
(lp4403
S'lethargic'
p4404
aS'unenrgetic'
p4405
aS'dazed'
p4406
aS'foggy'
p4407
aS'groggy'
p4408
aS'logy'
p4409
aS'stuporous'
p4410
aS'dreamy'
p4411
aS'lackadaisical'
p4412
aS'languid'
p4413
aS'languorous'
p4414
aS'listless'
p4415
asg15
I8
sg17
(lp4416
S'energetic'
p4417
asg19
g4390
sg20
I00
sg21
I00
sg22
I0
sg24
g4404
sba(isimile
Simile
p4418
(dp4419
g3
S'as lethargic as a slug'
p4420
sg5
(lp4421
S'slug'
p4422
aS'bullet'
p4423
aS'dumdum'
p4424
aS'dumdum_bullet'
p4425
aS'full_metal_jacket'
p4426
aS'rifle_ball'
p4427
aS'rubber_bullet'
p4428
aS'sluggard'
p4429
aS'type_slug'
p4430
aS'punch'
p4431
aS'clout'
p4432
aS'poke'
p4433
aS'lick'
p4434
aS'biff'
p4435
aS'counterpunch'
p4436
aS'parry'
p4437
aS'counter'
p4438
aS'haymaker'
p4439
aS'knockout_punch'
p4440
aS'KO_punch'
p4441
aS'Sunday_punch'
p4442
aS'hook'
p4443
aS'jab'
p4444
aS'rabbit_punch'
p4445
aS'sucker_punch'
p4446
asg8
(lp4447
sg10
g3161
sg12
(lp4448
S'lethargic'
p4449
aS'unenrgetic'
p4450
aS'dazed'
p4451
aS'foggy'
p4452
aS'groggy'
p4453
aS'logy'
p4454
aS'stuporous'
p4455
aS'dreamy'
p4456
aS'lackadaisical'
p4457
aS'languid'
p4458
aS'languorous'
p4459
aS'listless'
p4460
asg15
I6
sg17
(lp4461
S'energetic'
p4462
asg19
g4422
sg20
I00
sg21
I00
sg22
I0
sg24
g4449
sba(isimile
Simile
p4463
(dp4464
g3
S'as lethargic as a dishrag'
p4465
sg5
(lp4466
S'dishrag'
p4467
aS'dishcloth'
p4468
asg8
(lp4469
sg10
g3161
sg12
(lp4470
S'lethargic'
p4471
aS'unenrgetic'
p4472
aS'dazed'
p4473
aS'foggy'
p4474
aS'groggy'
p4475
aS'logy'
p4476
aS'stuporous'
p4477
aS'dreamy'
p4478
aS'lackadaisical'
p4479
aS'languid'
p4480
aS'languorous'
p4481
aS'listless'
p4482
asg15
I18500
sg17
(lp4483
S'energetic'
p4484
asg19
g4467
sg20
I00
sg21
I00
sg22
I18500
sg24
g4471
sba(isimile
Simile
p4485
(dp4486
g3
S'as immobile as a watch'
p4487
sg5
(lp4488
S'watch'
p4489
aS'ticker'
p4490
aS'analog_watch'
p4491
aS'digital_watch'
p4492
aS'hunter'
p4493
aS'hunting_watch'
p4494
aS'pendulum_watch'
p4495
aS'pocket_watch'
p4496
aS'stem-winder'
p4497
aS'wristwatch'
p4498
aS'wrist_watch'
p4499
aS'dogwatch'
p4500
aS'graveyard_watch'
p4501
aS'middle_watch'
p4502
aS'midwatch'
p4503
aS'night_watch'
p4504
aS'vigil'
p4505
aS'listening_watch'
p4506
aS'continuous_receiver_watch'
p4507
aS'spying'
p4508
aS'lookout'
p4509
aS'lookout_man'
p4510
aS'sentinel'
p4511
aS'sentry'
p4512
aS'spotter'
p4513
aS'scout'
p4514
aS'picket'
p4515
aS'agrypnia'
p4516
aS'wake'
p4517
aS'viewing'
p4518
asg8
(lp4519
sg10
g3161
sg12
(lp4520
S'immobile'
p4521
aS'immovable'
p4522
aS'immoveable'
p4523
aS'stabile'
p4524
aS'unmovable'
p4525
aS'nonmotile'
p4526
aS'immotile'
p4527
aS'stiff'
p4528
aS'fast'
p4529
aS'firm'
p4530
aS'fixed'
p4531
asg15
I8030000
sg17
(lp4532
S'mobile'
p4533
asg19
g4489
sg20
I00
sg21
I00
sg22
I0
sg24
g4521
sba(isimile
Simile
p4534
(dp4535
g3
S'as immobile as a horse'
p4536
sg5
(lp4537
S'horse'
p4538
aS'Equus_caballus'
p4539
aS'bay'
p4540
aS'chestnut'
p4541
aS'eohippus'
p4542
aS'dawn_horse'
p4543
aS'gee-gee'
p4544
aS'hack'
p4545
aS'jade'
p4546
aS'nag'
p4547
aS'plug'
p4548
aS'harness_horse'
p4549
aS'liver_chestnut'
p4550
aS'male_horse'
p4551
aS'mare'
p4552
aS'female_horse'
p4553
aS'mesohippus'
p4554
aS'pacer'
p4555
aS'palomino'
p4556
aS'pinto'
p4557
aS'polo_pony'
p4558
aS'pony'
p4559
aS'post_horse'
p4560
aS'post-horse'
p4561
aS'poster'
p4562
aS'protohippus'
p4563
aS'racehorse'
p4564
aS'race_horse'
p4565
aS'bangtail'
p4566
aS'roan'
p4567
aS'saddle_horse'
p4568
aS'riding_horse'
p4569
aS'mount'
p4570
aS'sorrel'
p4571
aS'stablemate'
p4572
aS'stable_companion'
p4573
aS'stalking-horse'
p4574
aS'steeplechaser'
p4575
aS'stepper'
p4576
aS'high_stepper'
p4577
aS'wild_horse'
p4578
aS'workhorse'
p4579
aS'gymnastic_horse'
p4580
aS'pommel_horse'
p4581
aS'side_horse'
p4582
aS'vaulting_horse'
p4583
aS'long_horse'
p4584
aS'buck'
p4585
aS'cavalry'
p4586
aS'horse_cavalry'
p4587
aS'sawhorse'
p4588
aS'sawbuck'
p4589
aS'trestle'
p4590
aS'knight'
p4591
asg8
(lp4592
sg10
g3161
sg12
(lp4593
S'immobile'
p4594
aS'immovable'
p4595
aS'immoveable'
p4596
aS'stabile'
p4597
aS'unmovable'
p4598
aS'nonmotile'
p4599
aS'immotile'
p4600
aS'stiff'
p4601
aS'fast'
p4602
aS'firm'
p4603
aS'fixed'
p4604
asg15
I407000
sg17
(lp4605
S'mobile'
p4606
asg19
g4538
sg20
I00
sg21
I00
sg22
I0
sg24
g4594
sba(isimile
Simile
p4607
(dp4608
g3
S'as immobile as a statue'
p4609
sg5
(lp4610
S'statue'
p4611
aS'herm'
p4612
aS'nude'
p4613
aS'nude_sculpture'
p4614
aS'nude_statue'
p4615
aS'Olympian_Zeus'
p4616
aS'sphinx'
p4617
aS'terminus'
p4618
aS'terminal_figure'
p4619
aS'term'
p4620
asg8
(lp4621
sg10
g3161
sg12
(lp4622
S'immobile'
p4623
aS'immovable'
p4624
aS'immoveable'
p4625
aS'stabile'
p4626
aS'unmovable'
p4627
aS'nonmotile'
p4628
aS'immotile'
p4629
aS'stiff'
p4630
aS'fast'
p4631
aS'firm'
p4632
aS'fixed'
p4633
asg15
S'3560'
p4634
sg17
(lp4635
S'mobile'
p4636
asg19
g4611
sg20
I00
sg21
I00
sg22
S'2'
p4637
sg24
g4623
sba(isimile
Simile
p4638
(dp4639
g3
S'as immobile as a rock'
p4640
sg5
(lp4641
S'rock'
p4642
aS'stone'
p4643
aS'achondrite'
p4644
aS'bedrock'
p4645
aS'boulder'
p4646
aS'bowlder'
p4647
aS'calculus'
p4648
aS'concretion'
p4649
aS'chondrite'
p4650
aS'clastic_rock'
p4651
aS'crystal'
p4652
aS'crystallization'
p4653
aS'intrusion'
p4654
aS'outcrop'
p4655
aS'outcropping'
p4656
aS'rock_outcrop'
p4657
aS'pebble'
p4658
aS'petrifaction'
p4659
aS'sill'
p4660
aS'stepping_stone'
p4661
aS'tor'
p4662
aS'wall_rock'
p4663
aS'whinstone'
p4664
aS'whin'
p4665
aS'xenolith'
p4666
aS'aphanite'
p4667
aS'caliche'
p4668
aS'claystone'
p4669
aS'dolomite'
p4670
aS'emery_stone'
p4671
aS'emery_rock'
p4672
aS'fieldstone'
p4673
aS'gravel'
p4674
aS'crushed_rock'
p4675
aS'greisen'
p4676
aS'igneous_rock'
p4677
aS'limestone'
p4678
aS'magma'
p4679
aS'marble'
p4680
aS'matrix'
p4681
aS'metamorphic_rock'
p4682
aS'pudding_stone'
p4683
aS'conglomerate'
p4684
aS'pumice'
p4685
aS'pumice_stone'
p4686
aS'quartzite'
p4687
aS'road_metal'
p4688
aS'sedimentary_rock'
p4689
aS'shingling'
p4690
aS'sial'
p4691
aS'sima'
p4692
aS'tufa'
p4693
aS'calc-tufa'
p4694
aS'Rock'
p4695
aS'John_Rock'
p4696
aS'rock_candy'
p4697
aS"rock_'n'_roll"
p4698
aS"rock'n'roll"
p4699
aS'rock-and-roll'
p4700
aS'rock_and_roll'
p4701
aS'rock_music'
p4702
aS'heavy_metal'
p4703
aS'heavy_metal_music'
p4704
aS'progressive_rock'
p4705
aS'art_rock'
p4706
aS'psychedelic_rock'
p4707
aS'acid_rock'
p4708
aS'punk_rock'
p4709
aS'punk'
p4710
aS'careen'
p4711
aS'sway'
p4712
aS'tilt'
p4713
asg8
(lp4714
sg10
g3161
sg12
(lp4715
S'immobile'
p4716
aS'immovable'
p4717
aS'immoveable'
p4718
aS'stabile'
p4719
aS'unmovable'
p4720
aS'nonmotile'
p4721
aS'immotile'
p4722
aS'stiff'
p4723
aS'fast'
p4724
aS'firm'
p4725
aS'fixed'
p4726
asg15
S'2610'
p4727
sg17
(lp4728
S'mobile'
p4729
asg19
g4642
sg20
I00
sg21
I00
sg22
g4637
sg24
g4716
sba(isimile
Simile
p4730
(dp4731
g3
S'as immobile as a dinner_table'
p4732
sg5
(lp4733
S'dinner_table'
p4734
asg8
(lp4735
sg10
g3161
sg12
(lp4736
S'immobile'
p4737
aS'immovable'
p4738
aS'immoveable'
p4739
aS'stabile'
p4740
aS'unmovable'
p4741
aS'nonmotile'
p4742
aS'immotile'
p4743
aS'stiff'
p4744
aS'fast'
p4745
aS'firm'
p4746
aS'fixed'
p4747
asg15
I85300
sg17
(lp4748
S'mobile'
p4749
asg19
g4734
sg20
I00
sg21
I00
sg22
I70600
sg24
g4737
sba(isimile
Simile
p4750
(dp4751
g3
S'as unanimated as a heartbeat'
p4752
sg5
(lp4753
S'heartbeat'
p4754
aS'pulse'
p4755
aS'pulsation'
p4756
aS'beat'
p4757
aS'diastole'
p4758
aS'systole'
p4759
aS'throb'
p4760
aS'throbbing'
p4761
aS'pounding'
p4762
aS'blink_of_an_eye'
p4763
aS'flash'
p4764
aS'instant'
p4765
aS'jiffy'
p4766
aS'split_second'
p4767
aS'trice'
p4768
aS'twinkling'
p4769
aS'wink'
p4770
aS'New_York_minute'
p4771
asg8
(lp4772
sg10
g3161
sg12
(lp4773
S'unanimated'
p4774
aS'lifeless'
p4775
aS'wan'
p4776
asg15
I30500
sg17
(lp4777
S'animated'
p4778
asg19
g4754
sg20
I00
sg21
I00
sg22
I30500
sg24
g4774
sba(isimile
Simile
p4779
(dp4780
g3
S'as unanimated as a jungle'
p4781
sg5
(lp4782
S'jungle'
p4783
aS'concrete_jungle'
p4784
aS'hobo_camp'
p4785
asg8
(lp4786
sg10
g3161
sg12
(lp4787
S'unanimated'
p4788
aS'lifeless'
p4789
aS'wan'
p4790
asg15
I2
sg17
(lp4791
S'animated'
p4792
asg19
g4783
sg20
I00
sg21
I00
sg22
I0
sg24
g4788
sba(isimile
Simile
p4793
(dp4794
g3
S'as unanimated as an oak_tree'
p4795
sg5
(lp4796
S'oak_tree'
p4797
aS'oak'
p4798
aS'American_turkey_oak'
p4799
aS'turkey_oak'
p4800
aS'Quercus_laevis'
p4801
aS'black_oak'
p4802
aS'yellow_oak'
p4803
aS'quercitron'
p4804
aS'quercitron_oak'
p4805
aS'Quercus_velutina'
p4806
aS'bluejack_oak'
p4807
aS'Quercus_incana'
p4808
aS'California_black_oak'
p4809
aS'Quercus_kelloggii'
p4810
aS'chestnut_oak'
p4811
aS'Chinese_cork_oak'
p4812
aS'Quercus_variabilis'
p4813
aS'cork_oak'
p4814
aS'Quercus_suber'
p4815
aS'European_turkey_oak'
p4816
aS'Quercus_cerris'
p4817
aS'holm_oak'
p4818
aS'holm_tree'
p4819
aS'holly-leaved_oak'
p4820
aS'evergreen_oak'
p4821
aS'Quercus_ilex'
p4822
aS'jack_oak'
p4823
aS'northern_pin_oak'
p4824
aS'Quercus_ellipsoidalis'
p4825
aS'Japanese_oak'
p4826
aS'Quercus_mongolica'
p4827
aS'Quercus_grosseserrata'
p4828
aS'laurel_oak'
p4829
aS'pin_oak'
p4830
aS'Quercus_laurifolia'
p4831
aS'live_oak'
p4832
aS'Nuttall_oak'
p4833
aS"Nuttall's_oak"
p4834
aS'Quercus_nuttalli'
p4835
aS'overcup_oak'
p4836
aS'Quercus_lyrata'
p4837
aS'swamp_oak'
p4838
aS'Quercus_palustris'
p4839
aS'post_oak'
p4840
aS'box_white_oak'
p4841
aS'brash_oak'
p4842
aS'iron_oak'
p4843
aS'Quercus_stellata'
p4844
aS'red_oak'
p4845
aS'scarlet_oak'
p4846
aS'Quercus_coccinea'
p4847
aS'scrub_oak'
p4848
aS'shingle_oak'
p4849
aS'Quercus_imbricaria'
p4850
aS'Spanish_oak'
p4851
aS'Quercus_texana'
p4852
aS'water_oak'
p4853
aS'possum_oak'
p4854
aS'Quercus_nigra'
p4855
aS'white_oak'
p4856
aS'willow_oak'
p4857
aS'Quercus_phellos'
p4858
asg8
(lp4859
sg10
g3616
sg12
(lp4860
S'unanimated'
p4861
aS'lifeless'
p4862
aS'wan'
p4863
asg15
I2
sg17
(lp4864
S'animated'
p4865
asg19
g4797
sg20
I00
sg21
I00
sg22
I1
sg24
g4861
sba(isimile
Simile
p4866
(dp4867
g3
S'as unanimated as a tree'
p4868
sg5
(lp4869
S'tree'
p4870
aS'aalii'
p4871
aS'acacia'
p4872
aS'African_walnut'
p4873
aS'Lovoa_klaineana'
p4874
aS'albizzia'
p4875
aS'albizia'
p4876
aS'alder'
p4877
aS'alder_tree'
p4878
aS'angelim'
p4879
aS'andelmin'
p4880
aS'angiospermous_tree'
p4881
aS'flowering_tree'
p4882
aS'anise_tree'
p4883
aS'arbor'
p4884
aS'aroeira_blanca'
p4885
aS'Schinus_chichita'
p4886
aS'ash'
p4887
aS'ash_tree'
p4888
aS'Australian_nettle'
p4889
aS'Australian_nettle_tree'
p4890
aS'balata'
p4891
aS'balata_tree'
p4892
aS'beefwood'
p4893
aS'bully_tree'
p4894
aS'Manilkara_bidentata'
p4895
aS'bayberry'
p4896
aS'bay-rum_tree'
p4897
aS'Jamaica_bayberry'
p4898
aS'wild_cinnamon'
p4899
aS'Pimenta_acris'
p4900
aS'bean_tree'
p4901
aS'beech'
p4902
aS'beech_tree'
p4903
aS'birch'
p4904
aS'birch_tree'
p4905
aS'bitterwood_tree'
p4906
aS'black_mangrove'
p4907
aS'Aegiceras_majus'
p4908
aS'blackwood'
p4909
aS'blackwood_tree'
p4910
aS'bloodwood_tree'
p4911
aS'kiaat'
p4912
aS'Pterocarpus_angolensis'
p4913
aS'bonduc'
p4914
aS'bonduc_tree'
p4915
aS'Caesalpinia_bonduc'
p4916
aS'Caesalpinia_bonducella'
p4917
aS'bonsai'
p4918
aS'bottle-tree'
p4919
aS'bottle_tree'
p4920
aS'brazilian_ironwood'
p4921
aS'Caesalpinia_ferrea'
p4922
aS'Brazilian_pepper_tree'
p4923
aS'Schinus_terebinthifolius'
p4924
aS'brazilwood'
p4925
aS'peachwood'
p4926
aS'peach-wood'
p4927
aS'pernambuco_wood'
p4928
aS'Caesalpinia_echinata'
p4929
aS'breakax'
p4930
aS'breakaxe'
p4931
aS'break-axe'
p4932
aS'Sloanea_jamaicensis'
p4933
aS'Burma_padauk'
p4934
aS'Burmese_rosewood'
p4935
aS'Pterocarpus_macrocarpus'
p4936
aS'button_tree'
p4937
aS'button_mangrove'
p4938
aS'Conocarpus_erectus'
p4939
aS'cabbage_tree'
p4940
aS'grass_tree'
p4941
aS'Cordyline_australis'
p4942
aS'calaba'
p4943
aS'Santa_Maria_tree'
p4944
aS'Calophyllum_calaba'
p4945
aS'calabash'
p4946
aS'calabash_tree'
p4947
aS'Crescentia_cujete'
p4948
aS'camwood'
p4949
aS'African_sandalwood'
p4950
aS'Baphia_nitida'
p4951
aS'caracolito'
p4952
aS'Ruptiliocarpon_caracolito'
p4953
aS'carib_wood'
p4954
aS'Sabinea_carinalis'
p4955
aS'cassia'
p4956
aS'casuarina'
p4957
aS'chaulmoogra'
p4958
aS'chaulmoogra_tree'
p4959
aS'chaulmugra'
p4960
aS'Hydnocarpus_kurzii'
p4961
aS'Taraktagenos_kurzii'
p4962
aS'Taraktogenos_kurzii'
p4963
aS'chestnut'
p4964
aS'chestnut_tree'
p4965
aS'chinaberry'
p4966
aS'chinaberry_tree'
p4967
aS'China_tree'
p4968
aS'Persian_lilac'
p4969
aS'pride-of-India'
p4970
aS'azederach'
p4971
aS'azedarach'
p4972
aS'Melia_azederach'
p4973
aS'Melia_azedarach'
p4974
aS'Chinese_parasol_tree'
p4975
aS'Chinese_parasol'
p4976
aS'Japanese_varnish_tree'
p4977
aS'phoenix_tree'
p4978
aS'Firmiana_simplex'
p4979
aS'Christmas_bush'
p4980
aS'Christmas_tree'
p4981
aS'Ceratopetalum_gummiferum'
p4982
aS'cinchona'
p4983
aS'chinchona'
p4984
aS'clusia'
p4985
aS'cockspur'
p4986
aS'Pisonia_aculeata'
p4987
aS'cocobolo'
p4988
aS'Dalbergia_retusa'
p4989
aS'coffee'
p4990
aS'coffee_tree'
p4991
aS'conacaste'
p4992
aS"elephant's_ear"
p4993
aS'Enterolobium_cyclocarpa'
p4994
aS'coral_tree'
p4995
aS'erythrina'
p4996
aS'coralwood'
p4997
aS'coral-wood'
p4998
aS'red_sandalwood'
p4999
aS'Barbados_pride'
p5000
aS'peacock_flower_fence'
p5001
aS'Adenanthera_pavonina'
p5002
aS'cork_tree'
p5003
aS'Phellodendron_amurense'
p5004
aS'dagame'
p5005
aS'lemonwood_tree'
p5006
aS'Calycophyllum_candidissimum'
p5007
aS'devilwood'
p5008
aS'American_olive'
p5009
aS'Osmanthus_americanus'
p5010
aS'dhak'
p5011
aS'dak'
p5012
aS'palas'
p5013
aS'Butea_frondosa'
p5014
aS'Butea_monosperma'
p5015
aS'dhawa'
p5016
aS'dhava'
p5017
aS'dipterocarp'
p5018
aS'dita'
p5019
aS'dita_bark'
p5020
aS'devil_tree'
p5021
aS'Alstonia_scholaris'
p5022
aS'divi-divi'
p5023
aS'Caesalpinia_coriaria'
p5024
aS'ebony'
p5025
aS'ebony_tree'
p5026
aS'Diospyros_ebenum'
p5027
aS'elm'
p5028
aS'elm_tree'
p5029
aS'fever_tree'
p5030
aS'fig_tree'
p5031
aS'fringe_tree'
p5032
aS'giant_chinkapin'
p5033
aS'golden_chinkapin'
p5034
aS'Chrysolepis_chrysophylla'
p5035
aS'Castanea_chrysophylla'
p5036
aS'Castanopsis_chrysophylla'
p5037
aS'gliricidia'
p5038
aS'granadilla_tree'
p5039
aS'granadillo'
p5040
aS'Brya_ebenus'
p5041
aS'guama'
p5042
aS'Inga_laurina'
p5043
aS'Guinea_pepper'
p5044
aS'negro_pepper'
p5045
aS'Xylopia_aethiopica'
p5046
aS'gum_tree'
p5047
aS'gum'
p5048
aS'gutta-percha_tree'
p5049
aS'Palaquium_gutta'
p5050
aS'gymnospermous_tree'
p5051
aS'hackberry'
p5052
aS'nettle_tree'
p5053
aS'hazel'
p5054
aS'hazel_tree'
p5055
aS'Pomaderris_apetala'
p5056
aS'hop_hornbeam'
p5057
aS'hornbeam'
p5058
aS'Hydnocarpus_laurifolia'
p5059
aS'Hydnocarpus_wightiana'
p5060
aS'ice-cream_bean'
p5061
aS'Inga_edulis'
p5062
aS'idesia'
p5063
aS'Idesia_polycarpa'
p5064
aS'incense_tree'
p5065
aS'Indian_beech'
p5066
aS'Pongamia_glabra'
p5067
aS'inga'
p5068
aS'ivory_tree'
p5069
aS'conessi'
p5070
aS'kurchi'
p5071
aS'kurchee'
p5072
aS'Holarrhena_pubescens'
p5073
aS'Holarrhena_antidysenterica'
p5074
aS'Jamaica_dogwood'
p5075
aS'fish_fuddle'
p5076
aS'Piscidia_piscipula'
p5077
aS'Piscidia_erythrina'
p5078
aS'Jamaican_cherry'
p5079
aS'calabur_tree'
p5080
aS'calabura'
p5081
aS'silk_wood'
p5082
aS'silkwood'
p5083
aS'Muntingia_calabura'
p5084
aS'Japanese_pagoda_tree'
p5085
aS'Chinese_scholartree'
p5086
aS'Chinese_scholar_tree'
p5087
aS'Sophora_japonica'
p5088
aS'Sophora_sinensis'
p5089
aS'Kentucky_coffee_tree'
p5090
aS'chicot'
p5091
aS'Gymnocladus_dioica'
p5092
aS'ketembilla'
p5093
aS'kitembilla'
p5094
aS'kitambilla'
p5095
aS'ketembilla_tree'
p5096
aS'Ceylon_gooseberry'
p5097
aS'Dovyalis_hebecarpa'
p5098
aS'keurboom'
p5099
aS'Virgilia_divaricata'
p5100
aS'Virgilia_capensis'
p5101
aS'Virgilia_oroboides'
p5102
aS'kingwood'
p5103
aS'kingwood_tree'
p5104
aS'Dalbergia_cearensis'
p5105
aS'kino'
p5106
aS'Pterocarpus_marsupium'
p5107
aS'kowhai'
p5108
aS'Sophora_tetraptera'
p5109
aS'lacebark'
p5110
aS'ribbonwood'
p5111
aS'houhere'
p5112
aS'Hoheria_populnea'
p5113
aS'lancewood'
p5114
aS'lancewood_tree'
p5115
aS'Oxandra_lanceolata'
p5116
aS'lanseh_tree'
p5117
aS'langsat'
p5118
aS'langset'
p5119
aS'Lansium_domesticum'
p5120
aS'laurelwood'
p5121
aS'Calophyllum_candidissimum'
p5122
aS'lead_tree'
p5123
aS'white_popinac'
p5124
aS'Leucaena_glauca'
p5125
aS'Leucaena_leucocephala'
p5126
aS'lemonwood'
p5127
aS'lemon-wood'
p5128
aS'lemon-wood_tree'
p5129
aS'Psychotria_capensis'
p5130
aS'lepidobotrys'
p5131
aS'linden'
p5132
aS'linden_tree'
p5133
aS'basswood'
p5134
aS'lime'
p5135
aS'lime_tree'
p5136
aS'locust_tree'
p5137
aS'locust'
p5138
aS'mahogany'
p5139
aS'mahogany_tree'
p5140
aS'manila_tamarind'
p5141
aS'camachile'
p5142
aS'huamachil'
p5143
aS'wild_tamarind'
p5144
aS'Pithecellobium_dulce'
p5145
aS'marblewood'
p5146
aS'marble-wood'
p5147
aS'Andaman_marble'
p5148
aS'Diospyros_kurzii'
p5149
aS'Maria'
p5150
aS'Calophyllum_longifolium'
p5151
aS'marmalade_tree'
p5152
aS'mammee'
p5153
aS'sapote'
p5154
aS'Pouteria_zapota'
p5155
aS'Calocarpum_zapota'
p5156
aS'mayeng'
p5157
aS'maple-leaved_bayur'
p5158
aS'Pterospermum_acerifolium'
p5159
aS'mescal_bean'
p5160
aS'coral_bean'
p5161
aS'frijolito'
p5162
aS'frijolillo'
p5163
aS'Sophora_secundiflora'
p5164
aS'millettia'
p5165
aS'Montezuma'
p5166
aS'msasa'
p5167
aS'Brachystegia_speciformis'
p5168
aS'nakedwood'
p5169
aS'necklace_tree'
p5170
aS'neem'
p5171
aS'neem_tree'
p5172
aS'nim_tree'
p5173
aS'margosa'
p5174
aS'arishth'
p5175
aS'Azadirachta_indica'
p5176
aS'Melia_Azadirachta'
p5177
aS'nitta_tree'
p5178
aS'oak'
p5179
aS'oak_tree'
p5180
aS'oak_chestnut'
p5181
aS'obeche'
p5182
aS'obechi'
p5183
aS'arere'
p5184
aS'samba'
p5185
aS'Triplochiton_scleroxcylon'
p5186
aS'opepe'
p5187
aS'Nauclea_diderrichii'
p5188
aS'Sarcocephalus_diderrichii'
p5189
aS'padauk'
p5190
aS'padouk'
p5191
aS'amboyna'
p5192
aS'Pterocarpus_indicus'
p5193
aS'palm'
p5194
aS'palm_tree'
p5195
aS'palo_verde'
p5196
aS'Parkinsonia_florida'
p5197
aS'Cercidium_floridum'
p5198
aS'pandanus'
p5199
aS'screw_pine'
p5200
aS'pepper_tree'
p5201
aS'molle'
p5202
aS'Peruvian_mastic_tree'
p5203
aS'Schinus_molle'
p5204
aS'Kirkia_wilmsii'
p5205
aS'Peruvian_balsam'
p5206
aS'Myroxylon_pereirae'
p5207
aS'Myroxylon_balsamum_pereirae'
p5208
aS'plane_tree'
p5209
aS'sycamore'
p5210
aS'platan'
p5211
aS'pollard'
p5212
aS'poon'
p5213
aS'prickly_ash'
p5214
aS'Orites_excelsa'
p5215
aS'princewood'
p5216
aS'Spanish_elm'
p5217
aS'Cordia_gerascanthus'
p5218
aS'puka'
p5219
aS'Meryta_sinclairii'
p5220
aS'quandong'
p5221
aS'quandang'
p5222
aS'quandong_tree'
p5223
aS'Eucarya_acuminata'
p5224
aS'Fusanus_acuminatus'
p5225
aS'Brisbane_quandong'
p5226
aS'silver_quandong_tree'
p5227
aS'blue_fig'
p5228
aS'Elaeocarpus_grandis'
p5229
aS'quira'
p5230
aS'red_sanders'
p5231
aS'red_sanderswood'
p5232
aS'red_saunders'
p5233
aS'Pterocarpus_santalinus'
p5234
aS'red_silk-cotton_tree'
p5235
aS'simal'
p5236
aS'Bombax_ceiba'
p5237
aS'Bombax_malabarica'
p5238
aS'ribbon_tree'
p5239
aS'Plagianthus_regius'
p5240
aS'Plagianthus_betulinus'
p5241
aS'rose_chestnut'
p5242
aS'ironwood'
p5243
aS'ironwood_tree'
p5244
aS'Mesua_ferrea'
p5245
aS'rosewood'
p5246
aS'rosewood_tree'
p5247
aS'sandalwood_tree'
p5248
aS'true_sandalwood'
p5249
aS'Santalum_album'
p5250
aS'sapling'
p5251
aS'satinwood'
p5252
aS'satinwood_tree'
p5253
aS'Chloroxylon_swietenia'
p5254
aS'scarlet_wisteria_tree'
p5255
aS'vegetable_hummingbird'
p5256
aS'Sesbania_grandiflora'
p5257
aS'scrub_beefwood'
p5258
aS'Stenocarpus_salignus'
p5259
aS'shade_tree'
p5260
aS'shaving-brush_tree'
p5261
aS'Pseudobombax_ellipticum'
p5262
aS'shingle_tree'
p5263
aS'Acrocarpus_fraxinifolius'
p5264
aS'silver_ash'
p5265
aS'silver_tree'
p5266
aS'Leucadendron_argenteum'
p5267
aS'Tarrietia_argyrodendron'
p5268
aS'sissoo'
p5269
aS'sissu'
p5270
aS'sisham'
p5271
aS'Dalbergia_sissoo'
p5272
aS'snag'
p5273
aS'soapberry'
p5274
aS'soapberry_tree'
p5275
aS'souari'
p5276
aS'souari_nut'
p5277
aS'souari_tree'
p5278
aS'Caryocar_nuciferum'
p5279
aS'southern_beech'
p5280
aS'evergreen_beech'
p5281
aS'Spanish_tamarind'
p5282
aS'Vangueria_madagascariensis'
p5283
aS'tanbark_oak'
p5284
aS'Lithocarpus_densiflorus'
p5285
aS'teak'
p5286
aS'Tectona_grandis'
p5287
aS'timber_tree'
p5288
aS'tipu'
p5289
aS'tipu_tree'
p5290
aS'yellow_jacaranda'
p5291
aS'pride_of_Bolivia'
p5292
aS'tolu_tree'
p5293
aS'tolu_balsam_tree'
p5294
aS'Myroxylon_balsamum'
p5295
aS'Myroxylon_toluiferum'
p5296
aS'tree_of_knowledge'
p5297
aS'treelet'
p5298
aS'trifoliate_orange'
p5299
aS'trifoliata'
p5300
aS'wild_orange'
p5301
aS'Poncirus_trifoliata'
p5302
aS'tulipwood_tree'
p5303
aS'turreae'
p5304
aS'wheel_tree'
p5305
aS'firewheel_tree'
p5306
aS'Stenocarpus_sinuatus'
p5307
aS'white_mangrove'
p5308
aS'Avicennia_officinalis'
p5309
aS'Laguncularia_racemosa'
p5310
aS'wild_fig'
p5311
aS'Clusia_flava'
p5312
aS'wild_medlar'
p5313
aS'wild_medlar_tree'
p5314
aS'medlar'
p5315
aS'Vangueria_infausta'
p5316
aS'Lysiloma_latisiliqua'
p5317
aS'Lysiloma_bahamensis'
p5318
aS'willow'
p5319
aS'willow_tree'
p5320
aS"winter's_bark"
p5321
aS"winter's_bark_tree"
p5322
aS'Drimys_winteri'
p5323
aS'yellowwood'
p5324
aS'yellowwood_tree'
p5325
aS'zebrawood'
p5326
aS'zebrawood_tree'
p5327
aS'tree_diagram'
p5328
aS'cladogram'
p5329
aS'stemma'
p5330
aS'Tree'
p5331
aS'Sir_Herbert_Beerbohm_Tree'
p5332
asg8
(lp5333
sg10
g3161
sg12
(lp5334
S'unanimated'
p5335
aS'lifeless'
p5336
aS'wan'
p5337
asg15
I6
sg17
(lp5338
S'animated'
p5339
asg19
g4870
sg20
I00
sg21
I00
sg22
I0
sg24
g5335
sba(isimile
Simile
p5340
(dp5341
g3
S'as unanimated as an organism'
p5342
sg5
(lp5343
S'organism'
p5344
aS'being'
p5345
aS'aerobe'
p5346
aS'amphidiploid'
p5347
aS'anaerobe'
p5348
aS'animal'
p5349
aS'animate_being'
p5350
aS'beast'
p5351
aS'brute'
p5352
aS'creature'
p5353
aS'fauna'
p5354
aS'animalcule'
p5355
aS'animalculum'
p5356
aS'atavist'
p5357
aS'throwback'
p5358
aS'benthos'
p5359
aS'carrier'
p5360
aS'clone'
p5361
aS'clon'
p5362
aS'commensal'
p5363
aS'conspecific'
p5364
aS'denizen'
p5365
aS'diploid'
p5366
aS'dwarf'
p5367
aS'eukaryote'
p5368
aS'eucaryote'
p5369
aS'fungus'
p5370
aS'haploid'
p5371
aS'heteroploid'
p5372
aS'heterotroph'
p5373
aS'host'
p5374
aS'hybrid'
p5375
aS'crossbreed'
p5376
aS'cross'
p5377
aS'individual'
p5378
aS'katharobe'
p5379
aS'mascot'
p5380
aS'microorganism'
p5381
aS'micro-organism'
p5382
aS'mutant'
p5383
aS'mutation'
p5384
aS'variation'
p5385
aS'sport'
p5386
aS'myrmecophile'
p5387
aS'native'
p5388
aS'nekton'
p5389
aS'nonvascular_organism'
p5390
aS'parasite'
p5391
aS'parent'
p5392
aS'person'
p5393
aS'someone'
p5394
aS'somebody'
p5395
aS'mortal'
p5396
aS'soul'
p5397
aS'plankton'
p5398
aS'plant'
p5399
aS'flora'
p5400
aS'plant_life'
p5401
aS'polymorph'
p5402
aS'polyploid'
p5403
aS'postdiluvian'
p5404
aS'prokaryote'
p5405
aS'procaryote'
p5406
aS'recombinant'
p5407
aS'relative'
p5408
aS'congener'
p5409
aS'congenator'
p5410
aS'congeneric'
p5411
aS'relict'
p5412
aS'saprobe'
p5413
aS'saprophyte'
p5414
aS'saprophytic_organism'
p5415
aS'sitter'
p5416
aS'stander'
p5417
aS'utterer'
p5418
aS'vocalizer'
p5419
aS'vocaliser'
p5420
aS'zooid'
p5421
asg8
(lp5422
sg10
g3616
sg12
(lp5423
S'unanimated'
p5424
aS'lifeless'
p5425
aS'wan'
p5426
asg15
I12400
sg17
(lp5427
S'animated'
p5428
asg19
g5344
sg20
I00
sg21
I00
sg22
I12400
sg24
g5424
sba(isimile
Simile
p5429
(dp5430
g3
S'as unanimated as a raconteur'
p5431
sg5
(lp5432
S'raconteur'
p5433
aS'anecdotist'
p5434
asg8
(lp5435
sg10
g3161
sg12
(lp5436
S'unanimated'
p5437
aS'lifeless'
p5438
aS'wan'
p5439
asg15
I3940
sg17
(lp5440
S'animated'
p5441
asg19
g5433
sg20
I00
sg21
I00
sg22
I0
sg24
g5437
sba(isimile
Simile
p5442
(dp5443
g3
S'as unanimated as a rainforest'
p5444
sg5
(lp5445
S'rainforest'
p5446
aS'rain_forest'
p5447
aS'temperate_rain_forest'
p5448
aS'tropical_rain_forest'
p5449
aS'selva'
p5450
asg8
(lp5451
sg10
g3161
sg12
(lp5452
S'unanimated'
p5453
aS'lifeless'
p5454
aS'wan'
p5455
asg15
I4750
sg17
(lp5456
S'animated'
p5457
asg19
g5446
sg20
I00
sg21
I00
sg22
I4750
sg24
g5453
sba(isimile
Simile
p5458
(dp5459
g3
S'as unanimated as a volcano'
p5460
sg5
(lp5461
S'volcano'
p5462
aS'vent'
p5463
asg8
(lp5464
sg10
g3161
sg12
(lp5465
S'unanimated'
p5466
aS'lifeless'
p5467
aS'wan'
p5468
asg15
I41200
sg17
(lp5469
S'animated'
p5470
asg19
g5462
sg20
I00
sg21
I00
sg22
I41200
sg24
g5466
sba(isimile
Simile
p5471
(dp5472
g3
S'as unanimated as a bacteria'
p5473
sg5
(lp5474
S'bacteria'
p5475
aS'bacterium'
p5476
aS'acidophil'
p5477
aS'acidophile'
p5478
aS'bacteroid'
p5479
aS'Calymmatobacterium'
p5480
aS'genus_Calymmatobacterium'
p5481
aS'diplococcus'
p5482
aS'eubacteria'
p5483
aS'eubacterium'
p5484
aS'true_bacteria'
p5485
aS'Francisella'
p5486
aS'genus_Francisella'
p5487
aS'gonococcus'
p5488
aS'Neisseria_gonorrhoeae'
p5489
aS'Legionella_pneumophilia'
p5490
aS'legionella'
p5491
aS'nitrobacterium'
p5492
aS'penicillin-resistant_bacteria'
p5493
aS'probiotic'
p5494
aS'probiotic_bacterium'
p5495
aS'probiotic_microflora'
p5496
aS'probiotic_flora'
p5497
aS'pus-forming_bacteria'
p5498
aS'rod'
p5499
aS'superbug'
p5500
asg8
(lp5501
sg10
g3161
sg12
(lp5502
S'unanimated'
p5503
aS'lifeless'
p5504
aS'wan'
p5505
asg15
I12900
sg17
(lp5506
S'animated'
p5507
asg19
g5475
sg20
I00
sg21
I00
sg22
I12900
sg24
g5503
sba(isimile
Simile
p5508
(dp5509
g3
S'as unanimated as a zombie'
p5510
sg5
(lp5511
S'zombie'
p5512
aS'zombi'
p5513
aS'living_dead'
p5514
aS'zombi_spirit'
p5515
aS'zombie_spirit'
p5516
aS'snake_god'
p5517
aS'automaton'
p5518
asg8
(lp5519
sg10
g3161
sg12
(lp5520
S'unanimated'
p5521
aS'lifeless'
p5522
aS'wan'
p5523
asg15
I3
sg17
(lp5524
S'animated'
p5525
asg19
g5512
sg20
I00
sg21
I00
sg22
I1
sg24
g5521
sba(isimile
Simile
p5526
(dp5527
g3
S'as unanimated as a dodo'
p5528
sg5
(lp5529
S'dodo'
p5530
aS'fogy'
p5531
aS'fogey'
p5532
aS'fossil'
p5533
aS'Raphus_cucullatus'
p5534
asg8
(lp5535
sg10
g3161
sg12
(lp5536
S'unanimated'
p5537
aS'lifeless'
p5538
aS'wan'
p5539
asg15
I25100
sg17
(lp5540
S'animated'
p5541
asg19
g5530
sg20
I00
sg21
I00
sg22
I25100
sg24
g5537
sba(isimile
Simile
p5542
(dp5543
g3
S'as awkward as a bird'
p5544
sg5
(lp5545
S'bird'
p5546
aS'apodiform_bird'
p5547
aS'aquatic_bird'
p5548
aS'archaeopteryx'
p5549
aS'archeopteryx'
p5550
aS'Archaeopteryx_lithographica'
p5551
aS'archaeornis'
p5552
aS'bird_of_passage'
p5553
aS'bird_of_prey'
p5554
aS'raptor'
p5555
aS'raptorial_bird'
p5556
aS'caprimulgiform_bird'
p5557
aS'carinate'
p5558
aS'carinate_bird'
p5559
aS'flying_bird'
p5560
aS'cock'
p5561
aS'coraciiform_bird'
p5562
aS'cuculiform_bird'
p5563
aS'dickeybird'
p5564
aS'dickey-bird'
p5565
aS'dickybird'
p5566
aS'dicky-bird'
p5567
aS'gallinaceous_bird'
p5568
aS'gallinacean'
p5569
aS'hen'
p5570
aS'Ibero-mesornis'
p5571
aS'nester'
p5572
aS'night_bird'
p5573
aS'nonpasserine_bird'
p5574
aS'parrot'
p5575
aS'passerine'
p5576
aS'passeriform_bird'
p5577
aS'piciform_bird'
p5578
aS'protoavis'
p5579
aS'ratite'
p5580
aS'ratite_bird'
p5581
aS'flightless_bird'
p5582
aS'Sinornis'
p5583
aS'trogon'
p5584
aS'twitterer'
p5585
aS'fowl'
p5586
aS'poultry'
p5587
aS'wildfowl'
p5588
aS'dame'
p5589
aS'doll'
p5590
aS'wench'
p5591
aS'skirt'
p5592
aS'chick'
p5593
aS'boo'
p5594
aS'hoot'
p5595
aS'Bronx_cheer'
p5596
aS'hiss'
p5597
aS'raspberry'
p5598
aS'razzing'
p5599
aS'razz'
p5600
aS'snort'
p5601
aS'shuttlecock'
p5602
aS'birdie'
p5603
aS'shuttle'
p5604
asg8
(lp5605
sg10
S'a '
p5606
sg12
(lp5607
S'awkward'
p5608
aS'inconvenient'
p5609
aS'gawky'
p5610
aS'clumsy'
p5611
aS'clunky'
p5612
aS'ungainly'
p5613
aS'unwieldy'
p5614
aS'graceless'
p5615
aS'ungraceful'
p5616
aS'labored'
p5617
aS'laboured'
p5618
aS'strained'
p5619
aS'wooden'
p5620
aS'bunglesome'
p5621
aS'unmanageable'
p5622
aS'cumbersome'
p5623
aS'inapt'
p5624
aS'inept'
p5625
aS'ill-chosen'
p5626
aS'infelicitous'
p5627
aS'embarrassing'
p5628
aS'sticky'
p5629
aS'unenviable'
p5630
aS'difficult'
p5631
aS'hard'
p5632
aS'ill_at_ease'
p5633
aS'uneasy'
p5634
aS'uncomfortable'
p5635
asg15
I1
sg17
(lp5636
S'graceful'
p5637
asg19
g5546
sg20
I00
sg21
I00
sg22
I0
sg24
g5608
sba(isimile
Simile
p5638
(dp5639
g3
S'as awkward as a surgeon'
p5640
sg5
(lp5641
S'surgeon'
p5642
aS'operating_surgeon'
p5643
aS'sawbones'
p5644
aS'amputator'
p5645
aS'cosmetic_surgeon'
p5646
aS'plastic_surgeon'
p5647
aS'neurosurgeon'
p5648
aS'brain_surgeon'
p5649
asg8
(lp5650
sg10
g5606
sg12
(lp5651
S'awkward'
p5652
aS'inconvenient'
p5653
aS'gawky'
p5654
aS'clumsy'
p5655
aS'clunky'
p5656
aS'ungainly'
p5657
aS'unwieldy'
p5658
aS'graceless'
p5659
aS'ungraceful'
p5660
aS'labored'
p5661
aS'laboured'
p5662
aS'strained'
p5663
aS'wooden'
p5664
aS'bunglesome'
p5665
aS'unmanageable'
p5666
aS'cumbersome'
p5667
aS'inapt'
p5668
aS'inept'
p5669
aS'ill-chosen'
p5670
aS'infelicitous'
p5671
aS'embarrassing'
p5672
aS'sticky'
p5673
aS'unenviable'
p5674
aS'difficult'
p5675
aS'hard'
p5676
aS'ill_at_ease'
p5677
aS'uneasy'
p5678
aS'uncomfortable'
p5679
asg15
I12900000
sg17
(lp5680
S'graceful'
p5681
asg19
g5642
sg20
I00
sg21
I00
sg22
I0
sg24
g5652
sba(isimile
Simile
p5682
(dp5683
g3
S'as awkward as a supermodel'
p5684
sg5
(lp5685
S'supermodel'
p5686
asg8
(lp5687
sg10
g5606
sg12
(lp5688
S'awkward'
p5689
aS'inconvenient'
p5690
aS'gawky'
p5691
aS'clumsy'
p5692
aS'clunky'
p5693
aS'ungainly'
p5694
aS'unwieldy'
p5695
aS'graceless'
p5696
aS'ungraceful'
p5697
aS'labored'
p5698
aS'laboured'
p5699
aS'strained'
p5700
aS'wooden'
p5701
aS'bunglesome'
p5702
aS'unmanageable'
p5703
aS'cumbersome'
p5704
aS'inapt'
p5705
aS'inept'
p5706
aS'ill-chosen'
p5707
aS'infelicitous'
p5708
aS'embarrassing'
p5709
aS'sticky'
p5710
aS'unenviable'
p5711
aS'difficult'
p5712
aS'hard'
p5713
aS'ill_at_ease'
p5714
aS'uneasy'
p5715
aS'uncomfortable'
p5716
asg15
I3
sg17
(lp5717
S'graceful'
p5718
asg19
g5686
sg20
I00
sg21
I00
sg22
I1
sg24
g5689
sba(isimile
Simile
p5719
(dp5720
g3
S'as awkward as a brick'
p5721
sg5
(lp5722
S'brick'
p5723
aS'adobe'
p5724
aS'adobe_brick'
p5725
aS'clinker'
p5726
aS'clinker_brick'
p5727
aS'firebrick'
p5728
aS'header'
p5729
aS'coping'
p5730
aS'cope'
p5731
aS'mud_brick'
p5732
asg8
(lp5733
sg10
g5606
sg12
(lp5734
S'awkward'
p5735
aS'inconvenient'
p5736
aS'gawky'
p5737
aS'clumsy'
p5738
aS'clunky'
p5739
aS'ungainly'
p5740
aS'unwieldy'
p5741
aS'graceless'
p5742
aS'ungraceful'
p5743
aS'labored'
p5744
aS'laboured'
p5745
aS'strained'
p5746
aS'wooden'
p5747
aS'bunglesome'
p5748
aS'unmanageable'
p5749
aS'cumbersome'
p5750
aS'inapt'
p5751
aS'inept'
p5752
aS'ill-chosen'
p5753
aS'infelicitous'
p5754
aS'embarrassing'
p5755
aS'sticky'
p5756
aS'unenviable'
p5757
aS'difficult'
p5758
aS'hard'
p5759
aS'ill_at_ease'
p5760
aS'uneasy'
p5761
aS'uncomfortable'
p5762
asg15
I1
sg17
(lp5763
S'graceful'
p5764
asg19
g5723
sg20
I00
sg21
I00
sg22
I0
sg24
g5735
sba(isimile
Simile
p5765
(dp5766
g3
S'as dormant as a beehive'
p5767
sg5
(lp5768
S'beehive'
p5769
aS'hive'
p5770
aS'skep'
p5771
asg8
(lp5772
sg10
g5606
sg12
(lp5773
S'dormant'
p5774
aS'hibernating'
p5775
aS'torpid'
p5776
aS'asleep'
p5777
aS'inactive'
p5778
aS'quiescent'
p5779
aS'sleeping'
p5780
aS'unerect'
p5781
aS'abeyant'
p5782
asg15
I294000
sg17
(lp5783
S'active'
p5784
asg19
g5769
sg20
I00
sg21
I00
sg22
I0
sg24
g5774
sba(isimile
Simile
p5785
(dp5786
g3
S'as passive as a squirrel'
p5787
sg5
(lp5788
S'squirrel'
p5789
aS'American_flying_squirrel'
p5790
aS'Asiatic_flying_squirrel'
p5791
aS'baronduki'
p5792
aS'baranduki'
p5793
aS'barunduki'
p5794
aS'burunduki'
p5795
aS'Eutamius_asiaticus'
p5796
aS'Eutamius_sibiricus'
p5797
aS'chipmunk'
p5798
aS'eastern_chipmunk'
p5799
aS'hackee'
p5800
aS'striped_squirrel'
p5801
aS'ground_squirrel'
p5802
aS'Tamias_striatus'
p5803
aS'gopher'
p5804
aS'spermophile'
p5805
aS'tree_squirrel'
p5806
asg8
(lp5807
sg10
g5606
sg12
(lp5808
S'passive'
p5809
aS'inactive'
p5810
aS'hands-off'
p5811
aS'resistless'
p5812
aS'supine'
p5813
aS'unresisting'
p5814
aS'peaceful'
p5815
aS'nonviolent'
p5816
asg15
I1
sg17
(lp5817
S'active'
p5818
asg19
g5789
sg20
I00
sg21
I00
sg22
I0
sg24
g5809
sba(isimile
Simile
p5819
(dp5820
g3
S'as stative as an anthill'
p5821
sg5
(lp5822
S'anthill'
p5823
aS'formicary'
p5824
asg8
(lp5825
sg10
S'an '
p5826
sg12
(lp5827
S'stative'
p5828
asg15
I1770000
sg17
(lp5829
S'active'
p5830
asg19
g5823
sg20
I00
sg21
I00
sg22
I1760000
sg24
g5828
sba(isimile
Simile
p5831
(dp5832
g3
S'as dormant as an adventure'
p5833
sg5
(lp5834
S'adventure'
p5835
aS'escapade'
p5836
aS'risky_venture'
p5837
aS'dangerous_undertaking'
p5838
asg8
(lp5839
sg10
g5826
sg12
(lp5840
S'dormant'
p5841
aS'hibernating'
p5842
aS'torpid'
p5843
aS'asleep'
p5844
aS'inactive'
p5845
aS'quiescent'
p5846
aS'sleeping'
p5847
aS'unerect'
p5848
aS'abeyant'
p5849
asg15
I4410000
sg17
(lp5850
S'active'
p5851
asg19
g5835
sg20
I00
sg21
I00
sg22
I0
sg24
g5841
sba(isimile
Simile
p5852
(dp5853
g3
S'as dormant as a brain'
p5854
sg5
(lp5855
S'brain'
p5856
aS'encephalon'
p5857
aS'brainpower'
p5858
aS'learning_ability'
p5859
aS'mental_capacity'
p5860
aS'mentality'
p5861
aS'wit'
p5862
aS'mind'
p5863
aS'head'
p5864
aS'psyche'
p5865
aS'nous'
p5866
aS'ego'
p5867
aS'noddle'
p5868
aS'subconscious_mind'
p5869
aS'subconscious'
p5870
aS'tabula_rasa'
p5871
aS'unconscious_mind'
p5872
aS'unconscious'
p5873
aS'genius'
p5874
aS'mastermind'
p5875
aS'brainiac'
p5876
aS'Einstein'
p5877
aS'prodigy'
p5878
aS"calf's_brain"
p5879
asg8
(lp5880
sg10
g5606
sg12
(lp5881
S'dormant'
p5882
aS'hibernating'
p5883
aS'torpid'
p5884
aS'asleep'
p5885
aS'inactive'
p5886
aS'quiescent'
p5887
aS'sleeping'
p5888
aS'unerect'
p5889
aS'abeyant'
p5890
asg15
I602000
sg17
(lp5891
S'active'
p5892
asg19
g5856
sg20
I00
sg21
I00
sg22
I0
sg24
g5882
sba(isimile
Simile
p5893
(dp5894
g3
S'as stative as a monkey'
p5895
sg5
(lp5896
S'monkey'
p5897
aS'New_World_monkey'
p5898
aS'platyrrhine'
p5899
aS'platyrrhinian'
p5900
aS'Old_World_monkey'
p5901
aS'catarrhine'
p5902
aS'imp'
p5903
aS'scamp'
p5904
aS'rascal'
p5905
aS'rapscallion'
p5906
aS'scalawag'
p5907
aS'scallywag'
p5908
aS'terror'
p5909
aS'brat'
p5910
aS'little_terror'
p5911
aS'holy_terror'
p5912
asg8
(lp5913
sg10
g5606
sg12
(lp5914
S'stative'
p5915
asg15
I33400000
sg17
(lp5916
S'active'
p5917
asg19
g5897
sg20
I00
sg21
I00
sg22
I25200000
sg24
g5915
sba(isimile
Simile
p5918
(dp5919
g3
S'as passive as a toddler'
p5920
sg5
(lp5921
S'toddler'
p5922
aS'yearling'
p5923
aS'tot'
p5924
aS'bambino'
p5925
asg8
(lp5926
sg10
g5606
sg12
(lp5927
S'passive'
p5928
aS'inactive'
p5929
aS'hands-off'
p5930
aS'resistless'
p5931
aS'supine'
p5932
aS'unresisting'
p5933
aS'peaceful'
p5934
aS'nonviolent'
p5935
asg15
I1
sg17
(lp5936
S'active'
p5937
asg19
g5922
sg20
I00
sg21
I00
sg22
I0
sg24
g5928
sba(isimile
Simile
p5938
(dp5939
g3
S'as dormant as a toddler'
p5940
sg5
(lp5941
g5922
aS'yearling'
p5942
aS'tot'
p5943
aS'bambino'
p5944
asg8
(lp5945
sg10
g5606
sg12
(lp5946
S'dormant'
p5947
aS'hibernating'
p5948
aS'torpid'
p5949
aS'asleep'
p5950
aS'inactive'
p5951
aS'quiescent'
p5952
aS'sleeping'
p5953
aS'unerect'
p5954
aS'abeyant'
p5955
asg15
I1880000
sg17
(lp5956
S'active'
p5957
asg19
g5922
sg20
I00
sg21
I00
sg22
I1870000
sg24
g5947
sba(isimile
Simile
p5958
(dp5959
g3
S'as stative as a shark'
p5960
sg5
(lp5961
S'shark'
p5962
aS'angel_shark'
p5963
aS'angelfish'
p5964
aS'Squatina_squatina'
p5965
aS'monkfish'
p5966
aS'carpet_shark'
p5967
aS'Orectolobus_barbatus'
p5968
aS'cat_shark'
p5969
aS'cow_shark'
p5970
aS'six-gilled_shark'
p5971
aS'Hexanchus_griseus'
p5972
aS'dogfish'
p5973
aS'hammerhead'
p5974
aS'hammerhead_shark'
p5975
aS'mackerel_shark'
p5976
aS'nurse_shark'
p5977
aS'Ginglymostoma_cirratum'
p5978
aS'requiem_shark'
p5979
aS'sand_tiger'
p5980
aS'sand_shark'
p5981
aS'Carcharias_taurus'
p5982
aS'Odontaspis_taurus'
p5983
aS'thresher'
p5984
aS'thrasher'
p5985
aS'thresher_shark'
p5986
aS'fox_shark'
p5987
aS'Alopius_vulpinus'
p5988
aS'whale_shark'
p5989
aS'Rhincodon_typus'
p5990
aS'usurer'
p5991
aS'loan_shark'
p5992
aS'moneylender'
p5993
aS'shylock'
p5994
asg8
(lp5995
sg10
g5606
sg12
(lp5996
S'stative'
p5997
asg15
I76000000
sg17
(lp5998
S'active'
p5999
asg19
g5962
sg20
I00
sg21
I00
sg22
I70000000
sg24
g5997
sba(isimile
Simile
p6000
(dp6001
g3
S'as passive as a catalyst'
p6002
sg5
(lp6003
S'catalyst'
p6004
aS'accelerator'
p6005
aS'biocatalyst'
p6006
aS'enzyme'
p6007
aS'platinum_black'
p6008
asg8
(lp6009
sg10
g5606
sg12
(lp6010
S'passive'
p6011
aS'inactive'
p6012
aS'hands-off'
p6013
aS'resistless'
p6014
aS'supine'
p6015
aS'unresisting'
p6016
aS'peaceful'
p6017
aS'nonviolent'
p6018
asg15
I6830000
sg17
(lp6019
S'active'
p6020
asg19
g6004
sg20
I00
sg21
I00
sg22
I6800000
sg24
g6011
sba(isimile
Simile
p6021
(dp6022
g3
S'as dormant as a catalyst'
p6023
sg5
(lp6024
g6004
aS'accelerator'
p6025
aS'biocatalyst'
p6026
aS'enzyme'
p6027
aS'platinum_black'
p6028
asg8
(lp6029
sg10
g5606
sg12
(lp6030
S'dormant'
p6031
aS'hibernating'
p6032
aS'torpid'
p6033
aS'asleep'
p6034
aS'inactive'
p6035
aS'quiescent'
p6036
aS'sleeping'
p6037
aS'unerect'
p6038
aS'abeyant'
p6039
asg15
I377000
sg17
(lp6040
S'active'
p6041
asg19
g6004
sg20
I00
sg21
I00
sg22
I0
sg24
g6031
sba(isimile
Simile
p6042
(dp6043
g3
S'as passive as a slug'
p6044
sg5
(lp6045
S'slug'
p6046
aS'bullet'
p6047
aS'dumdum'
p6048
aS'dumdum_bullet'
p6049
aS'full_metal_jacket'
p6050
aS'rifle_ball'
p6051
aS'rubber_bullet'
p6052
aS'sluggard'
p6053
aS'type_slug'
p6054
aS'punch'
p6055
aS'clout'
p6056
aS'poke'
p6057
aS'lick'
p6058
aS'biff'
p6059
aS'counterpunch'
p6060
aS'parry'
p6061
aS'counter'
p6062
aS'haymaker'
p6063
aS'knockout_punch'
p6064
aS'KO_punch'
p6065
aS'Sunday_punch'
p6066
aS'hook'
p6067
aS'jab'
p6068
aS'rabbit_punch'
p6069
aS'sucker_punch'
p6070
asg8
(lp6071
sg10
g5606
sg12
(lp6072
S'passive'
p6073
aS'inactive'
p6074
aS'hands-off'
p6075
aS'resistless'
p6076
aS'supine'
p6077
aS'unresisting'
p6078
aS'peaceful'
p6079
aS'nonviolent'
p6080
asg15
I1
sg17
(lp6081
S'active'
p6082
asg19
g6046
sg20
I00
sg21
I00
sg22
I0
sg24
g6073
sba(isimile
Simile
p6083
(dp6084
g3
S'as lethargic as a cheerleader'
p6085
sg5
(lp6086
S'cheerleader'
p6087
asg8
(lp6088
sg10
g5606
sg12
(lp6089
S'lethargic'
p6090
aS'unenrgetic'
p6091
aS'dazed'
p6092
aS'foggy'
p6093
aS'groggy'
p6094
aS'logy'
p6095
aS'stuporous'
p6096
aS'dreamy'
p6097
aS'lackadaisical'
p6098
aS'languid'
p6099
aS'languorous'
p6100
aS'listless'
p6101
asg15
I201000
sg17
(lp6102
S'energetic'
p6103
asg19
g6087
sg20
I00
sg21
I00
sg22
I201000
sg24
g6090
sba(isimile
Simile
p6104
(dp6105
g3
S'as lethargic as an ant'
p6106
sg5
(lp6107
S'ant'
p6108
aS'emmet'
p6109
aS'pismire'
p6110
aS'army_ant'
p6111
aS'driver_ant'
p6112
aS'legionary_ant'
p6113
aS'bulldog_ant'
p6114
aS'carpenter_ant'
p6115
aS'fire_ant'
p6116
aS'little_black_ant'
p6117
aS'Monomorium_minimum'
p6118
aS'pharaoh_ant'
p6119
aS"pharaoh's_ant"
p6120
aS'Monomorium_pharaonis'
p6121
aS'slave-making_ant'
p6122
aS'slave-maker'
p6123
aS'slave_ant'
p6124
aS'wood_ant'
p6125
aS'Formica_rufa'
p6126
asg8
(lp6127
sg10
g5826
sg12
(lp6128
S'lethargic'
p6129
aS'unenrgetic'
p6130
aS'dazed'
p6131
aS'foggy'
p6132
aS'groggy'
p6133
aS'logy'
p6134
aS'stuporous'
p6135
aS'dreamy'
p6136
aS'lackadaisical'
p6137
aS'languid'
p6138
aS'languorous'
p6139
aS'listless'
p6140
asg15
I342000
sg17
(lp6141
S'energetic'
p6142
asg19
g6108
sg20
I00
sg21
I00
sg22
I0
sg24
g6129
sba(isimile
Simile
p6143
(dp6144
g3
S'as immobile as a mustang'
p6145
sg5
(lp6146
S'mustang'
p6147
aS'bronco'
p6148
aS'bronc'
p6149
aS'broncho'
p6150
asg8
(lp6151
sg10
g5606
sg12
(lp6152
S'immobile'
p6153
aS'immovable'
p6154
aS'immoveable'
p6155
aS'stabile'
p6156
aS'unmovable'
p6157
aS'nonmotile'
p6158
aS'immotile'
p6159
aS'stiff'
p6160
aS'fast'
p6161
aS'firm'
p6162
aS'fixed'
p6163
asg15
I346000
sg17
(lp6164
S'mobile'
p6165
asg19
g6147
sg20
I00
sg21
I00
sg22
I0
sg24
g6153
sba(isimile
Simile
p6166
(dp6167
g3
S'as immobile as a slug'
p6168
sg5
(lp6169
S'slug'
p6170
aS'bullet'
p6171
aS'dumdum'
p6172
aS'dumdum_bullet'
p6173
aS'full_metal_jacket'
p6174
aS'rifle_ball'
p6175
aS'rubber_bullet'
p6176
aS'sluggard'
p6177
aS'type_slug'
p6178
aS'punch'
p6179
aS'clout'
p6180
aS'poke'
p6181
aS'lick'
p6182
aS'biff'
p6183
aS'counterpunch'
p6184
aS'parry'
p6185
aS'counter'
p6186
aS'haymaker'
p6187
aS'knockout_punch'
p6188
aS'KO_punch'
p6189
aS'Sunday_punch'
p6190
aS'hook'
p6191
aS'jab'
p6192
aS'rabbit_punch'
p6193
aS'sucker_punch'
p6194
asg8
(lp6195
sg10
g5606
sg12
(lp6196
S'immobile'
p6197
aS'immovable'
p6198
aS'immoveable'
p6199
aS'stabile'
p6200
aS'unmovable'
p6201
aS'nonmotile'
p6202
aS'immotile'
p6203
aS'stiff'
p6204
aS'fast'
p6205
aS'firm'
p6206
aS'fixed'
p6207
asg15
I1
sg17
(lp6208
S'mobile'
p6209
asg19
g6170
sg20
I00
sg21
I00
sg22
I0
sg24
g6197
sba.